SF:/home/tasuku/com/github/signal-slot/embedded-charts/src/animation.rs
FN:498,_RINvMsa_NtCs1I4G5KWFz5n_15embedded_charts9animationNtB6_17TimeBasedProgress18progress_from_timeNtNtB8_4time18ManualTimeProviderEB8_
FN:247,_RNCNvMs6_NtCs1I4G5KWFz5n_15embedded_charts9animationINtB7_18MultiStateAnimatorfKj4_E12add_keyframe0B9_
FN:256,_RNCNvMs6_NtCs1I4G5KWFz5n_15embedded_charts9animationINtB7_18MultiStateAnimatorfKj4_E12add_keyframes0_0B9_
FN:251,_RNCNvMs6_NtCs1I4G5KWFz5n_15embedded_charts9animationINtB7_18MultiStateAnimatorfKj4_E12add_keyframes_0B9_
FN:148,_RNvMs5_NtCs1I4G5KWFz5n_15embedded_charts9animationINtB5_13ChartAnimatorfE3newB7_
FN:163,_RNvMs5_NtCs1I4G5KWFz5n_15embedded_charts9animationINtB5_13ChartAnimatorfE8value_atB7_
FN:241,_RNvMs6_NtCs1I4G5KWFz5n_15embedded_charts9animationINtB5_18MultiStateAnimatorfKj4_E12add_keyframeB7_
FN:225,_RNvMs6_NtCs1I4G5KWFz5n_15embedded_charts9animationINtB5_18MultiStateAnimatorfKj4_E3newB7_
FN:268,_RNvMs6_NtCs1I4G5KWFz5n_15embedded_charts9animationINtB5_18MultiStateAnimatorfKj4_E8value_atB7_
FN:377,_RNvMs8_NtCs1I4G5KWFz5n_15embedded_charts9animationINtB5_17StreamingAnimatorfE12current_dataB7_
FN:413,_RNvMs8_NtCs1I4G5KWFz5n_15embedded_charts9animationINtB5_17StreamingAnimatorfE3lenB7_
FN:358,_RNvMs8_NtCs1I4G5KWFz5n_15embedded_charts9animationINtB5_17StreamingAnimatorfE3newB7_
FN:418,_RNvMs8_NtCs1I4G5KWFz5n_15embedded_charts9animationINtB5_17StreamingAnimatorfE8is_emptyB7_
FN:370,_RNvMs8_NtCs1I4G5KWFz5n_15embedded_charts9animationINtB5_17StreamingAnimatorfE9push_dataB7_
FN:34,_RNvMNtCs1I4G5KWFz5n_15embedded_charts9animationNtB2_14EasingFunction5apply
FN:483,_RNvMsa_NtCs1I4G5KWFz5n_15embedded_charts9animationNtB5_17TimeBasedProgress11new_looping
FN:531,_RNvMsa_NtCs1I4G5KWFz5n_15embedded_charts9animationNtB5_17TimeBasedProgress21progress_from_elapsed
FN:471,_RNvMsa_NtCs1I4G5KWFz5n_15embedded_charts9animationNtB5_17TimeBasedProgress3new
FN:63,_RNvXs0_NtCs1I4G5KWFz5n_15embedded_charts9animationlNtB5_14Interpolatable11interpolate
FN:57,_RNvXs_NtCs1I4G5KWFz5n_15embedded_charts9animationfNtB4_14Interpolatable11interpolate
FN:551,_RINvMsa_NtCs1I4G5KWFz5n_15embedded_charts9animationNtB6_17TimeBasedProgress11is_completepEB8_
FN:190,_RNvMs5_NtCs1I4G5KWFz5n_15embedded_charts9animationINtB5_13ChartAnimatorpE10from_stateB7_
FN:205,_RNvMs5_NtCs1I4G5KWFz5n_15embedded_charts9animationINtB5_13ChartAnimatorpE10set_easingB7_
FN:184,_RNvMs5_NtCs1I4G5KWFz5n_15embedded_charts9animationINtB5_13ChartAnimatorpE10set_statesB7_
FN:175,_RNvMs5_NtCs1I4G5KWFz5n_15embedded_charts9animationINtB5_13ChartAnimatorpE10set_targetB7_
FN:200,_RNvMs5_NtCs1I4G5KWFz5n_15embedded_charts9animationINtB5_13ChartAnimatorpE6easingB7_
FN:195,_RNvMs5_NtCs1I4G5KWFz5n_15embedded_charts9animationINtB5_13ChartAnimatorpE8to_stateB7_
FN:324,_RNvMs6_NtCs1I4G5KWFz5n_15embedded_charts9animationINtB5_18MultiStateAnimatorpKpE14keyframe_countB7_
FN:329,_RNvMs6_NtCs1I4G5KWFz5n_15embedded_charts9animationINtB5_18MultiStateAnimatorpKpE5clearB7_
FN:435,_RNvMs8_NtCs1I4G5KWFz5n_15embedded_charts9animationINtB5_17StreamingAnimatorpE17update_with_deltaB7_
FN:390,_RNvMs8_NtCs1I4G5KWFz5n_15embedded_charts9animationINtB5_17StreamingAnimatorpE22interpolation_progressB7_
FN:398,_RNvMs8_NtCs1I4G5KWFz5n_15embedded_charts9animationINtB5_17StreamingAnimatorpE24set_smooth_interpolationB7_
FN:385,_RNvMs8_NtCs1I4G5KWFz5n_15embedded_charts9animationINtB5_17StreamingAnimatorpE26set_interpolation_progressB7_
FN:403,_RNvMs8_NtCs1I4G5KWFz5n_15embedded_charts9animationINtB5_17StreamingAnimatorpE31is_smooth_interpolation_enabledB7_
FN:423,_RNvMs8_NtCs1I4G5KWFz5n_15embedded_charts9animationINtB5_17StreamingAnimatorpE5clearB7_
FN:408,_RNvMs8_NtCs1I4G5KWFz5n_15embedded_charts9animationINtB5_17StreamingAnimatorpE8capacityB7_
FN:576,_RNvMsa_NtCs1I4G5KWFz5n_15embedded_charts9animationNtB5_17TimeBasedProgress10is_looping
FN:566,_RNvMsa_NtCs1I4G5KWFz5n_15embedded_charts9animationNtB5_17TimeBasedProgress11duration_ms
FN:581,_RNvMsa_NtCs1I4G5KWFz5n_15embedded_charts9animationNtB5_17TimeBasedProgress11set_looping
FN:571,_RNvMsa_NtCs1I4G5KWFz5n_15embedded_charts9animationNtB5_17TimeBasedProgress15set_duration_ms
FN:543,_RNvMsa_NtCs1I4G5KWFz5n_15embedded_charts9animationNtB5_17TimeBasedProgress5reset
FN:108,_RNvXININtCs1I4G5KWFz5n_15embedded_charts9animations4_0KpEINtNtCskfOXI52s3xc_8heapless3vec3VecfKpENtB5_14Interpolatable11interpolateB7_
FN:336,_RNvXININtCs1I4G5KWFz5n_15embedded_charts9animations7_0pKpEINtB5_18MultiStateAnimatorpKpENtNtCs3XRySYX51hI_4core7default7Default7defaultB7_
FN:446,_RNvXININtCs1I4G5KWFz5n_15embedded_charts9animations9_0pEINtB5_17StreamingAnimatorpENtNtCs3XRySYX51hI_4core7default7Default7defaultB7_
FN:78,_RNvXs2_NtCs1I4G5KWFz5n_15embedded_charts9animationNtNtNtB7_4data5point8IntPointNtB5_14Interpolatable11interpolate
FN:87,_RNvXs3_NtCs1I4G5KWFz5n_15embedded_charts9animationINtNtNtB7_4data6series16StaticDataSeriesNtNtBR_5point7Point2DKj100_ENtB5_14Interpolatable11interpolate
FN:69,_RNvXs1_NtCs1I4G5KWFz5n_15embedded_charts9animationNtNtNtB7_4data5point7Point2DNtB5_14Interpolatable11interpolate
FN:612,_RNvNtNtCs1I4G5KWFz5n_15embedded_charts9animation5testss_19test_chart_animator
FN:592,_RNvNtNtCs1I4G5KWFz5n_15embedded_charts9animation5testss_21test_easing_functions
FN:600,_RNvNtNtCs1I4G5KWFz5n_15embedded_charts9animation5testss_23test_interpolatable_f32
FN:606,_RNvNtNtCs1I4G5KWFz5n_15embedded_charts9animation5testss_23test_interpolatable_i32
FN:650,_RNvNtNtCs1I4G5KWFz5n_15embedded_charts9animation5testss_23test_streaming_animator
FN:667,_RNvNtNtCs1I4G5KWFz5n_15embedded_charts9animation5testss_24test_time_based_progress
FN:629,_RNvNtNtCs1I4G5KWFz5n_15embedded_charts9animation5testss_25test_multi_state_animator
FN:621,_RNvNtNtCs1I4G5KWFz5n_15embedded_charts9animation5testss_26test_chart_animator_easing
FN:705,_RNvNtNtCs1I4G5KWFz5n_15embedded_charts9animation5testss_26test_progress_from_elapsed
FN:688,_RNvNtNtCs1I4G5KWFz5n_15embedded_charts9animation5testss_32test_time_based_progress_looping
FNDA:7,_RINvMsa_NtCs1I4G5KWFz5n_15embedded_charts9animationNtB6_17TimeBasedProgress18progress_from_timeNtNtB8_4time18ManualTimeProviderEB8_
FNDA:0,_RNCNvMs6_NtCs1I4G5KWFz5n_15embedded_charts9animationINtB7_18MultiStateAnimatorfKj4_E12add_keyframe0B9_
FNDA:6,_RNCNvMs6_NtCs1I4G5KWFz5n_15embedded_charts9animationINtB7_18MultiStateAnimatorfKj4_E12add_keyframes0_0B9_
FNDA:0,_RNCNvMs6_NtCs1I4G5KWFz5n_15embedded_charts9animationINtB7_18MultiStateAnimatorfKj4_E12add_keyframes_0B9_
FNDA:2,_RNvMs5_NtCs1I4G5KWFz5n_15embedded_charts9animationINtB5_13ChartAnimatorfE3newB7_
FNDA:4,_RNvMs5_NtCs1I4G5KWFz5n_15embedded_charts9animationINtB5_13ChartAnimatorfE8value_atB7_
FNDA:3,_RNvMs6_NtCs1I4G5KWFz5n_15embedded_charts9animationINtB5_18MultiStateAnimatorfKj4_E12add_keyframeB7_
FNDA:1,_RNvMs6_NtCs1I4G5KWFz5n_15embedded_charts9animationINtB5_18MultiStateAnimatorfKj4_E3newB7_
FNDA:5,_RNvMs6_NtCs1I4G5KWFz5n_15embedded_charts9animationINtB5_18MultiStateAnimatorfKj4_E8value_atB7_
FNDA:1,_RNvMs8_NtCs1I4G5KWFz5n_15embedded_charts9animationINtB5_17StreamingAnimatorfE12current_dataB7_
FNDA:1,_RNvMs8_NtCs1I4G5KWFz5n_15embedded_charts9animationINtB5_17StreamingAnimatorfE3lenB7_
FNDA:1,_RNvMs8_NtCs1I4G5KWFz5n_15embedded_charts9animationINtB5_17StreamingAnimatorfE3newB7_
FNDA:2,_RNvMs8_NtCs1I4G5KWFz5n_15embedded_charts9animationINtB5_17StreamingAnimatorfE8is_emptyB7_
FNDA:2,_RNvMs8_NtCs1I4G5KWFz5n_15embedded_charts9animationINtB5_17StreamingAnimatorfE9push_dataB7_
FNDA:12,_RNvMNtCs1I4G5KWFz5n_15embedded_charts9animationNtB2_14EasingFunction5apply
FNDA:1,_RNvMsa_NtCs1I4G5KWFz5n_15embedded_charts9animationNtB5_17TimeBasedProgress11new_looping
FNDA:4,_RNvMsa_NtCs1I4G5KWFz5n_15embedded_charts9animationNtB5_17TimeBasedProgress21progress_from_elapsed
FNDA:2,_RNvMsa_NtCs1I4G5KWFz5n_15embedded_charts9animationNtB5_17TimeBasedProgress3new
FNDA:1,_RNvXs0_NtCs1I4G5KWFz5n_15embedded_charts9animationlNtB5_14Interpolatable11interpolate
FNDA:9,_RNvXs_NtCs1I4G5KWFz5n_15embedded_charts9animationfNtB4_14Interpolatable11interpolate
FNDA:0,_RINvMsa_NtCs1I4G5KWFz5n_15embedded_charts9animationNtB6_17TimeBasedProgress11is_completepEB8_
FNDA:0,_RNvMs5_NtCs1I4G5KWFz5n_15embedded_charts9animationINtB5_13ChartAnimatorpE10from_stateB7_
FNDA:0,_RNvMs5_NtCs1I4G5KWFz5n_15embedded_charts9animationINtB5_13ChartAnimatorpE10set_easingB7_
FNDA:0,_RNvMs5_NtCs1I4G5KWFz5n_15embedded_charts9animationINtB5_13ChartAnimatorpE10set_statesB7_
FNDA:0,_RNvMs5_NtCs1I4G5KWFz5n_15embedded_charts9animationINtB5_13ChartAnimatorpE10set_targetB7_
FNDA:0,_RNvMs5_NtCs1I4G5KWFz5n_15embedded_charts9animationINtB5_13ChartAnimatorpE6easingB7_
FNDA:0,_RNvMs5_NtCs1I4G5KWFz5n_15embedded_charts9animationINtB5_13ChartAnimatorpE8to_stateB7_
FNDA:0,_RNvMs6_NtCs1I4G5KWFz5n_15embedded_charts9animationINtB5_18MultiStateAnimatorpKpE14keyframe_countB7_
FNDA:0,_RNvMs6_NtCs1I4G5KWFz5n_15embedded_charts9animationINtB5_18MultiStateAnimatorpKpE5clearB7_
FNDA:0,_RNvMs8_NtCs1I4G5KWFz5n_15embedded_charts9animationINtB5_17StreamingAnimatorpE17update_with_deltaB7_
FNDA:0,_RNvMs8_NtCs1I4G5KWFz5n_15embedded_charts9animationINtB5_17StreamingAnimatorpE22interpolation_progressB7_
FNDA:0,_RNvMs8_NtCs1I4G5KWFz5n_15embedded_charts9animationINtB5_17StreamingAnimatorpE24set_smooth_interpolationB7_
FNDA:0,_RNvMs8_NtCs1I4G5KWFz5n_15embedded_charts9animationINtB5_17StreamingAnimatorpE26set_interpolation_progressB7_
FNDA:0,_RNvMs8_NtCs1I4G5KWFz5n_15embedded_charts9animationINtB5_17StreamingAnimatorpE31is_smooth_interpolation_enabledB7_
FNDA:0,_RNvMs8_NtCs1I4G5KWFz5n_15embedded_charts9animationINtB5_17StreamingAnimatorpE5clearB7_
FNDA:0,_RNvMs8_NtCs1I4G5KWFz5n_15embedded_charts9animationINtB5_17StreamingAnimatorpE8capacityB7_
FNDA:0,_RNvMsa_NtCs1I4G5KWFz5n_15embedded_charts9animationNtB5_17TimeBasedProgress10is_looping
FNDA:0,_RNvMsa_NtCs1I4G5KWFz5n_15embedded_charts9animationNtB5_17TimeBasedProgress11duration_ms
FNDA:0,_RNvMsa_NtCs1I4G5KWFz5n_15embedded_charts9animationNtB5_17TimeBasedProgress11set_looping
FNDA:0,_RNvMsa_NtCs1I4G5KWFz5n_15embedded_charts9animationNtB5_17TimeBasedProgress15set_duration_ms
FNDA:0,_RNvMsa_NtCs1I4G5KWFz5n_15embedded_charts9animationNtB5_17TimeBasedProgress5reset
FNDA:0,_RNvXININtCs1I4G5KWFz5n_15embedded_charts9animations4_0KpEINtNtCskfOXI52s3xc_8heapless3vec3VecfKpENtB5_14Interpolatable11interpolateB7_
FNDA:0,_RNvXININtCs1I4G5KWFz5n_15embedded_charts9animations7_0pKpEINtB5_18MultiStateAnimatorpKpENtNtCs3XRySYX51hI_4core7default7Default7defaultB7_
FNDA:0,_RNvXININtCs1I4G5KWFz5n_15embedded_charts9animations9_0pEINtB5_17StreamingAnimatorpENtNtCs3XRySYX51hI_4core7default7Default7defaultB7_
FNDA:0,_RNvXs2_NtCs1I4G5KWFz5n_15embedded_charts9animationNtNtNtB7_4data5point8IntPointNtB5_14Interpolatable11interpolate
FNDA:0,_RNvXs3_NtCs1I4G5KWFz5n_15embedded_charts9animationINtNtNtB7_4data6series16StaticDataSeriesNtNtBR_5point7Point2DKj100_ENtB5_14Interpolatable11interpolate
FNDA:1,_RNvXs1_NtCs1I4G5KWFz5n_15embedded_charts9animationNtNtNtB7_4data5point7Point2DNtB5_14Interpolatable11interpolate
FNDA:1,_RNvNtNtCs1I4G5KWFz5n_15embedded_charts9animation5testss_19test_chart_animator
FNDA:1,_RNvNtNtCs1I4G5KWFz5n_15embedded_charts9animation5testss_21test_easing_functions
FNDA:1,_RNvNtNtCs1I4G5KWFz5n_15embedded_charts9animation5testss_23test_interpolatable_f32
FNDA:1,_RNvNtNtCs1I4G5KWFz5n_15embedded_charts9animation5testss_23test_interpolatable_i32
FNDA:1,_RNvNtNtCs1I4G5KWFz5n_15embedded_charts9animation5testss_23test_streaming_animator
FNDA:1,_RNvNtNtCs1I4G5KWFz5n_15embedded_charts9animation5testss_24test_time_based_progress
FNDA:1,_RNvNtNtCs1I4G5KWFz5n_15embedded_charts9animation5testss_25test_multi_state_animator
FNDA:1,_RNvNtNtCs1I4G5KWFz5n_15embedded_charts9animation5testss_26test_chart_animator_easing
FNDA:1,_RNvNtNtCs1I4G5KWFz5n_15embedded_charts9animation5testss_26test_progress_from_elapsed
FNDA:1,_RNvNtNtCs1I4G5KWFz5n_15embedded_charts9animation5testss_32test_time_based_progress_looping
FNF:57
FNH:29
DA:34,12
DA:35,12
DA:36,8
DA:37,2
DA:38,1
DA:40,1
DA:41,0
DA:43,1
DA:47,12
DA:57,9
DA:58,9
DA:59,9
DA:63,1
DA:64,1
DA:65,1
DA:69,1
DA:70,1
DA:71,1
DA:72,1
DA:73,1
DA:74,1
DA:78,0
DA:79,0
DA:80,0
DA:81,0
DA:82,0
DA:83,0
DA:87,0
DA:88,0
DA:89,0
DA:90,0
DA:91,0
DA:93,0
DA:94,0
DA:95,0
DA:96,0
DA:97,0
DA:98,0
DA:99,0
DA:100,0
DA:103,0
DA:104,0
DA:108,0
DA:109,0
DA:110,0
DA:111,0
DA:112,0
DA:114,0
DA:115,0
DA:116,0
DA:117,0
DA:118,0
DA:119,0
DA:120,0
DA:123,0
DA:124,0
DA:148,2
DA:149,2
DA:150,2
DA:151,2
DA:152,2
DA:153,2
DA:154,2
DA:163,4
DA:164,4
DA:165,4
DA:166,4
DA:167,4
DA:168,4
DA:169,4
DA:175,0
DA:176,0
DA:177,0
DA:184,0
DA:185,0
DA:186,0
DA:187,0
DA:190,0
DA:191,0
DA:192,0
DA:195,0
DA:196,0
DA:197,0
DA:200,0
DA:201,0
DA:202,0
DA:205,0
DA:206,0
DA:207,0
DA:225,1
DA:226,1
DA:227,1
DA:228,1
DA:229,1
DA:230,1
DA:241,3
DA:242,3
DA:243,3
DA:244,3
DA:245,3
DA:246,3
DA:247,3
DA:248,0
DA:249,0
DA:251,3
DA:252,0
DA:253,0
DA:256,6
DA:258,3
DA:259,3
DA:268,5
DA:269,5
DA:270,0
DA:271,5
DA:272,5
DA:273,5
DA:274,0
DA:275,5
DA:276,5
DA:277,5
DA:278,5
DA:279,5
DA:281,13
DA:282,13
DA:283,9
DA:284,9
DA:285,4
DA:286,4
DA:291,5
DA:292,1
DA:293,4
DA:294,4
DA:295,4
DA:296,4
DA:297,0
DA:298,4
DA:300,4
DA:301,4
DA:302,4
DA:303,4
DA:304,4
DA:305,4
DA:306,0
DA:307,4
DA:308,4
DA:309,4
DA:310,4
DA:311,4
DA:312,4
DA:313,4
DA:314,4
DA:315,4
DA:316,4
DA:317,4
DA:318,4
DA:319,4
DA:320,4
DA:321,5
DA:324,0
DA:325,0
DA:326,0
DA:329,0
DA:330,0
DA:331,0
DA:332,0
DA:336,0
DA:337,0
DA:338,0
DA:358,1
DA:359,1
DA:360,1
DA:361,1
DA:362,1
DA:363,1
DA:364,1
DA:370,2
DA:371,2
DA:372,2
DA:373,2
DA:374,2
DA:377,1
DA:378,1
DA:379,1
DA:385,0
DA:386,0
DA:387,0
DA:390,0
DA:391,0
DA:392,0
DA:398,0
DA:399,0
DA:400,0
DA:403,0
DA:404,0
DA:405,0
DA:408,0
DA:409,0
DA:410,0
DA:413,1
DA:414,1
DA:415,1
DA:418,2
DA:419,2
DA:420,2
DA:423,0
DA:424,0
DA:425,0
DA:426,0
DA:435,0
DA:436,0
DA:437,0
DA:438,0
DA:439,0
DA:440,0
DA:441,0
DA:442,0
DA:446,0
DA:447,0
DA:448,0
DA:471,2
DA:472,2
DA:473,2
DA:474,2
DA:475,2
DA:476,2
DA:477,2
DA:483,1
DA:484,1
DA:485,1
DA:486,1
DA:487,1
DA:488,1
DA:489,1
DA:498,7
DA:499,7
DA:500,7
DA:501,7
DA:502,7
DA:503,2
DA:504,2
DA:505,5
DA:506,5
DA:507,5
DA:508,5
DA:509,5
DA:510,5
DA:512,2
DA:513,2
DA:516,3
DA:517,2
DA:519,1
DA:522,7
DA:531,4
DA:532,4
DA:533,0
DA:534,0
DA:535,4
DA:536,2
DA:538,2
DA:540,4
DA:543,0
DA:544,0
DA:545,0
DA:551,0
DA:552,0
DA:553,0
DA:554,0
DA:556,0
DA:557,0
DA:558,0
DA:559,0
DA:561,0
DA:563,0
DA:566,0
DA:567,0
DA:568,0
DA:571,0
DA:572,0
DA:573,0
DA:576,0
DA:577,0
DA:578,0
DA:581,0
DA:582,0
DA:583,0
DA:592,1
DA:593,1
DA:594,1
DA:595,1
DA:596,1
DA:597,1
DA:600,1
DA:601,1
DA:602,1
DA:603,1
DA:606,1
DA:607,1
DA:608,1
DA:609,1
DA:612,1
DA:613,1
DA:614,1
DA:615,1
DA:616,1
DA:617,1
DA:618,1
DA:621,1
DA:622,1
DA:623,1
DA:624,1
DA:625,1
DA:626,1
DA:629,1
DA:630,1
DA:631,1
DA:632,1
DA:633,1
DA:634,1
DA:635,1
DA:636,1
DA:637,1
DA:638,1
DA:639,1
DA:640,1
DA:641,1
DA:642,1
DA:643,1
DA:644,1
DA:645,1
DA:646,1
DA:647,1
DA:650,1
DA:651,1
DA:652,1
DA:653,1
DA:655,1
DA:656,1
DA:657,1
DA:658,1
DA:659,1
DA:661,1
DA:662,1
DA:663,1
DA:664,1
DA:667,1
DA:668,1
DA:669,1
DA:670,1
DA:671,1
DA:672,1
DA:675,1
DA:676,1
DA:679,1
DA:680,1
DA:683,1
DA:684,1
DA:685,1
DA:688,1
DA:689,1
DA:690,1
DA:691,1
DA:692,1
DA:693,1
DA:696,1
DA:697,1
DA:700,1
DA:701,1
DA:702,1
DA:705,1
DA:706,1
DA:707,1
DA:708,1
DA:709,1
DA:710,1
DA:711,1
DA:712,1
BRF:0
BRH:0
LF:381
LH:247
end_of_record
SF:/home/tasuku/com/github/signal-slot/embedded-charts/src/axes/builder.rs
FN:285,_RINvNtNtNtCs1I4G5KWFz5n_15embedded_charts4axes7builder7presets14minimal_y_axispEB8_
FN:293,_RINvNtNtNtCs1I4G5KWFz5n_15embedded_charts4axes7builder7presets19professional_x_axispEB8_
FN:309,_RINvNtNtNtCs1I4G5KWFz5n_15embedded_charts4axes7builder7presets9time_axispEB8_
FN:114,_RNvMNtNtCs1I4G5KWFz5n_15embedded_charts4axes7builderINtB2_17LinearAxisBuilderppE10show_ticksB6_
FN:120,_RNvMNtNtCs1I4G5KWFz5n_15embedded_charts4axes7builderINtB2_17LinearAxisBuilderppE11show_labelsB6_
FN:63,_RNvMNtNtCs1I4G5KWFz5n_15embedded_charts4axes7builderINtB2_17LinearAxisBuilderppE3maxB6_
FN:57,_RNvMNtNtCs1I4G5KWFz5n_15embedded_charts4axes7builderINtB2_17LinearAxisBuilderppE3minB6_
FN:90,_RNvMNtNtCs1I4G5KWFz5n_15embedded_charts4axes7builderINtB2_17LinearAxisBuilderppE5styleB6_
FN:108,_RNvMNtNtCs1I4G5KWFz5n_15embedded_charts4axes7builderINtB2_17LinearAxisBuilderppE9show_lineB6_
FN:220,_RNvMs_NtNtCs1I4G5KWFz5n_15embedded_charts4axes7builderINtB4_17CustomAxisBuilderppE10show_ticksB8_
FN:226,_RNvMs_NtNtCs1I4G5KWFz5n_15embedded_charts4axes7builderINtB4_17CustomAxisBuilderppE11show_labelsB8_
FN:208,_RNvMs_NtNtCs1I4G5KWFz5n_15embedded_charts4axes7builderINtB4_17CustomAxisBuilderppE5styleB8_
FN:232,_RNvMs_NtNtCs1I4G5KWFz5n_15embedded_charts4axes7builderINtB4_17CustomAxisBuilderppE9show_gridB8_
FN:214,_RNvMs_NtNtCs1I4G5KWFz5n_15embedded_charts4axes7builderINtB4_17CustomAxisBuilderppE9show_lineB8_
FN:314,_RNvNtNtNtCs1I4G5KWFz5n_15embedded_charts4axes7builder7presets15percentage_axis
FN:69,_RNvMNtNtCs1I4G5KWFz5n_15embedded_charts4axes7builderINtB2_17LinearAxisBuilderfNtNtNtCshH4H1wHMe2V_22embedded_graphics_core10pixelcolor9rgb_color6Rgb565E10tick_countB6_
FN:96,_RNvMNtNtCs1I4G5KWFz5n_15embedded_charts4axes7builderINtB2_17LinearAxisBuilderfNtNtNtCshH4H1wHMe2V_22embedded_graphics_core10pixelcolor9rgb_color6Rgb565E13minimal_styleB6_
FN:78,_RNvMNtNtCs1I4G5KWFz5n_15embedded_charts4axes7builderINtB2_17LinearAxisBuilderfNtNtNtCshH4H1wHMe2V_22embedded_graphics_core10pixelcolor9rgb_color6Rgb565E16with_minor_ticksB6_
FN:102,_RNvMNtNtCs1I4G5KWFz5n_15embedded_charts4axes7builderINtB2_17LinearAxisBuilderfNtNtNtCshH4H1wHMe2V_22embedded_graphics_core10pixelcolor9rgb_color6Rgb565E18professional_styleB6_
FN:84,_RNvMNtNtCs1I4G5KWFz5n_15embedded_charts4axes7builderINtB2_17LinearAxisBuilderfNtNtNtCshH4H1wHMe2V_22embedded_graphics_core10pixelcolor9rgb_color6Rgb565E19without_minor_ticksB6_
FN:34,_RNvMNtNtCs1I4G5KWFz5n_15embedded_charts4axes7builderINtB2_17LinearAxisBuilderfNtNtNtCshH4H1wHMe2V_22embedded_graphics_core10pixelcolor9rgb_color6Rgb565E3newB6_
FN:132,_RNvMNtNtCs1I4G5KWFz5n_15embedded_charts4axes7builderINtB2_17LinearAxisBuilderfNtNtNtCshH4H1wHMe2V_22embedded_graphics_core10pixelcolor9rgb_color6Rgb565E5buildB6_
FN:50,_RNvMNtNtCs1I4G5KWFz5n_15embedded_charts4axes7builderINtB2_17LinearAxisBuilderfNtNtNtCshH4H1wHMe2V_22embedded_graphics_core10pixelcolor9rgb_color6Rgb565E5rangeB6_
FN:126,_RNvMNtNtCs1I4G5KWFz5n_15embedded_charts4axes7builderINtB2_17LinearAxisBuilderfNtNtNtCshH4H1wHMe2V_22embedded_graphics_core10pixelcolor9rgb_color6Rgb565E9show_gridB6_
FN:196,_RNvMs_NtNtCs1I4G5KWFz5n_15embedded_charts4axes7builderINtB4_17CustomAxisBuilderfNtNtNtCshH4H1wHMe2V_22embedded_graphics_core10pixelcolor9rgb_color6Rgb565E14add_major_tickB8_
FN:202,_RNvMs_NtNtCs1I4G5KWFz5n_15embedded_charts4axes7builderINtB4_17CustomAxisBuilderfNtNtNtCshH4H1wHMe2V_22embedded_graphics_core10pixelcolor9rgb_color6Rgb565E14add_minor_tickB8_
FN:173,_RNvMs_NtNtCs1I4G5KWFz5n_15embedded_charts4axes7builderINtB4_17CustomAxisBuilderfNtNtNtCshH4H1wHMe2V_22embedded_graphics_core10pixelcolor9rgb_color6Rgb565E3newB8_
FN:238,_RNvMs_NtNtCs1I4G5KWFz5n_15embedded_charts4axes7builderINtB4_17CustomAxisBuilderfNtNtNtCshH4H1wHMe2V_22embedded_graphics_core10pixelcolor9rgb_color6Rgb565E5buildB8_
FN:189,_RNvMs_NtNtCs1I4G5KWFz5n_15embedded_charts4axes7builderINtB4_17CustomAxisBuilderfNtNtNtCshH4H1wHMe2V_22embedded_graphics_core10pixelcolor9rgb_color6Rgb565E5rangeB8_
FN:381,_RNvNtNtNtCs1I4G5KWFz5n_15embedded_charts4axes7builder5testss_16test_preset_axes
FN:392,_RNvNtNtNtCs1I4G5KWFz5n_15embedded_charts4axes7builder5testss_19test_minimal_preset
FN:343,_RNvNtNtNtCs1I4G5KWFz5n_15embedded_charts4axes7builder5testss_23test_builder_validation
FN:364,_RNvNtNtNtCs1I4G5KWFz5n_15embedded_charts4axes7builder5testss_24test_custom_axis_builder
FN:326,_RNvNtNtNtCs1I4G5KWFz5n_15embedded_charts4axes7builder5testss_24test_linear_axis_builder
FN:400,_RNvNtNtNtCs1I4G5KWFz5n_15embedded_charts4axes7builder5testss_24test_professional_preset
FN:272,_RINvNtNtNtCs1I4G5KWFz5n_15embedded_charts4axes7builder7presets11y_axis_leftfEB8_
FN:267,_RINvNtNtNtCs1I4G5KWFz5n_15embedded_charts4axes7builder7presets13x_axis_bottomfEB8_
FN:277,_RINvNtNtNtCs1I4G5KWFz5n_15embedded_charts4axes7builder7presets14minimal_x_axisfEB8_
FN:301,_RINvNtNtNtCs1I4G5KWFz5n_15embedded_charts4axes7builder7presets19professional_y_axisfEB8_
FNDA:0,_RINvNtNtNtCs1I4G5KWFz5n_15embedded_charts4axes7builder7presets14minimal_y_axispEB8_
FNDA:0,_RINvNtNtNtCs1I4G5KWFz5n_15embedded_charts4axes7builder7presets19professional_x_axispEB8_
FNDA:0,_RINvNtNtNtCs1I4G5KWFz5n_15embedded_charts4axes7builder7presets9time_axispEB8_
FNDA:0,_RNvMNtNtCs1I4G5KWFz5n_15embedded_charts4axes7builderINtB2_17LinearAxisBuilderppE10show_ticksB6_
FNDA:0,_RNvMNtNtCs1I4G5KWFz5n_15embedded_charts4axes7builderINtB2_17LinearAxisBuilderppE11show_labelsB6_
FNDA:0,_RNvMNtNtCs1I4G5KWFz5n_15embedded_charts4axes7builderINtB2_17LinearAxisBuilderppE3maxB6_
FNDA:0,_RNvMNtNtCs1I4G5KWFz5n_15embedded_charts4axes7builderINtB2_17LinearAxisBuilderppE3minB6_
FNDA:0,_RNvMNtNtCs1I4G5KWFz5n_15embedded_charts4axes7builderINtB2_17LinearAxisBuilderppE5styleB6_
FNDA:0,_RNvMNtNtCs1I4G5KWFz5n_15embedded_charts4axes7builderINtB2_17LinearAxisBuilderppE9show_lineB6_
FNDA:0,_RNvMs_NtNtCs1I4G5KWFz5n_15embedded_charts4axes7builderINtB4_17CustomAxisBuilderppE10show_ticksB8_
FNDA:0,_RNvMs_NtNtCs1I4G5KWFz5n_15embedded_charts4axes7builderINtB4_17CustomAxisBuilderppE11show_labelsB8_
FNDA:0,_RNvMs_NtNtCs1I4G5KWFz5n_15embedded_charts4axes7builderINtB4_17CustomAxisBuilderppE5styleB8_
FNDA:0,_RNvMs_NtNtCs1I4G5KWFz5n_15embedded_charts4axes7builderINtB4_17CustomAxisBuilderppE9show_gridB8_
FNDA:0,_RNvMs_NtNtCs1I4G5KWFz5n_15embedded_charts4axes7builderINtB4_17CustomAxisBuilderppE9show_lineB8_
FNDA:0,_RNvNtNtNtCs1I4G5KWFz5n_15embedded_charts4axes7builder7presets15percentage_axis
FNDA:3,_RNvMNtNtCs1I4G5KWFz5n_15embedded_charts4axes7builderINtB2_17LinearAxisBuilderfNtNtNtCshH4H1wHMe2V_22embedded_graphics_core10pixelcolor9rgb_color6Rgb565E10tick_countB6_
FNDA:1,_RNvMNtNtCs1I4G5KWFz5n_15embedded_charts4axes7builderINtB2_17LinearAxisBuilderfNtNtNtCshH4H1wHMe2V_22embedded_graphics_core10pixelcolor9rgb_color6Rgb565E13minimal_styleB6_
FNDA:1,_RNvMNtNtCs1I4G5KWFz5n_15embedded_charts4axes7builderINtB2_17LinearAxisBuilderfNtNtNtCshH4H1wHMe2V_22embedded_graphics_core10pixelcolor9rgb_color6Rgb565E16with_minor_ticksB6_
FNDA:1,_RNvMNtNtCs1I4G5KWFz5n_15embedded_charts4axes7builderINtB2_17LinearAxisBuilderfNtNtNtCshH4H1wHMe2V_22embedded_graphics_core10pixelcolor9rgb_color6Rgb565E18professional_styleB6_
FNDA:1,_RNvMNtNtCs1I4G5KWFz5n_15embedded_charts4axes7builderINtB2_17LinearAxisBuilderfNtNtNtCshH4H1wHMe2V_22embedded_graphics_core10pixelcolor9rgb_color6Rgb565E19without_minor_ticksB6_
FNDA:7,_RNvMNtNtCs1I4G5KWFz5n_15embedded_charts4axes7builderINtB2_17LinearAxisBuilderfNtNtNtCshH4H1wHMe2V_22embedded_graphics_core10pixelcolor9rgb_color6Rgb565E3newB6_
FNDA:7,_RNvMNtNtCs1I4G5KWFz5n_15embedded_charts4axes7builderINtB2_17LinearAxisBuilderfNtNtNtCshH4H1wHMe2V_22embedded_graphics_core10pixelcolor9rgb_color6Rgb565E5buildB6_
FNDA:6,_RNvMNtNtCs1I4G5KWFz5n_15embedded_charts4axes7builderINtB2_17LinearAxisBuilderfNtNtNtCshH4H1wHMe2V_22embedded_graphics_core10pixelcolor9rgb_color6Rgb565E5rangeB6_
FNDA:2,_RNvMNtNtCs1I4G5KWFz5n_15embedded_charts4axes7builderINtB2_17LinearAxisBuilderfNtNtNtCshH4H1wHMe2V_22embedded_graphics_core10pixelcolor9rgb_color6Rgb565E9show_gridB6_
FNDA:3,_RNvMs_NtNtCs1I4G5KWFz5n_15embedded_charts4axes7builderINtB4_17CustomAxisBuilderfNtNtNtCshH4H1wHMe2V_22embedded_graphics_core10pixelcolor9rgb_color6Rgb565E14add_major_tickB8_
FNDA:2,_RNvMs_NtNtCs1I4G5KWFz5n_15embedded_charts4axes7builderINtB4_17CustomAxisBuilderfNtNtNtCshH4H1wHMe2V_22embedded_graphics_core10pixelcolor9rgb_color6Rgb565E14add_minor_tickB8_
FNDA:1,_RNvMs_NtNtCs1I4G5KWFz5n_15embedded_charts4axes7builderINtB4_17CustomAxisBuilderfNtNtNtCshH4H1wHMe2V_22embedded_graphics_core10pixelcolor9rgb_color6Rgb565E3newB8_
FNDA:1,_RNvMs_NtNtCs1I4G5KWFz5n_15embedded_charts4axes7builderINtB4_17CustomAxisBuilderfNtNtNtCshH4H1wHMe2V_22embedded_graphics_core10pixelcolor9rgb_color6Rgb565E5buildB8_
FNDA:1,_RNvMs_NtNtCs1I4G5KWFz5n_15embedded_charts4axes7builderINtB4_17CustomAxisBuilderfNtNtNtCshH4H1wHMe2V_22embedded_graphics_core10pixelcolor9rgb_color6Rgb565E5rangeB8_
FNDA:1,_RNvNtNtNtCs1I4G5KWFz5n_15embedded_charts4axes7builder5testss_16test_preset_axes
FNDA:1,_RNvNtNtNtCs1I4G5KWFz5n_15embedded_charts4axes7builder5testss_19test_minimal_preset
FNDA:1,_RNvNtNtNtCs1I4G5KWFz5n_15embedded_charts4axes7builder5testss_23test_builder_validation
FNDA:1,_RNvNtNtNtCs1I4G5KWFz5n_15embedded_charts4axes7builder5testss_24test_custom_axis_builder
FNDA:1,_RNvNtNtNtCs1I4G5KWFz5n_15embedded_charts4axes7builder5testss_24test_linear_axis_builder
FNDA:1,_RNvNtNtNtCs1I4G5KWFz5n_15embedded_charts4axes7builder5testss_24test_professional_preset
FNDA:2,_RINvNtNtNtCs1I4G5KWFz5n_15embedded_charts4axes7builder7presets11y_axis_leftfEB8_
FNDA:2,_RINvNtNtNtCs1I4G5KWFz5n_15embedded_charts4axes7builder7presets13x_axis_bottomfEB8_
FNDA:1,_RINvNtNtNtCs1I4G5KWFz5n_15embedded_charts4axes7builder7presets14minimal_x_axisfEB8_
FNDA:1,_RINvNtNtNtCs1I4G5KWFz5n_15embedded_charts4axes7builder7presets19professional_y_axisfEB8_
FNF:39
FNH:24
DA:34,7
DA:35,7
DA:36,7
DA:37,7
DA:38,7
DA:39,7
DA:40,7
DA:41,7
DA:42,7
DA:43,7
DA:44,7
DA:45,7
DA:46,7
DA:47,7
DA:50,6
DA:51,6
DA:52,6
DA:53,6
DA:54,6
DA:57,0
DA:58,0
DA:59,0
DA:60,0
DA:63,0
DA:64,0
DA:65,0
DA:66,0
DA:69,3
DA:70,3
DA:71,3
DA:72,3
DA:73,3
DA:74,3
DA:75,3
DA:78,1
DA:79,1
DA:80,1
DA:81,1
DA:84,1
DA:85,1
DA:86,1
DA:87,1
DA:90,0
DA:91,0
DA:92,0
DA:93,0
DA:96,1
DA:97,1
DA:98,1
DA:99,1
DA:102,1
DA:103,1
DA:104,1
DA:105,1
DA:108,0
DA:109,0
DA:110,0
DA:111,0
DA:114,0
DA:115,0
DA:116,0
DA:117,0
DA:120,0
DA:121,0
DA:122,0
DA:123,0
DA:126,2
DA:127,2
DA:128,2
DA:129,2
DA:132,7
DA:133,7
DA:134,6
DA:136,6
DA:137,1
DA:138,5
DA:139,5
DA:140,5
DA:141,5
DA:142,5
DA:143,5
DA:144,5
DA:145,5
DA:146,5
DA:147,5
DA:148,5
DA:149,7
DA:173,1
DA:174,1
DA:175,1
DA:176,1
DA:177,1
DA:178,1
DA:179,1
DA:180,1
DA:181,1
DA:182,1
DA:183,1
DA:184,1
DA:185,1
DA:186,1
DA:189,1
DA:190,1
DA:191,1
DA:192,1
DA:193,1
DA:196,3
DA:197,3
DA:198,3
DA:199,3
DA:202,2
DA:203,2
DA:204,2
DA:205,2
DA:208,0
DA:209,0
DA:210,0
DA:211,0
DA:214,0
DA:215,0
DA:216,0
DA:217,0
DA:220,0
DA:221,0
DA:222,0
DA:223,0
DA:226,0
DA:227,0
DA:228,0
DA:229,0
DA:232,0
DA:233,0
DA:234,0
DA:235,0
DA:238,1
DA:239,1
DA:240,1
DA:242,1
DA:243,0
DA:244,1
DA:245,1
DA:246,1
DA:247,1
DA:248,1
DA:249,1
DA:250,1
DA:251,1
DA:252,1
DA:253,1
DA:254,1
DA:255,1
DA:256,1
DA:257,1
DA:258,1
DA:267,2
DA:268,2
DA:269,2
DA:272,2
DA:273,2
DA:274,2
DA:277,1
DA:278,1
DA:279,1
DA:280,1
DA:281,1
DA:282,1
DA:285,0
DA:286,0
DA:287,0
DA:288,0
DA:289,0
DA:290,0
DA:293,0
DA:294,0
DA:295,0
DA:296,0
DA:297,0
DA:298,0
DA:301,1
DA:302,1
DA:303,1
DA:304,1
DA:305,1
DA:306,1
DA:309,0
DA:310,0
DA:311,0
DA:314,0
DA:315,0
DA:316,0
DA:326,1
DA:327,1
DA:328,1
DA:329,1
DA:330,1
DA:331,1
DA:332,1
DA:333,1
DA:334,1
DA:335,1
DA:336,1
DA:337,1
DA:338,1
DA:339,1
DA:340,1
DA:343,1
DA:344,1
DA:345,1
DA:346,1
DA:347,1
DA:348,1
DA:349,1
DA:350,1
DA:351,1
DA:354,1
DA:355,1
DA:356,1
DA:357,1
DA:358,1
DA:359,1
DA:360,1
DA:361,1
DA:364,1
DA:365,1
DA:366,1
DA:367,1
DA:368,1
DA:369,1
DA:370,1
DA:371,1
DA:372,1
DA:373,1
DA:374,1
DA:375,1
DA:376,1
DA:377,1
DA:378,1
DA:381,1
DA:382,1
DA:383,1
DA:384,1
DA:386,1
DA:387,1
DA:388,1
DA:389,1
DA:392,1
DA:393,1
DA:394,1
DA:395,1
DA:396,1
DA:397,1
DA:400,1
DA:401,1
DA:402,1
DA:403,1
DA:404,1
DA:405,1
DA:406,1
BRF:0
BRH:0
LF:258
LH:195
end_of_record
SF:/home/tasuku/com/github/signal-slot/embedded-charts/src/axes/linear.rs
FN:397,_RINvXININtNtCs1I4G5KWFz5n_15embedded_charts4axes6linears1_0ppEINtB6_10LinearAxisppEINtNtB8_6traits4AxisppE4drawpEBa_
FN:79,_RNvMs0_NtNtCs1I4G5KWFz5n_15embedded_charts4axes6linearINtB5_10LinearAxisppE10with_rangeB9_
FN:455,_RNvXININtNtCs1I4G5KWFz5n_15embedded_charts4axes6linears1_0ppEINtB5_10LinearAxisppEINtNtB7_6traits4AxisppE14required_spaceB9_
FN:389,_RNvXININtNtCs1I4G5KWFz5n_15embedded_charts4axes6linears1_0ppEINtB5_10LinearAxisppEINtNtB7_6traits4AxisppE14tick_generatorB9_
FN:393,_RNvXININtNtCs1I4G5KWFz5n_15embedded_charts4axes6linears1_0ppEINtB5_10LinearAxisppEINtNtB7_6traits4AxisppE5styleB9_
FN:46,_RNvXININtNtCs1I4G5KWFz5n_15embedded_charts4axes6linears_0pEINtB5_19DefaultAxisRendererpENtNtCs3XRySYX51hI_4core7default7Default7defaultB9_
FN:652,_RNvNtNtNtCs1I4G5KWFz5n_15embedded_charts4axes6linear5testss_25test_axis_builder_pattern
FN:624,_RNvNtNtNtCs1I4G5KWFz5n_15embedded_charts4axes6linear5testss_25test_linear_axis_creation
FN:635,_RNvNtNtNtCs1I4G5KWFz5n_15embedded_charts4axes6linear5testss_25test_value_transformation
FN:262,_RINvMs0_NtNtCs1I4G5KWFz5n_15embedded_charts4axes6linearINtB6_10LinearAxisfNtNtNtCshH4H1wHMe2V_22embedded_graphics_core10pixelcolor9rgb_color6Rgb565E14draw_axis_onlyINtNtCs5C7UwTAEl8q_17embedded_graphics12mock_display11MockDisplayB1a_EEBa_
FN:232,_RINvMs0_NtNtCs1I4G5KWFz5n_15embedded_charts4axes6linearINtB6_10LinearAxisfNtNtNtCshH4H1wHMe2V_22embedded_graphics_core10pixelcolor9rgb_color6Rgb565E15draw_grid_linesINtNtCs5C7UwTAEl8q_17embedded_graphics12mock_display11MockDisplayB1a_EEBa_
FN:594,_RINvXs3_NtNtCs1I4G5KWFz5n_15embedded_charts4axes6linearINtB6_19DefaultAxisRendererNtNtNtCshH4H1wHMe2V_22embedded_graphics_core10pixelcolor9rgb_color6Rgb565EINtNtB8_6traits12AxisRendererB1i_E10draw_labelINtNtCs5C7UwTAEl8q_17embedded_graphics12mock_display11MockDisplayB1i_EEBa_
FN:525,_RINvXs3_NtNtCs1I4G5KWFz5n_15embedded_charts4axes6linearINtB6_19DefaultAxisRendererNtNtNtCshH4H1wHMe2V_22embedded_graphics_core10pixelcolor9rgb_color6Rgb565EINtNtB8_6traits12AxisRendererB1i_E14draw_axis_lineINtNtCs5C7UwTAEl8q_17embedded_graphics12mock_display11MockDisplayB1i_EEBa_
FN:577,_RINvXs3_NtNtCs1I4G5KWFz5n_15embedded_charts4axes6linearINtB6_19DefaultAxisRendererNtNtNtCshH4H1wHMe2V_22embedded_graphics_core10pixelcolor9rgb_color6Rgb565EINtNtB8_6traits12AxisRendererB1i_E14draw_grid_lineINtNtCs5C7UwTAEl8q_17embedded_graphics12mock_display11MockDisplayB1i_EEBa_
FN:542,_RINvXs3_NtNtCs1I4G5KWFz5n_15embedded_charts4axes6linearINtB6_19DefaultAxisRendererNtNtNtCshH4H1wHMe2V_22embedded_graphics_core10pixelcolor9rgb_color6Rgb565EINtNtB8_6traits12AxisRendererB1i_E9draw_tickINtNtCs5C7UwTAEl8q_17embedded_graphics12mock_display11MockDisplayB1i_EEBa_
FN:612,_RNCINvXs3_NtNtCs1I4G5KWFz5n_15embedded_charts4axes6linearINtB8_19DefaultAxisRendererNtNtNtCshH4H1wHMe2V_22embedded_graphics_core10pixelcolor9rgb_color6Rgb565EINtNtBa_6traits12AxisRendererB1k_E10draw_labelINtNtCs5C7UwTAEl8q_17embedded_graphics12mock_display11MockDisplayB1k_EE0Bc_
FN:538,_RNCINvXs3_NtNtCs1I4G5KWFz5n_15embedded_charts4axes6linearINtB8_19DefaultAxisRendererNtNtNtCshH4H1wHMe2V_22embedded_graphics_core10pixelcolor9rgb_color6Rgb565EINtNtBa_6traits12AxisRendererB1k_E14draw_axis_lineINtNtCs5C7UwTAEl8q_17embedded_graphics12mock_display11MockDisplayB1k_EE0Bc_
FN:590,_RNCINvXs3_NtNtCs1I4G5KWFz5n_15embedded_charts4axes6linearINtB8_19DefaultAxisRendererNtNtNtCshH4H1wHMe2V_22embedded_graphics_core10pixelcolor9rgb_color6Rgb565EINtNtBa_6traits12AxisRendererB1k_E14draw_grid_lineINtNtCs5C7UwTAEl8q_17embedded_graphics12mock_display11MockDisplayB1k_EE0Bc_
FN:573,_RNCINvXs3_NtNtCs1I4G5KWFz5n_15embedded_charts4axes6linearINtB8_19DefaultAxisRendererNtNtNtCshH4H1wHMe2V_22embedded_graphics_core10pixelcolor9rgb_color6Rgb565EINtNtBa_6traits12AxisRendererB1k_E9draw_tickINtNtCs5C7UwTAEl8q_17embedded_graphics12mock_display11MockDisplayB1k_EE0Bc_
FN:38,_RNvMNtNtCs1I4G5KWFz5n_15embedded_charts4axes6linearINtB2_19DefaultAxisRendererNtNtNtCshH4H1wHMe2V_22embedded_graphics_core10pixelcolor9rgb_color6Rgb565E3newB6_
FN:92,_RNvMs0_NtNtCs1I4G5KWFz5n_15embedded_charts4axes6linearINtB5_10LinearAxisfNtNtNtCshH4H1wHMe2V_22embedded_graphics_core10pixelcolor9rgb_color6Rgb565E10show_ticksB9_
FN:73,_RNvMs0_NtNtCs1I4G5KWFz5n_15embedded_charts4axes6linearINtB5_10LinearAxisfNtNtNtCshH4H1wHMe2V_22embedded_graphics_core10pixelcolor9rgb_color6Rgb565E10with_styleB9_
FN:98,_RNvMs0_NtNtCs1I4G5KWFz5n_15embedded_charts4axes6linearINtB5_10LinearAxisfNtNtNtCshH4H1wHMe2V_22embedded_graphics_core10pixelcolor9rgb_color6Rgb565E11show_labelsB9_
FN:110,_RNvMs0_NtNtCs1I4G5KWFz5n_15embedded_charts4axes6linearINtB5_10LinearAxisfNtNtNtCshH4H1wHMe2V_22embedded_graphics_core10pixelcolor9rgb_color6Rgb565E19calculate_axis_lineB9_
FN:199,_RNvMs0_NtNtCs1I4G5KWFz5n_15embedded_charts4axes6linearINtB5_10LinearAxisfNtNtNtCshH4H1wHMe2V_22embedded_graphics_core10pixelcolor9rgb_color6Rgb565E19calculate_grid_lineB9_
FN:67,_RNvMs0_NtNtCs1I4G5KWFz5n_15embedded_charts4axes6linearINtB5_10LinearAxisfNtNtNtCshH4H1wHMe2V_22embedded_graphics_core10pixelcolor9rgb_color6Rgb565E19with_tick_generatorB9_
FN:163,_RNvMs0_NtNtCs1I4G5KWFz5n_15embedded_charts4axes6linearINtB5_10LinearAxisfNtNtNtCshH4H1wHMe2V_22embedded_graphics_core10pixelcolor9rgb_color6Rgb565E23calculate_tick_positionB9_
FN:57,_RNvMs0_NtNtCs1I4G5KWFz5n_15embedded_charts4axes6linearINtB5_10LinearAxisfNtNtNtCshH4H1wHMe2V_22embedded_graphics_core10pixelcolor9rgb_color6Rgb565E3newB9_
FN:104,_RNvMs0_NtNtCs1I4G5KWFz5n_15embedded_charts4axes6linearINtB5_10LinearAxisfNtNtNtCshH4H1wHMe2V_22embedded_graphics_core10pixelcolor9rgb_color6Rgb565E9show_gridB9_
FN:86,_RNvMs0_NtNtCs1I4G5KWFz5n_15embedded_charts4axes6linearINtB5_10LinearAxisfNtNtNtCshH4H1wHMe2V_22embedded_graphics_core10pixelcolor9rgb_color6Rgb565E9show_lineB9_
FN:493,_RNvMs2_NtNtCs1I4G5KWFz5n_15embedded_charts4axes6linearINtB5_10LinearAxisfNtNtNtCshH4H1wHMe2V_22embedded_graphics_core10pixelcolor9rgb_color6Rgb565E24calculate_label_positionB9_
FN:335,_RNvXs1_NtNtCs1I4G5KWFz5n_15embedded_charts4axes6linearINtB5_10LinearAxisfNtNtNtCshH4H1wHMe2V_22embedded_graphics_core10pixelcolor9rgb_color6Rgb565EINtNtB7_6traits4AxisfB19_E11orientationB9_
FN:343,_RNvXs1_NtNtCs1I4G5KWFz5n_15embedded_charts4axes6linearINtB5_10LinearAxisfNtNtNtCshH4H1wHMe2V_22embedded_graphics_core10pixelcolor9rgb_color6Rgb565EINtNtB7_6traits4AxisfB19_E15transform_valueB9_
FN:370,_RNvXs1_NtNtCs1I4G5KWFz5n_15embedded_charts4axes6linearINtB5_10LinearAxisfNtNtNtCshH4H1wHMe2V_22embedded_graphics_core10pixelcolor9rgb_color6Rgb565EINtNtB7_6traits4AxisfB19_E17inverse_transformB9_
FN:331,_RNvXs1_NtNtCs1I4G5KWFz5n_15embedded_charts4axes6linearINtB5_10LinearAxisfNtNtNtCshH4H1wHMe2V_22embedded_graphics_core10pixelcolor9rgb_color6Rgb565EINtNtB7_6traits4AxisfB19_E3maxB9_
FN:327,_RNvXs1_NtNtCs1I4G5KWFz5n_15embedded_charts4axes6linearINtB5_10LinearAxisfNtNtNtCshH4H1wHMe2V_22embedded_graphics_core10pixelcolor9rgb_color6Rgb565EINtNtB7_6traits4AxisfB19_E3minB9_
FN:339,_RNvXs1_NtNtCs1I4G5KWFz5n_15embedded_charts4axes6linearINtB5_10LinearAxisfNtNtNtCshH4H1wHMe2V_22embedded_graphics_core10pixelcolor9rgb_color6Rgb565EINtNtB7_6traits4AxisfB19_E8positionB9_
FNDA:0,_RINvXININtNtCs1I4G5KWFz5n_15embedded_charts4axes6linears1_0ppEINtB6_10LinearAxisppEINtNtB8_6traits4AxisppE4drawpEBa_
FNDA:0,_RNvMs0_NtNtCs1I4G5KWFz5n_15embedded_charts4axes6linearINtB5_10LinearAxisppE10with_rangeB9_
FNDA:0,_RNvXININtNtCs1I4G5KWFz5n_15embedded_charts4axes6linears1_0ppEINtB5_10LinearAxisppEINtNtB7_6traits4AxisppE14required_spaceB9_
FNDA:0,_RNvXININtNtCs1I4G5KWFz5n_15embedded_charts4axes6linears1_0ppEINtB5_10LinearAxisppEINtNtB7_6traits4AxisppE14tick_generatorB9_
FNDA:0,_RNvXININtNtCs1I4G5KWFz5n_15embedded_charts4axes6linears1_0ppEINtB5_10LinearAxisppEINtNtB7_6traits4AxisppE5styleB9_
FNDA:0,_RNvXININtNtCs1I4G5KWFz5n_15embedded_charts4axes6linears_0pEINtB5_19DefaultAxisRendererpENtNtCs3XRySYX51hI_4core7default7Default7defaultB9_
FNDA:1,_RNvNtNtNtCs1I4G5KWFz5n_15embedded_charts4axes6linear5testss_25test_axis_builder_pattern
FNDA:1,_RNvNtNtNtCs1I4G5KWFz5n_15embedded_charts4axes6linear5testss_25test_linear_axis_creation
FNDA:1,_RNvNtNtNtCs1I4G5KWFz5n_15embedded_charts4axes6linear5testss_25test_value_transformation
FNDA:2,_RINvMs0_NtNtCs1I4G5KWFz5n_15embedded_charts4axes6linearINtB6_10LinearAxisfNtNtNtCshH4H1wHMe2V_22embedded_graphics_core10pixelcolor9rgb_color6Rgb565E14draw_axis_onlyINtNtCs5C7UwTAEl8q_17embedded_graphics12mock_display11MockDisplayB1a_EEBa_
FNDA:2,_RINvMs0_NtNtCs1I4G5KWFz5n_15embedded_charts4axes6linearINtB6_10LinearAxisfNtNtNtCshH4H1wHMe2V_22embedded_graphics_core10pixelcolor9rgb_color6Rgb565E15draw_grid_linesINtNtCs5C7UwTAEl8q_17embedded_graphics12mock_display11MockDisplayB1a_EEBa_
FNDA:5,_RINvXs3_NtNtCs1I4G5KWFz5n_15embedded_charts4axes6linearINtB6_19DefaultAxisRendererNtNtNtCshH4H1wHMe2V_22embedded_graphics_core10pixelcolor9rgb_color6Rgb565EINtNtB8_6traits12AxisRendererB1i_E10draw_labelINtNtCs5C7UwTAEl8q_17embedded_graphics12mock_display11MockDisplayB1i_EEBa_
FNDA:2,_RINvXs3_NtNtCs1I4G5KWFz5n_15embedded_charts4axes6linearINtB6_19DefaultAxisRendererNtNtNtCshH4H1wHMe2V_22embedded_graphics_core10pixelcolor9rgb_color6Rgb565EINtNtB8_6traits12AxisRendererB1i_E14draw_axis_lineINtNtCs5C7UwTAEl8q_17embedded_graphics12mock_display11MockDisplayB1i_EEBa_
FNDA:0,_RINvXs3_NtNtCs1I4G5KWFz5n_15embedded_charts4axes6linearINtB6_19DefaultAxisRendererNtNtNtCshH4H1wHMe2V_22embedded_graphics_core10pixelcolor9rgb_color6Rgb565EINtNtB8_6traits12AxisRendererB1i_E14draw_grid_lineINtNtCs5C7UwTAEl8q_17embedded_graphics12mock_display11MockDisplayB1i_EEBa_
FNDA:5,_RINvXs3_NtNtCs1I4G5KWFz5n_15embedded_charts4axes6linearINtB6_19DefaultAxisRendererNtNtNtCshH4H1wHMe2V_22embedded_graphics_core10pixelcolor9rgb_color6Rgb565EINtNtB8_6traits12AxisRendererB1i_E9draw_tickINtNtCs5C7UwTAEl8q_17embedded_graphics12mock_display11MockDisplayB1i_EEBa_
FNDA:0,_RNCINvXs3_NtNtCs1I4G5KWFz5n_15embedded_charts4axes6linearINtB8_19DefaultAxisRendererNtNtNtCshH4H1wHMe2V_22embedded_graphics_core10pixelcolor9rgb_color6Rgb565EINtNtBa_6traits12AxisRendererB1k_E10draw_labelINtNtCs5C7UwTAEl8q_17embedded_graphics12mock_display11MockDisplayB1k_EE0Bc_
FNDA:0,_RNCINvXs3_NtNtCs1I4G5KWFz5n_15embedded_charts4axes6linearINtB8_19DefaultAxisRendererNtNtNtCshH4H1wHMe2V_22embedded_graphics_core10pixelcolor9rgb_color6Rgb565EINtNtBa_6traits12AxisRendererB1k_E14draw_axis_lineINtNtCs5C7UwTAEl8q_17embedded_graphics12mock_display11MockDisplayB1k_EE0Bc_
FNDA:0,_RNCINvXs3_NtNtCs1I4G5KWFz5n_15embedded_charts4axes6linearINtB8_19DefaultAxisRendererNtNtNtCshH4H1wHMe2V_22embedded_graphics_core10pixelcolor9rgb_color6Rgb565EINtNtBa_6traits12AxisRendererB1k_E14draw_grid_lineINtNtCs5C7UwTAEl8q_17embedded_graphics12mock_display11MockDisplayB1k_EE0Bc_
FNDA:0,_RNCINvXs3_NtNtCs1I4G5KWFz5n_15embedded_charts4axes6linearINtB8_19DefaultAxisRendererNtNtNtCshH4H1wHMe2V_22embedded_graphics_core10pixelcolor9rgb_color6Rgb565EINtNtBa_6traits12AxisRendererB1k_E9draw_tickINtNtCs5C7UwTAEl8q_17embedded_graphics12mock_display11MockDisplayB1k_EE0Bc_
FNDA:19,_RNvMNtNtCs1I4G5KWFz5n_15embedded_charts4axes6linearINtB2_19DefaultAxisRendererNtNtNtCshH4H1wHMe2V_22embedded_graphics_core10pixelcolor9rgb_color6Rgb565E3newB6_
FNDA:6,_RNvMs0_NtNtCs1I4G5KWFz5n_15embedded_charts4axes6linearINtB5_10LinearAxisfNtNtNtCshH4H1wHMe2V_22embedded_graphics_core10pixelcolor9rgb_color6Rgb565E10show_ticksB9_
FNDA:6,_RNvMs0_NtNtCs1I4G5KWFz5n_15embedded_charts4axes6linearINtB5_10LinearAxisfNtNtNtCshH4H1wHMe2V_22embedded_graphics_core10pixelcolor9rgb_color6Rgb565E10with_styleB9_
FNDA:7,_RNvMs0_NtNtCs1I4G5KWFz5n_15embedded_charts4axes6linearINtB5_10LinearAxisfNtNtNtCshH4H1wHMe2V_22embedded_graphics_core10pixelcolor9rgb_color6Rgb565E11show_labelsB9_
FNDA:2,_RNvMs0_NtNtCs1I4G5KWFz5n_15embedded_charts4axes6linearINtB5_10LinearAxisfNtNtNtCshH4H1wHMe2V_22embedded_graphics_core10pixelcolor9rgb_color6Rgb565E19calculate_axis_lineB9_
FNDA:0,_RNvMs0_NtNtCs1I4G5KWFz5n_15embedded_charts4axes6linearINtB5_10LinearAxisfNtNtNtCshH4H1wHMe2V_22embedded_graphics_core10pixelcolor9rgb_color6Rgb565E19calculate_grid_lineB9_
FNDA:6,_RNvMs0_NtNtCs1I4G5KWFz5n_15embedded_charts4axes6linearINtB5_10LinearAxisfNtNtNtCshH4H1wHMe2V_22embedded_graphics_core10pixelcolor9rgb_color6Rgb565E19with_tick_generatorB9_
FNDA:10,_RNvMs0_NtNtCs1I4G5KWFz5n_15embedded_charts4axes6linearINtB5_10LinearAxisfNtNtNtCshH4H1wHMe2V_22embedded_graphics_core10pixelcolor9rgb_color6Rgb565E23calculate_tick_positionB9_
FNDA:19,_RNvMs0_NtNtCs1I4G5KWFz5n_15embedded_charts4axes6linearINtB5_10LinearAxisfNtNtNtCshH4H1wHMe2V_22embedded_graphics_core10pixelcolor9rgb_color6Rgb565E3newB9_
FNDA:7,_RNvMs0_NtNtCs1I4G5KWFz5n_15embedded_charts4axes6linearINtB5_10LinearAxisfNtNtNtCshH4H1wHMe2V_22embedded_graphics_core10pixelcolor9rgb_color6Rgb565E9show_gridB9_
FNDA:6,_RNvMs0_NtNtCs1I4G5KWFz5n_15embedded_charts4axes6linearINtB5_10LinearAxisfNtNtNtCshH4H1wHMe2V_22embedded_graphics_core10pixelcolor9rgb_color6Rgb565E9show_lineB9_
FNDA:5,_RNvMs2_NtNtCs1I4G5KWFz5n_15embedded_charts4axes6linearINtB5_10LinearAxisfNtNtNtCshH4H1wHMe2V_22embedded_graphics_core10pixelcolor9rgb_color6Rgb565E24calculate_label_positionB9_
FNDA:4,_RNvXs1_NtNtCs1I4G5KWFz5n_15embedded_charts4axes6linearINtB5_10LinearAxisfNtNtNtCshH4H1wHMe2V_22embedded_graphics_core10pixelcolor9rgb_color6Rgb565EINtNtB7_6traits4AxisfB19_E11orientationB9_
FNDA:13,_RNvXs1_NtNtCs1I4G5KWFz5n_15embedded_charts4axes6linearINtB5_10LinearAxisfNtNtNtCshH4H1wHMe2V_22embedded_graphics_core10pixelcolor9rgb_color6Rgb565EINtNtB7_6traits4AxisfB19_E15transform_valueB9_
FNDA:2,_RNvXs1_NtNtCs1I4G5KWFz5n_15embedded_charts4axes6linearINtB5_10LinearAxisfNtNtNtCshH4H1wHMe2V_22embedded_graphics_core10pixelcolor9rgb_color6Rgb565EINtNtB7_6traits4AxisfB19_E17inverse_transformB9_
FNDA:11,_RNvXs1_NtNtCs1I4G5KWFz5n_15embedded_charts4axes6linearINtB5_10LinearAxisfNtNtNtCshH4H1wHMe2V_22embedded_graphics_core10pixelcolor9rgb_color6Rgb565EINtNtB7_6traits4AxisfB19_E3maxB9_
FNDA:11,_RNvXs1_NtNtCs1I4G5KWFz5n_15embedded_charts4axes6linearINtB5_10LinearAxisfNtNtNtCshH4H1wHMe2V_22embedded_graphics_core10pixelcolor9rgb_color6Rgb565EINtNtB7_6traits4AxisfB19_E3minB9_
FNDA:3,_RNvXs1_NtNtCs1I4G5KWFz5n_15embedded_charts4axes6linearINtB5_10LinearAxisfNtNtNtCshH4H1wHMe2V_22embedded_graphics_core10pixelcolor9rgb_color6Rgb565EINtNtB7_6traits4AxisfB19_E8positionB9_
FNF:37
FNH:25
DA:38,19
DA:39,19
DA:40,19
DA:41,19
DA:42,19
DA:46,0
DA:47,0
DA:48,0
DA:57,19
DA:58,19
DA:59,19
DA:60,19
DA:61,19
DA:62,19
DA:63,19
DA:64,19
DA:67,6
DA:68,6
DA:69,6
DA:70,6
DA:73,6
DA:74,6
DA:75,6
DA:76,6
DA:79,0
DA:80,0
DA:81,0
DA:82,0
DA:83,0
DA:86,6
DA:87,6
DA:88,6
DA:89,6
DA:92,6
DA:93,6
DA:94,6
DA:95,6
DA:98,7
DA:99,7
DA:100,7
DA:101,7
DA:104,7
DA:105,7
DA:106,7
DA:107,7
DA:110,2
DA:111,2
DA:113,1
DA:114,1
DA:115,1
DA:116,1
DA:117,1
DA:120,0
DA:121,0
DA:122,0
DA:123,0
DA:124,0
DA:127,1
DA:128,1
DA:129,1
DA:130,1
DA:131,1
DA:134,0
DA:135,0
DA:136,0
DA:137,0
DA:138,0
DA:144,0
DA:145,0
DA:146,0
DA:147,0
DA:148,0
DA:153,0
DA:154,0
DA:155,0
DA:156,0
DA:157,0
DA:160,2
DA:163,10
DA:164,10
DA:165,10
DA:166,10
DA:167,4
DA:168,4
DA:169,4
DA:172,0
DA:175,6
DA:177,0
DA:178,0
DA:179,0
DA:185,0
DA:186,0
DA:187,0
DA:193,0
DA:196,10
DA:199,0
DA:200,0
DA:201,0
DA:202,0
DA:203,0
DA:204,0
DA:205,0
DA:206,0
DA:207,0
DA:210,0
DA:211,0
DA:212,0
DA:213,0
DA:214,0
DA:215,0
DA:216,0
DA:220,0
DA:221,0
DA:222,0
DA:223,0
DA:224,0
DA:225,0
DA:226,0
DA:229,0
DA:232,2
DA:233,2
DA:234,2
DA:235,2
DA:236,2
DA:237,2
DA:238,2
DA:239,2
DA:240,2
DA:241,2
DA:242,2
DA:243,0
DA:244,0
DA:245,0
DA:246,0
DA:247,0
DA:248,0
DA:250,0
DA:251,0
DA:252,0
DA:253,0
DA:254,0
DA:255,0
DA:258,0
DA:259,2
DA:262,2
DA:263,2
DA:264,2
DA:265,2
DA:266,2
DA:267,2
DA:268,2
DA:269,2
DA:270,2
DA:271,0
DA:274,2
DA:275,2
DA:276,2
DA:277,2
DA:278,2
DA:279,2
DA:280,7
DA:281,5
DA:282,5
DA:283,5
DA:285,0
DA:288,5
DA:289,5
DA:290,5
DA:291,5
DA:292,5
DA:293,5
DA:294,5
DA:295,0
DA:296,0
DA:298,0
DA:301,2
DA:302,7
DA:303,5
DA:304,5
DA:305,5
DA:306,5
DA:307,5
DA:308,5
DA:309,5
DA:310,0
DA:311,0
DA:313,0
DA:315,2
DA:316,2
DA:327,11
DA:328,11
DA:329,11
DA:331,11
DA:332,11
DA:333,11
DA:335,4
DA:336,4
DA:337,4
DA:339,3
DA:340,3
DA:341,3
DA:343,13
DA:344,13
DA:345,13
DA:346,13
DA:347,13
DA:348,13
DA:349,0
DA:350,0
DA:351,0
DA:353,13
DA:354,13
DA:355,13
DA:356,13
DA:357,13
DA:359,7
DA:363,6
DA:364,6
DA:365,6
DA:368,13
DA:370,2
DA:371,2
DA:372,2
DA:374,2
DA:376,2
DA:380,0
DA:381,0
DA:385,2
DA:386,2
DA:387,2
DA:389,0
DA:390,0
DA:391,0
DA:393,0
DA:394,0
DA:395,0
DA:397,0
DA:398,0
DA:399,0
DA:400,0
DA:401,0
DA:402,0
DA:403,0
DA:404,0
DA:405,0
DA:406,0
DA:409,0
DA:410,0
DA:411,0
DA:412,0
DA:413,0
DA:414,0
DA:415,0
DA:416,0
DA:417,0
DA:418,0
DA:420,0
DA:423,0
DA:424,0
DA:425,0
DA:426,0
DA:427,0
DA:428,0
DA:429,0
DA:430,0
DA:431,0
DA:433,0
DA:438,0
DA:439,0
DA:440,0
DA:441,0
DA:442,0
DA:443,0
DA:444,0
DA:445,0
DA:446,0
DA:447,0
DA:448,0
DA:450,0
DA:452,0
DA:453,0
DA:455,0
DA:456,0
DA:457,0
DA:458,0
DA:459,0
DA:460,0
DA:461,0
DA:464,0
DA:465,0
DA:466,0
DA:468,0
DA:470,0
DA:471,0
DA:473,0
DA:475,0
DA:476,0
DA:479,0
DA:480,0
DA:481,0
DA:483,0
DA:484,0
DA:493,5
DA:494,5
DA:496,2
DA:499,0
DA:502,3
DA:505,0
DA:511,0
DA:516,0
DA:519,5
DA:525,2
DA:526,2
DA:527,2
DA:528,2
DA:529,2
DA:530,2
DA:531,2
DA:532,2
DA:533,2
DA:534,2
DA:535,2
DA:536,2
DA:537,2
DA:538,2
DA:539,2
DA:540,2
DA:542,5
DA:543,5
DA:544,5
DA:545,5
DA:546,5
DA:547,5
DA:548,5
DA:549,5
DA:550,5
DA:551,5
DA:552,5
DA:553,5
DA:556,2
DA:557,2
DA:558,2
DA:559,2
DA:563,3
DA:564,3
DA:565,3
DA:566,3
DA:570,5
DA:571,5
DA:572,5
DA:573,5
DA:574,5
DA:575,5
DA:577,0
DA:578,0
DA:579,0
DA:580,0
DA:581,0
DA:582,0
DA:583,0
DA:584,0
DA:585,0
DA:586,0
DA:587,0
DA:588,0
DA:589,0
DA:590,0
DA:591,0
DA:592,0
DA:594,5
DA:595,5
DA:596,5
DA:597,5
DA:605,5
DA:606,5
DA:607,5
DA:608,5
DA:609,5
DA:610,5
DA:611,5
DA:612,5
DA:614,5
DA:615,5
DA:624,1
DA:625,1
DA:626,1
DA:627,1
DA:628,1
DA:629,1
DA:630,1
DA:631,1
DA:632,1
DA:635,1
DA:636,1
DA:637,1
DA:638,1
DA:639,1
DA:640,1
DA:641,1
DA:642,1
DA:643,1
DA:644,1
DA:647,1
DA:648,1
DA:649,1
DA:652,1
DA:653,1
DA:654,1
DA:655,1
DA:656,1
DA:657,1
DA:658,1
DA:659,1
DA:660,1
DA:663,1
BRF:0
BRH:0
LF:419
LH:237
end_of_record
SF:/home/tasuku/com/github/signal-slot/embedded-charts/src/axes/mod.rs
FN:97,_RNvMNtCs1I4G5KWFz5n_15embedded_charts4axesINtB2_10AxisConfigdE11is_verticalB4_
FN:92,_RNvMNtCs1I4G5KWFz5n_15embedded_charts4axesINtB2_10AxisConfigdE13is_horizontalB4_
FN:73,_RNvMNtCs1I4G5KWFz5n_15embedded_charts4axesINtB2_10AxisConfigdE3newB4_
FN:73,_RNvMNtCs1I4G5KWFz5n_15embedded_charts4axesINtB2_10AxisConfigfE3newB4_
FN:73,_RNvMNtCs1I4G5KWFz5n_15embedded_charts4axesINtB2_10AxisConfiglE3newB4_
FN:87,_RNvMNtCs1I4G5KWFz5n_15embedded_charts4axesINtB2_10AxisConfiglE5rangeB4_
FN:106,_RNvXININtCs1I4G5KWFz5n_15embedded_charts4axess_0pEINtB5_10AxisConfigpENtNtCs3XRySYX51hI_4core7default7Default7defaultB7_
FN:134,_RNvNtNtCs1I4G5KWFz5n_15embedded_charts4axes5testss_22test_axis_config_range
FN:125,_RNvNtNtCs1I4G5KWFz5n_15embedded_charts4axes5testss_25test_axis_config_creation
FNDA:1,_RNvMNtCs1I4G5KWFz5n_15embedded_charts4axesINtB2_10AxisConfigdE11is_verticalB4_
FNDA:1,_RNvMNtCs1I4G5KWFz5n_15embedded_charts4axesINtB2_10AxisConfigdE13is_horizontalB4_
FNDA:1,_RNvMNtCs1I4G5KWFz5n_15embedded_charts4axesINtB2_10AxisConfigdE3newB4_
FNDA:19,_RNvMNtCs1I4G5KWFz5n_15embedded_charts4axesINtB2_10AxisConfigfE3newB4_
FNDA:1,_RNvMNtCs1I4G5KWFz5n_15embedded_charts4axesINtB2_10AxisConfiglE3newB4_
FNDA:1,_RNvMNtCs1I4G5KWFz5n_15embedded_charts4axesINtB2_10AxisConfiglE5rangeB4_
FNDA:0,_RNvXININtCs1I4G5KWFz5n_15embedded_charts4axess_0pEINtB5_10AxisConfigpENtNtCs3XRySYX51hI_4core7default7Default7defaultB7_
FNDA:1,_RNvNtNtCs1I4G5KWFz5n_15embedded_charts4axes5testss_22test_axis_config_range
FNDA:1,_RNvNtNtCs1I4G5KWFz5n_15embedded_charts4axes5testss_25test_axis_config_creation
FNF:7
FNH:6
DA:73,21
DA:74,21
DA:75,21
DA:76,21
DA:77,21
DA:78,21
DA:79,21
DA:80,21
DA:81,21
DA:82,21
DA:83,21
DA:84,21
DA:87,1
DA:88,1
DA:89,1
DA:92,1
DA:93,1
DA:94,1
DA:97,1
DA:98,1
DA:99,1
DA:106,0
DA:107,0
DA:108,0
DA:109,0
DA:110,0
DA:111,0
DA:112,0
DA:113,0
DA:114,0
DA:115,0
DA:116,0
DA:117,0
DA:125,1
DA:126,1
DA:127,1
DA:128,1
DA:129,1
DA:130,1
DA:131,1
DA:134,1
DA:135,1
DA:136,1
DA:137,1
BRF:0
BRH:0
LF:44
LH:32
end_of_record
SF:/home/tasuku/com/github/signal-slot/embedded-charts/src/axes/range.rs
FN:415,_RNvNtNtNtCs1I4G5KWFz5n_15embedded_charts4axes5range5testss_26test_preset_configurations
FN:399,_RNvNtNtNtCs1I4G5KWFz5n_15embedded_charts4axes5range5testss_36test_calculate_nice_range_edge_cases
FN:389,_RNvNtNtNtCs1I4G5KWFz5n_15embedded_charts4axes5range5testss_39test_calculate_nice_range_negative_data
FN:363,_RNvNtNtNtCs1I4G5KWFz5n_15embedded_charts4axes5range5testss_39test_calculate_nice_range_positive_data
FN:378,_RNvNtNtNtCs1I4G5KWFz5n_15embedded_charts4axes5range5testss_45test_calculate_nice_range_large_positive_data
FN:266,_RINvNtNtCs1I4G5KWFz5n_15embedded_charts4axes5range33calculate_nice_ranges_from_boundsppEB6_
FN:294,_RINvNtNtCs1I4G5KWFz5n_15embedded_charts4axes5range37calculate_nice_ranges_separate_configppEB6_
FN:348,_RNvNtNtNtCs1I4G5KWFz5n_15embedded_charts4axes5range7presets10percentage
FN:338,_RNvNtNtNtCs1I4G5KWFz5n_15embedded_charts4axes5range7presets11time_series
FN:328,_RNvNtNtNtCs1I4G5KWFz5n_15embedded_charts4axes5range7presets5loose
FN:318,_RNvNtNtNtCs1I4G5KWFz5n_15embedded_charts4axes5range7presets5tight
FN:313,_RNvNtNtNtCs1I4G5KWFz5n_15embedded_charts4axes5range7presets8standard
FN:69,_RNvNtNtCs1I4G5KWFz5n_15embedded_charts4axes5range20calculate_nice_range
FN:29,_RNvXNtNtCs1I4G5KWFz5n_15embedded_charts4axes5rangeNtB2_22RangeCalculationConfigNtNtCs3XRySYX51hI_4core7default7Default7default
FNDA:1,_RNvNtNtNtCs1I4G5KWFz5n_15embedded_charts4axes5range5testss_26test_preset_configurations
FNDA:1,_RNvNtNtNtCs1I4G5KWFz5n_15embedded_charts4axes5range5testss_36test_calculate_nice_range_edge_cases
FNDA:1,_RNvNtNtNtCs1I4G5KWFz5n_15embedded_charts4axes5range5testss_39test_calculate_nice_range_negative_data
FNDA:1,_RNvNtNtNtCs1I4G5KWFz5n_15embedded_charts4axes5range5testss_39test_calculate_nice_range_positive_data
FNDA:1,_RNvNtNtNtCs1I4G5KWFz5n_15embedded_charts4axes5range5testss_45test_calculate_nice_range_large_positive_data
FNDA:0,_RINvNtNtCs1I4G5KWFz5n_15embedded_charts4axes5range33calculate_nice_ranges_from_boundsppEB6_
FNDA:0,_RINvNtNtCs1I4G5KWFz5n_15embedded_charts4axes5range37calculate_nice_ranges_separate_configppEB6_
FNDA:0,_RNvNtNtNtCs1I4G5KWFz5n_15embedded_charts4axes5range7presets10percentage
FNDA:0,_RNvNtNtNtCs1I4G5KWFz5n_15embedded_charts4axes5range7presets11time_series
FNDA:1,_RNvNtNtNtCs1I4G5KWFz5n_15embedded_charts4axes5range7presets5loose
FNDA:1,_RNvNtNtNtCs1I4G5KWFz5n_15embedded_charts4axes5range7presets5tight
FNDA:1,_RNvNtNtNtCs1I4G5KWFz5n_15embedded_charts4axes5range7presets8standard
FNDA:8,_RNvNtNtCs1I4G5KWFz5n_15embedded_charts4axes5range20calculate_nice_range
FNDA:5,_RNvXNtNtCs1I4G5KWFz5n_15embedded_charts4axes5rangeNtB2_22RangeCalculationConfigNtNtCs3XRySYX51hI_4core7default7Default7default
FNF:14
FNH:10
DA:29,5
DA:30,5
DA:31,5
DA:32,5
DA:33,5
DA:34,5
DA:35,5
DA:36,5
DA:69,8
DA:70,8
DA:72,2
DA:73,2
DA:74,1
DA:75,1
DA:76,1
DA:78,0
DA:81,0
DA:83,6
DA:86,6
DA:88,5
DA:89,3
DA:93,2
DA:94,2
DA:95,2
DA:96,2
DA:97,2
DA:98,2
DA:99,2
DA:100,2
DA:101,2
DA:102,2
DA:103,2
DA:104,2
DA:105,2
DA:106,2
DA:107,2
DA:108,2
DA:109,2
DA:110,2
DA:111,2
DA:112,2
DA:113,2
DA:114,2
DA:115,2
DA:116,2
DA:117,2
DA:118,2
DA:119,2
DA:120,2
DA:121,2
DA:122,2
DA:123,2
DA:124,2
DA:125,2
DA:126,2
DA:127,2
DA:128,2
DA:129,2
DA:130,2
DA:131,2
DA:132,2
DA:133,2
DA:134,2
DA:135,2
DA:136,2
DA:137,2
DA:138,2
DA:139,2
DA:140,2
DA:141,2
DA:142,2
DA:143,2
DA:144,2
DA:145,2
DA:146,2
DA:147,2
DA:148,2
DA:152,1
DA:156,6
DA:157,6
DA:158,6
DA:159,6
DA:160,6
DA:161,6
DA:162,6
DA:163,6
DA:164,6
DA:165,6
DA:166,6
DA:167,6
DA:168,6
DA:169,6
DA:170,6
DA:171,6
DA:172,6
DA:173,6
DA:174,6
DA:175,6
DA:176,6
DA:177,6
DA:178,6
DA:179,6
DA:180,6
DA:181,6
DA:182,6
DA:183,6
DA:184,6
DA:185,6
DA:186,6
DA:187,6
DA:188,6
DA:189,0
DA:190,6
DA:191,2
DA:192,4
DA:193,0
DA:195,4
DA:200,6
DA:201,6
DA:202,6
DA:203,6
DA:204,6
DA:205,6
DA:206,6
DA:207,6
DA:208,6
DA:209,6
DA:210,6
DA:211,6
DA:212,6
DA:213,6
DA:214,6
DA:215,6
DA:216,6
DA:217,6
DA:218,6
DA:219,6
DA:220,6
DA:221,6
DA:222,6
DA:223,6
DA:224,6
DA:225,6
DA:226,6
DA:227,6
DA:228,8
DA:266,0
DA:267,0
DA:268,0
DA:269,0
DA:270,0
DA:271,0
DA:272,0
DA:273,0
DA:274,0
DA:275,0
DA:276,0
DA:277,0
DA:294,0
DA:295,0
DA:296,0
DA:297,0
DA:298,0
DA:299,0
DA:300,0
DA:301,0
DA:302,0
DA:303,0
DA:304,0
DA:305,0
DA:306,0
DA:313,1
DA:314,1
DA:315,1
DA:318,1
DA:319,1
DA:320,1
DA:321,1
DA:322,1
DA:323,1
DA:324,1
DA:325,1
DA:328,1
DA:329,1
DA:330,1
DA:331,1
DA:332,1
DA:333,1
DA:334,1
DA:335,1
DA:338,0
DA:339,0
DA:340,0
DA:341,0
DA:342,0
DA:343,0
DA:344,0
DA:345,0
DA:348,0
DA:349,0
DA:350,0
DA:351,0
DA:352,0
DA:353,0
DA:354,0
DA:355,0
DA:363,1
DA:364,1
DA:365,1
DA:366,1
DA:367,1
DA:368,1
DA:369,1
DA:372,1
DA:373,1
DA:374,1
DA:375,1
DA:378,1
DA:379,1
DA:380,1
DA:381,1
DA:382,1
DA:383,1
DA:384,1
DA:385,1
DA:386,1
DA:389,1
DA:390,1
DA:391,1
DA:392,1
DA:393,1
DA:394,1
DA:395,1
DA:396,1
DA:399,1
DA:400,1
DA:401,1
DA:402,1
DA:403,1
DA:404,1
DA:405,1
DA:406,1
DA:409,1
DA:410,1
DA:411,1
DA:412,1
DA:415,1
DA:416,1
DA:417,1
DA:418,1
DA:419,1
DA:420,1
DA:421,1
DA:422,1
DA:423,1
DA:426,1
DA:427,1
DA:428,1
DA:429,1
DA:430,1
DA:431,1
BRF:0
BRH:0
LF:261
LH:216
end_of_record
SF:/home/tasuku/com/github/signal-slot/embedded-charts/src/axes/scale.rs
FN:478,_RNvNtNtNtCs1I4G5KWFz5n_15embedded_charts4axes5scale5testss_17test_linear_scale
FN:505,_RNvNtNtNtCs1I4G5KWFz5n_15embedded_charts4axes5scale5testss_22test_logarithmic_scale
FN:183,_RNvMs1_NtNtCs1I4G5KWFz5n_15embedded_charts4axes5scaleNtB5_16LogarithmicScale7natural
FN:352,_RNvMs4_NtNtCs1I4G5KWFz5n_15embedded_charts4axes5scaleINtB5_11CustomScaleppE3newB9_
FN:461,_RNvMs7_NtNtCs1I4G5KWFz5n_15embedded_charts4axes5scaleNtB5_9AxisScale12format_value
FN:421,_RNvMs7_NtNtCs1I4G5KWFz5n_15embedded_charts4axes5scaleNtB5_9AxisScale3new
FN:443,_RNvMs7_NtNtCs1I4G5KWFz5n_15embedded_charts4axes5scaleNtB5_9AxisScale7inverse
FN:452,_RNvMs7_NtNtCs1I4G5KWFz5n_15embedded_charts4axes5scaleNtB5_9AxisScale9get_ticks
FN:434,_RNvMs7_NtNtCs1I4G5KWFz5n_15embedded_charts4axes5scaleNtB5_9AxisScale9transform
FN:337,_RNvXININtNtCs1I4G5KWFz5n_15embedded_charts4axes5scales3_0ppEINtB5_11CustomScaleppENtNtCs3XRySYX51hI_4core3fmt5Debug3fmtB9_
FN:379,_RNvXININtNtCs1I4G5KWFz5n_15embedded_charts4axes5scales5_0ppEINtB5_11CustomScaleppENtB5_14ScaleTransform12format_valueB9_
FN:370,_RNvXININtNtCs1I4G5KWFz5n_15embedded_charts4axes5scales5_0ppEINtB5_11CustomScaleppENtB5_14ScaleTransform7inverseB9_
FN:374,_RNvXININtNtCs1I4G5KWFz5n_15embedded_charts4axes5scales5_0ppEINtB5_11CustomScaleppENtB5_14ScaleTransform9get_ticksB9_
FN:366,_RNvXININtNtCs1I4G5KWFz5n_15embedded_charts4axes5scales5_0ppEINtB5_11CustomScaleppENtB5_14ScaleTransform9transformB9_
FN:115,_RNvXs0_NtNtCs1I4G5KWFz5n_15embedded_charts4axes5scaleNtB5_11LinearScaleNtB5_14ScaleTransform12format_value
FN:289,_RNvXs2_NtNtCs1I4G5KWFz5n_15embedded_charts4axes5scaleNtB5_16LogarithmicScaleNtB5_14ScaleTransform12format_value
FN:207,_RNvXs2_NtNtCs1I4G5KWFz5n_15embedded_charts4axes5scaleNtB5_16LogarithmicScaleNtB5_14ScaleTransform7inverse
FN:222,_RNvXs2_NtNtCs1I4G5KWFz5n_15embedded_charts4axes5scaleNtB5_16LogarithmicScaleNtB5_14ScaleTransform9get_ticks
FN:403,_RNvXs6_NtNtCs1I4G5KWFz5n_15embedded_charts4axes5scaleNtB5_13AxisScaleTypeNtNtCs3XRySYX51hI_4core7default7Default7default
FN:148,_RNvMs1_NtNtCs1I4G5KWFz5n_15embedded_charts4axes5scaleNtB5_16LogarithmicScale3new
FN:178,_RNvMs1_NtNtCs1I4G5KWFz5n_15embedded_charts4axes5scaleNtB5_16LogarithmicScale6base10
FN:64,_RNvMs_NtNtCs1I4G5KWFz5n_15embedded_charts4axes5scaleNtB4_11LinearScale3new
FN:45,_RNvXNtNtCs1I4G5KWFz5n_15embedded_charts4axes5scaleNtB2_11ScaleConfigNtNtCs3XRySYX51hI_4core7default7Default7default
FN:84,_RNvXs0_NtNtCs1I4G5KWFz5n_15embedded_charts4axes5scaleNtB5_11LinearScaleNtB5_14ScaleTransform7inverse
FN:92,_RNvXs0_NtNtCs1I4G5KWFz5n_15embedded_charts4axes5scaleNtB5_11LinearScaleNtB5_14ScaleTransform9get_ticks
FN:75,_RNvXs0_NtNtCs1I4G5KWFz5n_15embedded_charts4axes5scaleNtB5_11LinearScaleNtB5_14ScaleTransform9transform
FN:189,_RNvXs2_NtNtCs1I4G5KWFz5n_15embedded_charts4axes5scaleNtB5_16LogarithmicScaleNtB5_14ScaleTransform9transform
FNDA:1,_RNvNtNtNtCs1I4G5KWFz5n_15embedded_charts4axes5scale5testss_17test_linear_scale
FNDA:1,_RNvNtNtNtCs1I4G5KWFz5n_15embedded_charts4axes5scale5testss_22test_logarithmic_scale
FNDA:0,_RNvMs1_NtNtCs1I4G5KWFz5n_15embedded_charts4axes5scaleNtB5_16LogarithmicScale7natural
FNDA:0,_RNvMs4_NtNtCs1I4G5KWFz5n_15embedded_charts4axes5scaleINtB5_11CustomScaleppE3newB9_
FNDA:0,_RNvMs7_NtNtCs1I4G5KWFz5n_15embedded_charts4axes5scaleNtB5_9AxisScale12format_value
FNDA:0,_RNvMs7_NtNtCs1I4G5KWFz5n_15embedded_charts4axes5scaleNtB5_9AxisScale3new
FNDA:0,_RNvMs7_NtNtCs1I4G5KWFz5n_15embedded_charts4axes5scaleNtB5_9AxisScale7inverse
FNDA:0,_RNvMs7_NtNtCs1I4G5KWFz5n_15embedded_charts4axes5scaleNtB5_9AxisScale9get_ticks
FNDA:0,_RNvMs7_NtNtCs1I4G5KWFz5n_15embedded_charts4axes5scaleNtB5_9AxisScale9transform
FNDA:0,_RNvXININtNtCs1I4G5KWFz5n_15embedded_charts4axes5scales3_0ppEINtB5_11CustomScaleppENtNtCs3XRySYX51hI_4core3fmt5Debug3fmtB9_
FNDA:0,_RNvXININtNtCs1I4G5KWFz5n_15embedded_charts4axes5scales5_0ppEINtB5_11CustomScaleppENtB5_14ScaleTransform12format_valueB9_
FNDA:0,_RNvXININtNtCs1I4G5KWFz5n_15embedded_charts4axes5scales5_0ppEINtB5_11CustomScaleppENtB5_14ScaleTransform7inverseB9_
FNDA:0,_RNvXININtNtCs1I4G5KWFz5n_15embedded_charts4axes5scales5_0ppEINtB5_11CustomScaleppENtB5_14ScaleTransform9get_ticksB9_
FNDA:0,_RNvXININtNtCs1I4G5KWFz5n_15embedded_charts4axes5scales5_0ppEINtB5_11CustomScaleppENtB5_14ScaleTransform9transformB9_
FNDA:0,_RNvXs0_NtNtCs1I4G5KWFz5n_15embedded_charts4axes5scaleNtB5_11LinearScaleNtB5_14ScaleTransform12format_value
FNDA:0,_RNvXs2_NtNtCs1I4G5KWFz5n_15embedded_charts4axes5scaleNtB5_16LogarithmicScaleNtB5_14ScaleTransform12format_value
FNDA:0,_RNvXs2_NtNtCs1I4G5KWFz5n_15embedded_charts4axes5scaleNtB5_16LogarithmicScaleNtB5_14ScaleTransform7inverse
FNDA:0,_RNvXs2_NtNtCs1I4G5KWFz5n_15embedded_charts4axes5scaleNtB5_16LogarithmicScaleNtB5_14ScaleTransform9get_ticks
FNDA:0,_RNvXs6_NtNtCs1I4G5KWFz5n_15embedded_charts4axes5scaleNtB5_13AxisScaleTypeNtNtCs3XRySYX51hI_4core7default7Default7default
FNDA:1,_RNvMs1_NtNtCs1I4G5KWFz5n_15embedded_charts4axes5scaleNtB5_16LogarithmicScale3new
FNDA:1,_RNvMs1_NtNtCs1I4G5KWFz5n_15embedded_charts4axes5scaleNtB5_16LogarithmicScale6base10
FNDA:1,_RNvMs_NtNtCs1I4G5KWFz5n_15embedded_charts4axes5scaleNtB4_11LinearScale3new
FNDA:2,_RNvXNtNtCs1I4G5KWFz5n_15embedded_charts4axes5scaleNtB2_11ScaleConfigNtNtCs3XRySYX51hI_4core7default7Default7default
FNDA:3,_RNvXs0_NtNtCs1I4G5KWFz5n_15embedded_charts4axes5scaleNtB5_11LinearScaleNtB5_14ScaleTransform7inverse
FNDA:1,_RNvXs0_NtNtCs1I4G5KWFz5n_15embedded_charts4axes5scaleNtB5_11LinearScaleNtB5_14ScaleTransform9get_ticks
FNDA:3,_RNvXs0_NtNtCs1I4G5KWFz5n_15embedded_charts4axes5scaleNtB5_11LinearScaleNtB5_14ScaleTransform9transform
FNDA:6,_RNvXs2_NtNtCs1I4G5KWFz5n_15embedded_charts4axes5scaleNtB5_16LogarithmicScaleNtB5_14ScaleTransform9transform
FNF:27
FNH:10
DA:45,2
DA:46,2
DA:47,2
DA:48,2
DA:49,2
DA:50,2
DA:51,2
DA:52,2
DA:64,1
DA:65,1
DA:66,0
DA:67,1
DA:68,1
DA:69,1
DA:70,1
DA:71,1
DA:75,3
DA:76,3
DA:77,0
DA:78,3
DA:79,3
DA:80,3
DA:81,3
DA:82,3
DA:84,3
DA:85,3
DA:86,0
DA:87,3
DA:88,3
DA:89,3
DA:90,3
DA:92,1
DA:93,1
DA:94,1
DA:95,1
DA:96,0
DA:97,1
DA:98,1
DA:99,1
DA:100,0
DA:101,0
DA:102,1
DA:103,1
DA:104,1
DA:105,5
DA:106,5
DA:107,5
DA:108,0
DA:109,5
DA:112,1
DA:113,1
DA:115,0
DA:116,0
DA:117,0
DA:118,0
DA:119,0
DA:120,0
DA:121,0
DA:122,0
DA:123,0
DA:124,0
DA:125,0
DA:126,0
DA:127,0
DA:128,0
DA:129,0
DA:131,0
DA:132,0
DA:148,1
DA:149,1
DA:150,0
DA:151,1
DA:152,1
DA:153,1
DA:154,0
DA:155,1
DA:156,1
DA:157,1
DA:158,0
DA:159,1
DA:160,1
DA:161,1
DA:162,1
DA:163,1
DA:164,1
DA:165,1
DA:166,1
DA:167,1
DA:168,1
DA:169,1
DA:170,1
DA:171,1
DA:172,1
DA:173,1
DA:174,1
DA:175,1
DA:178,1
DA:179,1
DA:180,1
DA:183,0
DA:184,0
DA:185,0
DA:189,6
DA:190,6
DA:191,2
DA:192,4
DA:193,4
DA:194,4
DA:195,0
DA:196,4
DA:197,4
DA:198,4
DA:199,4
DA:200,4
DA:201,4
DA:202,4
DA:203,4
DA:204,4
DA:205,6
DA:207,0
DA:208,0
DA:209,0
DA:210,0
DA:211,0
DA:212,0
DA:213,0
DA:214,0
DA:215,0
DA:216,0
DA:217,0
DA:218,0
DA:219,0
DA:220,0
DA:222,0
DA:223,0
DA:224,0
DA:225,0
DA:226,0
DA:227,0
DA:228,0
DA:229,0
DA:230,0
DA:231,0
DA:232,0
DA:235,0
DA:237,0
DA:238,0
DA:239,0
DA:240,0
DA:241,0
DA:242,0
DA:244,0
DA:245,0
DA:246,0
DA:247,0
DA:249,0
DA:251,0
DA:252,0
DA:253,0
DA:255,0
DA:258,0
DA:261,0
DA:262,0
DA:263,0
DA:264,0
DA:268,0
DA:269,0
DA:270,0
DA:271,0
DA:272,0
DA:273,0
DA:274,0
DA:275,0
DA:276,0
DA:277,0
DA:278,0
DA:279,0
DA:281,0
DA:283,0
DA:286,0
DA:287,0
DA:289,0
DA:290,0
DA:291,0
DA:292,0
DA:295,0
DA:296,0
DA:297,0
DA:298,0
DA:299,0
DA:300,0
DA:301,0
DA:302,0
DA:303,0
DA:304,0
DA:305,0
DA:308,0
DA:309,0
DA:310,0
DA:311,0
DA:312,0
DA:313,0
DA:314,0
DA:317,0
DA:318,0
DA:337,0
DA:338,0
DA:339,0
DA:340,0
DA:341,0
DA:342,0
DA:343,0
DA:352,0
DA:353,0
DA:354,0
DA:355,0
DA:356,0
DA:357,0
DA:358,0
DA:366,0
DA:367,0
DA:368,0
DA:370,0
DA:371,0
DA:372,0
DA:374,0
DA:375,0
DA:376,0
DA:377,0
DA:379,0
DA:380,0
DA:381,0
DA:382,0
DA:383,0
DA:384,0
DA:403,0
DA:404,0
DA:405,0
DA:421,0
DA:422,0
DA:423,0
DA:424,0
DA:425,0
DA:426,0
DA:427,0
DA:429,0
DA:431,0
DA:434,0
DA:435,0
DA:436,0
DA:437,0
DA:438,0
DA:440,0
DA:443,0
DA:444,0
DA:445,0
DA:446,0
DA:447,0
DA:449,0
DA:452,0
DA:453,0
DA:454,0
DA:455,0
DA:456,0
DA:458,0
DA:461,0
DA:462,0
DA:463,0
DA:464,0
DA:465,0
DA:467,0
DA:478,1
DA:479,1
DA:480,1
DA:481,1
DA:482,1
DA:483,1
DA:484,1
DA:485,1
DA:486,1
DA:487,1
DA:488,1
DA:489,1
DA:490,1
DA:493,1
DA:494,1
DA:495,1
DA:498,1
DA:499,1
DA:500,1
DA:501,1
DA:502,1
DA:505,1
DA:506,1
DA:507,1
DA:508,1
DA:509,1
DA:510,1
DA:511,1
DA:512,1
DA:513,1
DA:514,1
DA:515,1
DA:516,1
DA:517,1
DA:518,1
DA:521,1
DA:522,1
DA:523,1
BRF:0
BRH:0
LF:309
LH:126
end_of_record
SF:/home/tasuku/com/github/signal-slot/embedded-charts/src/axes/style.rs
FN:107,_RNvMNtNtCs1I4G5KWFz5n_15embedded_charts4axes5styleINtB2_9AxisStylepE11with_labelsB6_
FN:77,_RNvMNtNtCs1I4G5KWFz5n_15embedded_charts4axes5styleINtB2_9AxisStylepE14with_axis_lineB6_
FN:95,_RNvMNtNtCs1I4G5KWFz5n_15embedded_charts4axes5styleINtB2_9AxisStylepE15with_grid_linesB6_
FN:83,_RNvMNtNtCs1I4G5KWFz5n_15embedded_charts4axes5styleINtB2_9AxisStylepE16with_major_ticksB6_
FN:89,_RNvMNtNtCs1I4G5KWFz5n_15embedded_charts4axes5styleINtB2_9AxisStylepE16with_minor_ticksB6_
FN:113,_RNvMNtNtCs1I4G5KWFz5n_15embedded_charts4axes5styleINtB2_9AxisStylepE17with_label_offsetB6_
FN:101,_RNvMNtNtCs1I4G5KWFz5n_15embedded_charts4axes5styleINtB2_9AxisStylepE18without_grid_linesB6_
FN:205,_RNvMs0_NtNtCs1I4G5KWFz5n_15embedded_charts4axes5styleINtB5_10LabelStylepE10with_colorB9_
FN:235,_RNvMs0_NtNtCs1I4G5KWFz5n_15embedded_charts4axes5styleINtB5_10LabelStylepE6hiddenB9_
FN:241,_RNvMs0_NtNtCs1I4G5KWFz5n_15embedded_charts4axes5styleINtB5_10LabelStylepE7visibleB9_
FN:162,_RNvMs_NtNtCs1I4G5KWFz5n_15embedded_charts4axes5styleINtB4_9TickStylepE10with_colorB8_
FN:186,_RNvMs_NtNtCs1I4G5KWFz5n_15embedded_charts4axes5styleINtB4_9TickStylepE7visibleB8_
FN:251,_RNvXININtNtCs1I4G5KWFz5n_15embedded_charts4axes5styles1_0pEINtB5_9AxisStylepENtNtCs3XRySYX51hI_4core7default7Default7defaultB9_
FN:260,_RNvXININtNtCs1I4G5KWFz5n_15embedded_charts4axes5styles2_0pEINtB5_9TickStylepENtNtCs3XRySYX51hI_4core7default7Default7defaultB9_
FN:269,_RNvXININtNtCs1I4G5KWFz5n_15embedded_charts4axes5styles3_0pEINtB5_10LabelStylepENtNtCs3XRySYX51hI_4core7default7Default7defaultB9_
FN:275,_RNvXs4_NtNtCs1I4G5KWFz5n_15embedded_charts4axes5styleNtB5_13TextAlignmentNtNtCs3XRySYX51hI_4core7default7Default7default
FN:321,_RNvNtNtNtCs1I4G5KWFz5n_15embedded_charts4axes5style5testss_18test_minimal_style
FN:314,_RNvNtNtNtCs1I4G5KWFz5n_15embedded_charts4axes5style5testss_23test_professional_style
FN:294,_RNvNtNtNtCs1I4G5KWFz5n_15embedded_charts4axes5style5testss_23test_tick_style_builder
FN:286,_RNvNtNtNtCs1I4G5KWFz5n_15embedded_charts4axes5style5testss_24test_axis_style_creation
FN:302,_RNvNtNtNtCs1I4G5KWFz5n_15embedded_charts4axes5style5testss_24test_label_style_builder
FN:133,_RNvMNtNtCs1I4G5KWFz5n_15embedded_charts4axes5styleINtB2_9AxisStyleNtNtNtCshH4H1wHMe2V_22embedded_graphics_core10pixelcolor9rgb_color6Rgb565E12professionalB6_
FN:65,_RNvMNtNtCs1I4G5KWFz5n_15embedded_charts4axes5styleINtB2_9AxisStyleNtNtNtCshH4H1wHMe2V_22embedded_graphics_core10pixelcolor9rgb_color6Rgb565E3newB6_
FN:119,_RNvMNtNtCs1I4G5KWFz5n_15embedded_charts4axes5styleINtB2_9AxisStyleNtNtNtCshH4H1wHMe2V_22embedded_graphics_core10pixelcolor9rgb_color6Rgb565E7minimalB6_
FN:223,_RNvMs0_NtNtCs1I4G5KWFz5n_15embedded_charts4axes5styleINtB5_10LabelStyleNtNtNtCshH4H1wHMe2V_22embedded_graphics_core10pixelcolor9rgb_color6Rgb565E13with_rotationB9_
FN:217,_RNvMs0_NtNtCs1I4G5KWFz5n_15embedded_charts4axes5styleINtB5_10LabelStyleNtNtNtCshH4H1wHMe2V_22embedded_graphics_core10pixelcolor9rgb_color6Rgb565E14with_alignmentB9_
FN:211,_RNvMs0_NtNtCs1I4G5KWFz5n_15embedded_charts4axes5styleINtB5_10LabelStyleNtNtNtCshH4H1wHMe2V_22embedded_graphics_core10pixelcolor9rgb_color6Rgb565E14with_font_sizeB9_
FN:194,_RNvMs0_NtNtCs1I4G5KWFz5n_15embedded_charts4axes5styleINtB5_10LabelStyleNtNtNtCshH4H1wHMe2V_22embedded_graphics_core10pixelcolor9rgb_color6Rgb565E3newB9_
FN:168,_RNvMs_NtNtCs1I4G5KWFz5n_15embedded_charts4axes5styleINtB4_9TickStyleNtNtNtCshH4H1wHMe2V_22embedded_graphics_core10pixelcolor9rgb_color6Rgb565E10with_widthB8_
FN:174,_RNvMs_NtNtCs1I4G5KWFz5n_15embedded_charts4axes5styleINtB4_9TickStyleNtNtNtCshH4H1wHMe2V_22embedded_graphics_core10pixelcolor9rgb_color6Rgb565E11with_lengthB8_
FN:153,_RNvMs_NtNtCs1I4G5KWFz5n_15embedded_charts4axes5styleINtB4_9TickStyleNtNtNtCshH4H1wHMe2V_22embedded_graphics_core10pixelcolor9rgb_color6Rgb565E3newB8_
FN:180,_RNvMs_NtNtCs1I4G5KWFz5n_15embedded_charts4axes5styleINtB4_9TickStyleNtNtNtCshH4H1wHMe2V_22embedded_graphics_core10pixelcolor9rgb_color6Rgb565E6hiddenB8_
FNDA:0,_RNvMNtNtCs1I4G5KWFz5n_15embedded_charts4axes5styleINtB2_9AxisStylepE11with_labelsB6_
FNDA:0,_RNvMNtNtCs1I4G5KWFz5n_15embedded_charts4axes5styleINtB2_9AxisStylepE14with_axis_lineB6_
FNDA:0,_RNvMNtNtCs1I4G5KWFz5n_15embedded_charts4axes5styleINtB2_9AxisStylepE15with_grid_linesB6_
FNDA:0,_RNvMNtNtCs1I4G5KWFz5n_15embedded_charts4axes5styleINtB2_9AxisStylepE16with_major_ticksB6_
FNDA:0,_RNvMNtNtCs1I4G5KWFz5n_15embedded_charts4axes5styleINtB2_9AxisStylepE16with_minor_ticksB6_
FNDA:0,_RNvMNtNtCs1I4G5KWFz5n_15embedded_charts4axes5styleINtB2_9AxisStylepE17with_label_offsetB6_
FNDA:0,_RNvMNtNtCs1I4G5KWFz5n_15embedded_charts4axes5styleINtB2_9AxisStylepE18without_grid_linesB6_
FNDA:0,_RNvMs0_NtNtCs1I4G5KWFz5n_15embedded_charts4axes5styleINtB5_10LabelStylepE10with_colorB9_
FNDA:0,_RNvMs0_NtNtCs1I4G5KWFz5n_15embedded_charts4axes5styleINtB5_10LabelStylepE6hiddenB9_
FNDA:0,_RNvMs0_NtNtCs1I4G5KWFz5n_15embedded_charts4axes5styleINtB5_10LabelStylepE7visibleB9_
FNDA:0,_RNvMs_NtNtCs1I4G5KWFz5n_15embedded_charts4axes5styleINtB4_9TickStylepE10with_colorB8_
FNDA:0,_RNvMs_NtNtCs1I4G5KWFz5n_15embedded_charts4axes5styleINtB4_9TickStylepE7visibleB8_
FNDA:0,_RNvXININtNtCs1I4G5KWFz5n_15embedded_charts4axes5styles1_0pEINtB5_9AxisStylepENtNtCs3XRySYX51hI_4core7default7Default7defaultB9_
FNDA:0,_RNvXININtNtCs1I4G5KWFz5n_15embedded_charts4axes5styles2_0pEINtB5_9TickStylepENtNtCs3XRySYX51hI_4core7default7Default7defaultB9_
FNDA:0,_RNvXININtNtCs1I4G5KWFz5n_15embedded_charts4axes5styles3_0pEINtB5_10LabelStylepENtNtCs3XRySYX51hI_4core7default7Default7defaultB9_
FNDA:0,_RNvXs4_NtNtCs1I4G5KWFz5n_15embedded_charts4axes5styleNtB5_13TextAlignmentNtNtCs3XRySYX51hI_4core7default7Default7default
FNDA:1,_RNvNtNtNtCs1I4G5KWFz5n_15embedded_charts4axes5style5testss_18test_minimal_style
FNDA:1,_RNvNtNtNtCs1I4G5KWFz5n_15embedded_charts4axes5style5testss_23test_professional_style
FNDA:1,_RNvNtNtNtCs1I4G5KWFz5n_15embedded_charts4axes5style5testss_23test_tick_style_builder
FNDA:1,_RNvNtNtNtCs1I4G5KWFz5n_15embedded_charts4axes5style5testss_24test_axis_style_creation
FNDA:1,_RNvNtNtNtCs1I4G5KWFz5n_15embedded_charts4axes5style5testss_24test_label_style_builder
FNDA:2,_RNvMNtNtCs1I4G5KWFz5n_15embedded_charts4axes5styleINtB2_9AxisStyleNtNtNtCshH4H1wHMe2V_22embedded_graphics_core10pixelcolor9rgb_color6Rgb565E12professionalB6_
FNDA:28,_RNvMNtNtCs1I4G5KWFz5n_15embedded_charts4axes5styleINtB2_9AxisStyleNtNtNtCshH4H1wHMe2V_22embedded_graphics_core10pixelcolor9rgb_color6Rgb565E3newB6_
FNDA:2,_RNvMNtNtCs1I4G5KWFz5n_15embedded_charts4axes5styleINtB2_9AxisStyleNtNtNtCshH4H1wHMe2V_22embedded_graphics_core10pixelcolor9rgb_color6Rgb565E7minimalB6_
FNDA:1,_RNvMs0_NtNtCs1I4G5KWFz5n_15embedded_charts4axes5styleINtB5_10LabelStyleNtNtNtCshH4H1wHMe2V_22embedded_graphics_core10pixelcolor9rgb_color6Rgb565E13with_rotationB9_
FNDA:1,_RNvMs0_NtNtCs1I4G5KWFz5n_15embedded_charts4axes5styleINtB5_10LabelStyleNtNtNtCshH4H1wHMe2V_22embedded_graphics_core10pixelcolor9rgb_color6Rgb565E14with_alignmentB9_
FNDA:3,_RNvMs0_NtNtCs1I4G5KWFz5n_15embedded_charts4axes5styleINtB5_10LabelStyleNtNtNtCshH4H1wHMe2V_22embedded_graphics_core10pixelcolor9rgb_color6Rgb565E14with_font_sizeB9_
FNDA:33,_RNvMs0_NtNtCs1I4G5KWFz5n_15embedded_charts4axes5styleINtB5_10LabelStyleNtNtNtCshH4H1wHMe2V_22embedded_graphics_core10pixelcolor9rgb_color6Rgb565E3newB9_
FNDA:3,_RNvMs_NtNtCs1I4G5KWFz5n_15embedded_charts4axes5styleINtB4_9TickStyleNtNtNtCshH4H1wHMe2V_22embedded_graphics_core10pixelcolor9rgb_color6Rgb565E10with_widthB8_
FNDA:1,_RNvMs_NtNtCs1I4G5KWFz5n_15embedded_charts4axes5styleINtB4_9TickStyleNtNtNtCshH4H1wHMe2V_22embedded_graphics_core10pixelcolor9rgb_color6Rgb565E11with_lengthB8_
FNDA:65,_RNvMs_NtNtCs1I4G5KWFz5n_15embedded_charts4axes5styleINtB4_9TickStyleNtNtNtCshH4H1wHMe2V_22embedded_graphics_core10pixelcolor9rgb_color6Rgb565E3newB8_
FNDA:2,_RNvMs_NtNtCs1I4G5KWFz5n_15embedded_charts4axes5styleINtB4_9TickStyleNtNtNtCshH4H1wHMe2V_22embedded_graphics_core10pixelcolor9rgb_color6Rgb565E6hiddenB8_
FNF:32
FNH:16
DA:65,28
DA:66,28
DA:67,28
DA:68,28
DA:69,28
DA:70,28
DA:71,28
DA:72,28
DA:73,28
DA:74,28
DA:77,0
DA:78,0
DA:79,0
DA:80,0
DA:83,0
DA:84,0
DA:85,0
DA:86,0
DA:89,0
DA:90,0
DA:91,0
DA:92,0
DA:95,0
DA:96,0
DA:97,0
DA:98,0
DA:101,0
DA:102,0
DA:103,0
DA:104,0
DA:107,0
DA:108,0
DA:109,0
DA:110,0
DA:113,0
DA:114,0
DA:115,0
DA:116,0
DA:119,2
DA:120,2
DA:121,2
DA:122,2
DA:123,2
DA:124,2
DA:125,2
DA:126,2
DA:127,2
DA:128,2
DA:129,2
DA:130,2
DA:133,2
DA:134,2
DA:135,2
DA:136,2
DA:137,2
DA:138,2
DA:139,2
DA:140,2
DA:141,2
DA:142,2
DA:143,2
DA:144,2
DA:145,2
DA:146,2
DA:147,2
DA:148,2
DA:153,65
DA:154,65
DA:155,65
DA:156,65
DA:157,65
DA:158,65
DA:159,65
DA:162,0
DA:163,0
DA:164,0
DA:165,0
DA:168,3
DA:169,3
DA:170,3
DA:171,3
DA:174,1
DA:175,1
DA:176,1
DA:177,1
DA:180,2
DA:181,2
DA:182,2
DA:183,2
DA:186,0
DA:187,0
DA:188,0
DA:189,0
DA:194,33
DA:195,33
DA:196,33
DA:197,33
DA:198,33
DA:199,33
DA:200,33
DA:201,33
DA:202,33
DA:205,0
DA:206,0
DA:207,0
DA:208,0
DA:211,3
DA:212,3
DA:213,3
DA:214,3
DA:217,1
DA:218,1
DA:219,1
DA:220,1
DA:223,1
DA:224,1
DA:225,1
DA:226,1
DA:227,0
DA:228,0
DA:229,0
DA:231,1
DA:232,1
DA:235,0
DA:236,0
DA:237,0
DA:238,0
DA:241,0
DA:242,0
DA:243,0
DA:244,0
DA:251,0
DA:252,0
DA:253,0
DA:260,0
DA:261,0
DA:262,0
DA:269,0
DA:270,0
DA:271,0
DA:275,0
DA:276,0
DA:277,0
DA:286,1
DA:287,1
DA:288,1
DA:289,1
DA:290,1
DA:291,1
DA:294,1
DA:295,1
DA:296,1
DA:297,1
DA:298,1
DA:299,1
DA:302,1
DA:303,1
DA:304,1
DA:305,1
DA:306,1
DA:307,1
DA:308,1
DA:309,1
DA:310,1
DA:311,1
DA:314,1
DA:315,1
DA:316,1
DA:317,1
DA:318,1
DA:321,1
DA:322,1
DA:323,1
DA:324,1
DA:325,1
BRF:0
BRH:0
LF:175
LH:112
end_of_record
SF:/home/tasuku/com/github/signal-slot/embedded-charts/src/axes/ticks.rs
FN:205,_RINvMNtNtCs1I4G5KWFz5n_15embedded_charts4axes5ticksNtB3_19LinearTickGenerator20generate_minor_tickspEB7_
FN:311,_RNvMs0_NtNtCs1I4G5KWFz5n_15embedded_charts4axes5ticksINtB5_19CustomTickGeneratorpE5clearB9_
FN:371,_RNvMs3_NtNtCs1I4G5KWFz5n_15embedded_charts4axes5ticksNtB5_16LogTickGenerator16with_minor_ticks
FN:355,_RNvMs3_NtNtCs1I4G5KWFz5n_15embedded_charts4axes5ticksNtB5_16LogTickGenerator3new
FN:363,_RNvMs3_NtNtCs1I4G5KWFz5n_15embedded_charts4axes5ticksNtB5_16LogTickGenerator9with_base
FN:329,_RNvXININtNtCs1I4G5KWFz5n_15embedded_charts4axes5tickss1_0pEINtB5_19CustomTickGeneratorpEINtNtB7_6traits13TickGeneratorpE20preferred_tick_countB9_
FN:333,_RNvXININtNtCs1I4G5KWFz5n_15embedded_charts4axes5tickss1_0pEINtB5_19CustomTickGeneratorpEINtNtB7_6traits13TickGeneratorpE24set_preferred_tick_countB9_
FN:339,_RNvXININtNtCs1I4G5KWFz5n_15embedded_charts4axes5tickss2_0pEINtB5_19CustomTickGeneratorpENtNtCs3XRySYX51hI_4core7default7Default7defaultB9_
FN:272,_RNvXININtNtCs1I4G5KWFz5n_15embedded_charts4axes5tickss_0pENtB5_19LinearTickGeneratorINtNtB7_6traits13TickGeneratorpE20preferred_tick_countB9_
FN:378,_RNvXs4_NtNtCs1I4G5KWFz5n_15embedded_charts4axes5ticksNtB5_16LogTickGeneratorINtNtB7_6traits13TickGeneratorfE14generate_ticks
FN:454,_RNvXs4_NtNtCs1I4G5KWFz5n_15embedded_charts4axes5ticksNtB5_16LogTickGeneratorINtNtB7_6traits13TickGeneratorfE20preferred_tick_count
FN:458,_RNvXs4_NtNtCs1I4G5KWFz5n_15embedded_charts4axes5ticksNtB5_16LogTickGeneratorINtNtB7_6traits13TickGeneratorfE24set_preferred_tick_count
FN:464,_RNvXs5_NtNtCs1I4G5KWFz5n_15embedded_charts4axes5ticksNtB5_16LogTickGeneratorNtNtCs3XRySYX51hI_4core7default7Default7default
FN:506,_RNvNtNtNtCs1I4G5KWFz5n_15embedded_charts4axes5ticks5testss_26test_custom_tick_generator
FN:516,_RNCNvNtNtNtCs1I4G5KWFz5n_15embedded_charts4axes5ticks5testss_26test_custom_tick_generator0B9_
FN:32,_RNvMNtNtCs1I4G5KWFz5n_15embedded_charts4axes5ticksNtB2_19LinearTickGenerator16with_minor_ticks
FN:39,_RNvMNtNtCs1I4G5KWFz5n_15embedded_charts4axes5ticksNtB2_19LinearTickGenerator19without_minor_ticks
FN:20,_RNvMNtNtCs1I4G5KWFz5n_15embedded_charts4axes5ticksNtB2_19LinearTickGenerator3new
FN:45,_RINvMNtNtCs1I4G5KWFz5n_15embedded_charts4axes5ticksNtB3_19LinearTickGenerator19calculate_nice_stepfEB7_
FN:105,_RINvMNtNtCs1I4G5KWFz5n_15embedded_charts4axes5ticksNtB3_19LinearTickGenerator20generate_major_ticksfEB7_
FN:162,_RINvMNtNtCs1I4G5KWFz5n_15embedded_charts4axes5ticksNtB3_19LinearTickGenerator30generate_minor_ticks_for_rangefEB7_
FN:295,_RNvMs0_NtNtCs1I4G5KWFz5n_15embedded_charts4axes5ticksINtB5_19CustomTickGeneratorfE14add_major_tickB9_
FN:303,_RNvMs0_NtNtCs1I4G5KWFz5n_15embedded_charts4axes5ticksINtB5_19CustomTickGeneratorfE14add_minor_tickB9_
FN:290,_RNvMs0_NtNtCs1I4G5KWFz5n_15embedded_charts4axes5ticksINtB5_19CustomTickGeneratorfE3newB9_
FN:317,_RNvXs1_NtNtCs1I4G5KWFz5n_15embedded_charts4axes5ticksINtB5_19CustomTickGeneratorfEINtNtB7_6traits13TickGeneratorfE14generate_ticksB9_
FN:233,_RNvXs_NtNtCs1I4G5KWFz5n_15embedded_charts4axes5ticksNtB4_19LinearTickGeneratorINtNtB6_6traits13TickGeneratorfE14generate_ticksB8_
FN:276,_RNvXs_NtNtCs1I4G5KWFz5n_15embedded_charts4axes5ticksNtB4_19LinearTickGeneratorINtNtB6_6traits13TickGeneratorfE24set_preferred_tick_countB8_
FNDA:0,_RINvMNtNtCs1I4G5KWFz5n_15embedded_charts4axes5ticksNtB3_19LinearTickGenerator20generate_minor_tickspEB7_
FNDA:0,_RNvMs0_NtNtCs1I4G5KWFz5n_15embedded_charts4axes5ticksINtB5_19CustomTickGeneratorpE5clearB9_
FNDA:0,_RNvMs3_NtNtCs1I4G5KWFz5n_15embedded_charts4axes5ticksNtB5_16LogTickGenerator16with_minor_ticks
FNDA:0,_RNvMs3_NtNtCs1I4G5KWFz5n_15embedded_charts4axes5ticksNtB5_16LogTickGenerator3new
FNDA:0,_RNvMs3_NtNtCs1I4G5KWFz5n_15embedded_charts4axes5ticksNtB5_16LogTickGenerator9with_base
FNDA:0,_RNvXININtNtCs1I4G5KWFz5n_15embedded_charts4axes5tickss1_0pEINtB5_19CustomTickGeneratorpEINtNtB7_6traits13TickGeneratorpE20preferred_tick_countB9_
FNDA:0,_RNvXININtNtCs1I4G5KWFz5n_15embedded_charts4axes5tickss1_0pEINtB5_19CustomTickGeneratorpEINtNtB7_6traits13TickGeneratorpE24set_preferred_tick_countB9_
FNDA:0,_RNvXININtNtCs1I4G5KWFz5n_15embedded_charts4axes5tickss2_0pEINtB5_19CustomTickGeneratorpENtNtCs3XRySYX51hI_4core7default7Default7defaultB9_
FNDA:0,_RNvXININtNtCs1I4G5KWFz5n_15embedded_charts4axes5tickss_0pENtB5_19LinearTickGeneratorINtNtB7_6traits13TickGeneratorpE20preferred_tick_countB9_
FNDA:0,_RNvXs4_NtNtCs1I4G5KWFz5n_15embedded_charts4axes5ticksNtB5_16LogTickGeneratorINtNtB7_6traits13TickGeneratorfE14generate_ticks
FNDA:0,_RNvXs4_NtNtCs1I4G5KWFz5n_15embedded_charts4axes5ticksNtB5_16LogTickGeneratorINtNtB7_6traits13TickGeneratorfE20preferred_tick_count
FNDA:0,_RNvXs4_NtNtCs1I4G5KWFz5n_15embedded_charts4axes5ticksNtB5_16LogTickGeneratorINtNtB7_6traits13TickGeneratorfE24set_preferred_tick_count
FNDA:0,_RNvXs5_NtNtCs1I4G5KWFz5n_15embedded_charts4axes5ticksNtB5_16LogTickGeneratorNtNtCs3XRySYX51hI_4core7default7Default7default
FNDA:1,_RNvNtNtNtCs1I4G5KWFz5n_15embedded_charts4axes5ticks5testss_26test_custom_tick_generator
FNDA:4,_RNCNvNtNtNtCs1I4G5KWFz5n_15embedded_charts4axes5ticks5testss_26test_custom_tick_generator0B9_
FNDA:1,_RNvMNtNtCs1I4G5KWFz5n_15embedded_charts4axes5ticksNtB2_19LinearTickGenerator16with_minor_ticks
FNDA:1,_RNvMNtNtCs1I4G5KWFz5n_15embedded_charts4axes5ticksNtB2_19LinearTickGenerator19without_minor_ticks
FNDA:27,_RNvMNtNtCs1I4G5KWFz5n_15embedded_charts4axes5ticksNtB2_19LinearTickGenerator3new
FNDA:2,_RINvMNtNtCs1I4G5KWFz5n_15embedded_charts4axes5ticksNtB3_19LinearTickGenerator19calculate_nice_stepfEB7_
FNDA:2,_RINvMNtNtCs1I4G5KWFz5n_15embedded_charts4axes5ticksNtB3_19LinearTickGenerator20generate_major_ticksfEB7_
FNDA:0,_RINvMNtNtCs1I4G5KWFz5n_15embedded_charts4axes5ticksNtB3_19LinearTickGenerator30generate_minor_ticks_for_rangefEB7_
FNDA:6,_RNvMs0_NtNtCs1I4G5KWFz5n_15embedded_charts4axes5ticksINtB5_19CustomTickGeneratorfE14add_major_tickB9_
FNDA:3,_RNvMs0_NtNtCs1I4G5KWFz5n_15embedded_charts4axes5ticksINtB5_19CustomTickGeneratorfE14add_minor_tickB9_
FNDA:2,_RNvMs0_NtNtCs1I4G5KWFz5n_15embedded_charts4axes5ticksINtB5_19CustomTickGeneratorfE3newB9_
FNDA:1,_RNvXs1_NtNtCs1I4G5KWFz5n_15embedded_charts4axes5ticksINtB5_19CustomTickGeneratorfEINtNtB7_6traits13TickGeneratorfE14generate_ticksB9_
FNDA:2,_RNvXs_NtNtCs1I4G5KWFz5n_15embedded_charts4axes5ticksNtB4_19LinearTickGeneratorINtNtB6_6traits13TickGeneratorfE14generate_ticksB8_
FNDA:3,_RNvXs_NtNtCs1I4G5KWFz5n_15embedded_charts4axes5ticksNtB4_19LinearTickGeneratorINtNtB6_6traits13TickGeneratorfE24set_preferred_tick_countB8_
FNF:27
FNH:13
DA:20,27
DA:21,27
DA:22,27
DA:23,27
DA:24,27
DA:25,27
DA:26,27
DA:32,1
DA:33,1
DA:34,1
DA:35,1
DA:36,1
DA:39,1
DA:40,1
DA:41,1
DA:42,1
DA:45,2
DA:46,2
DA:47,2
DA:48,2
DA:49,2
DA:50,2
DA:51,2
DA:52,0
DA:53,2
DA:54,2
DA:55,2
DA:56,0
DA:57,2
DA:58,2
DA:59,2
DA:60,2
DA:61,2
DA:62,2
DA:63,0
DA:64,2
DA:65,2
DA:66,2
DA:67,2
DA:68,2
DA:69,2
DA:70,2
DA:71,2
DA:72,2
DA:73,2
DA:74,2
DA:75,2
DA:76,2
DA:78,2
DA:79,0
DA:80,2
DA:81,1
DA:82,1
DA:83,1
DA:85,0
DA:88,2
DA:89,2
DA:92,0
DA:94,2
DA:95,2
DA:96,2
DA:97,2
DA:98,0
DA:99,2
DA:100,2
DA:101,2
DA:102,2
DA:105,2
DA:106,2
DA:107,2
DA:108,2
DA:109,2
DA:110,2
DA:111,2
DA:112,2
DA:114,0
DA:115,0
DA:116,0
DA:117,0
DA:118,0
DA:119,0
DA:120,0
DA:121,2
DA:122,2
DA:123,2
DA:124,2
DA:125,2
DA:126,2
DA:127,2
DA:128,2
DA:129,2
DA:130,2
DA:131,2
DA:132,2
DA:133,2
DA:134,2
DA:135,2
DA:136,2
DA:138,7
DA:139,5
DA:140,5
DA:142,5
DA:143,5
DA:144,5
DA:145,5
DA:146,5
DA:148,5
DA:149,5
DA:150,5
DA:151,5
DA:152,5
DA:153,5
DA:154,0
DA:155,5
DA:158,2
DA:159,2
DA:162,0
DA:163,0
DA:164,0
DA:165,0
DA:166,0
DA:167,0
DA:168,0
DA:169,0
DA:170,0
DA:171,0
DA:172,0
DA:173,0
DA:174,0
DA:175,0
DA:176,0
DA:179,0
DA:180,0
DA:181,0
DA:182,0
DA:183,0
DA:184,0
DA:185,0
DA:187,0
DA:188,0
DA:190,0
DA:191,0
DA:192,0
DA:193,0
DA:194,0
DA:195,0
DA:197,0
DA:200,0
DA:201,0
DA:205,0
DA:206,0
DA:207,0
DA:208,0
DA:209,0
DA:210,0
DA:211,0
DA:212,0
DA:213,0
DA:214,0
DA:217,0
DA:218,0
DA:219,0
DA:220,0
DA:221,0
DA:222,0
DA:223,0
DA:225,0
DA:228,0
DA:229,0
DA:233,2
DA:234,2
DA:235,2
DA:236,2
DA:237,2
DA:240,7
DA:241,5
DA:242,5
DA:243,5
DA:247,2
DA:248,0
DA:250,0
DA:251,0
DA:252,0
DA:253,0
DA:257,0
DA:258,0
DA:259,0
DA:260,0
DA:261,0
DA:262,0
DA:263,0
DA:264,0
DA:267,2
DA:269,2
DA:270,2
DA:272,0
DA:273,0
DA:274,0
DA:276,3
DA:277,3
DA:278,3
DA:290,2
DA:291,2
DA:292,2
DA:295,6
DA:296,6
DA:297,6
DA:298,6
DA:299,6
DA:300,6
DA:303,3
DA:304,3
DA:305,3
DA:306,3
DA:307,3
DA:308,3
DA:311,0
DA:312,0
DA:313,0
DA:317,1
DA:318,1
DA:320,5
DA:321,4
DA:322,4
DA:323,4
DA:326,1
DA:327,1
DA:329,0
DA:330,0
DA:331,0
DA:333,0
DA:334,0
DA:335,0
DA:339,0
DA:340,0
DA:341,0
DA:355,0
DA:356,0
DA:357,0
DA:358,0
DA:359,0
DA:360,0
DA:363,0
DA:364,0
DA:365,0
DA:366,0
DA:367,0
DA:368,0
DA:371,0
DA:372,0
DA:373,0
DA:374,0
DA:378,0
DA:379,0
DA:380,0
DA:381,0
DA:382,0
DA:383,0
DA:384,0
DA:385,0
DA:386,0
DA:387,0
DA:388,0
DA:389,0
DA:390,0
DA:391,0
DA:392,0
DA:393,0
DA:395,0
DA:396,0
DA:397,0
DA:398,0
DA:399,0
DA:400,0
DA:401,0
DA:402,0
DA:403,0
DA:405,0
DA:406,0
DA:407,0
DA:408,0
DA:409,0
DA:410,0
DA:411,0
DA:412,0
DA:413,0
DA:414,0
DA:415,0
DA:416,0
DA:417,0
DA:419,0
DA:420,0
DA:421,0
DA:422,0
DA:423,0
DA:424,0
DA:425,0
DA:426,0
DA:427,0
DA:428,0
DA:429,0
DA:430,0
DA:431,0
DA:432,0
DA:433,0
DA:435,0
DA:436,0
DA:437,0
DA:438,0
DA:439,0
DA:440,0
DA:441,0
DA:443,0
DA:444,0
DA:445,0
DA:446,0
DA:447,0
DA:448,0
DA:451,0
DA:452,0
DA:454,0
DA:455,0
DA:456,0
DA:458,0
DA:459,0
DA:460,0
DA:464,0
DA:465,0
DA:466,0
DA:506,1
DA:507,1
DA:508,1
DA:509,1
DA:510,1
DA:511,1
DA:512,1
DA:513,1
DA:514,1
DA:516,4
DA:517,1
DA:518,1
BRF:0
BRH:0
LF:342
LH:153
end_of_record
SF:/home/tasuku/com/github/signal-slot/embedded-charts/src/axes/traits.rs
FN:174,_RNvMNtNtCs1I4G5KWFz5n_15embedded_charts4axes6traitsINtB2_4TickpE15major_unlabeledB6_
FN:333,_RNvXs0_NtNtCs1I4G5KWFz5n_15embedded_charts4axes6traitslNtB5_9AxisValue6format
FN:291,_RNvXs0_NtNtCs1I4G5KWFz5n_15embedded_charts4axes6traitslNtB5_9AxisValue6to_f32
FN:295,_RNvXs0_NtNtCs1I4G5KWFz5n_15embedded_charts4axes6traitslNtB5_9AxisValue8from_f32
FN:301,_RNvXs0_NtNtCs1I4G5KWFz5n_15embedded_charts4axes6traitslNtB5_9AxisValue9nice_step
FN:207,_RNvXs_NtNtCs1I4G5KWFz5n_15embedded_charts4axes6traitsfNtB4_9AxisValue9nice_step
FN:156,_RNvMNtNtCs1I4G5KWFz5n_15embedded_charts4axes6traitsINtB2_4TickdE5majorB6_
FN:165,_RNvMNtNtCs1I4G5KWFz5n_15embedded_charts4axes6traitsINtB2_4TickdE5minorB6_
FN:156,_RNvMNtNtCs1I4G5KWFz5n_15embedded_charts4axes6traitsINtB2_4TickfE5majorB6_
FN:165,_RNvMNtNtCs1I4G5KWFz5n_15embedded_charts4axes6traitsINtB2_4TickfE5minorB6_
FN:360,_RNvNtNtNtCs1I4G5KWFz5n_15embedded_charts4axes6traits5testss_18test_tick_creation
FN:238,_RNvXs_NtNtCs1I4G5KWFz5n_15embedded_charts4axes6traitsfNtB4_9AxisValue6format
FN:199,_RNvXs_NtNtCs1I4G5KWFz5n_15embedded_charts4axes6traitsfNtB4_9AxisValue6to_f32
FN:203,_RNvXs_NtNtCs1I4G5KWFz5n_15embedded_charts4axes6traitsfNtB4_9AxisValue8from_f32
FNDA:0,_RNvMNtNtCs1I4G5KWFz5n_15embedded_charts4axes6traitsINtB2_4TickpE15major_unlabeledB6_
FNDA:0,_RNvXs0_NtNtCs1I4G5KWFz5n_15embedded_charts4axes6traitslNtB5_9AxisValue6format
FNDA:0,_RNvXs0_NtNtCs1I4G5KWFz5n_15embedded_charts4axes6traitslNtB5_9AxisValue6to_f32
FNDA:0,_RNvXs0_NtNtCs1I4G5KWFz5n_15embedded_charts4axes6traitslNtB5_9AxisValue8from_f32
FNDA:0,_RNvXs0_NtNtCs1I4G5KWFz5n_15embedded_charts4axes6traitslNtB5_9AxisValue9nice_step
FNDA:0,_RNvXs_NtNtCs1I4G5KWFz5n_15embedded_charts4axes6traitsfNtB4_9AxisValue9nice_step
FNDA:1,_RNvMNtNtCs1I4G5KWFz5n_15embedded_charts4axes6traitsINtB2_4TickdE5majorB6_
FNDA:1,_RNvMNtNtCs1I4G5KWFz5n_15embedded_charts4axes6traitsINtB2_4TickdE5minorB6_
FNDA:11,_RNvMNtNtCs1I4G5KWFz5n_15embedded_charts4axes6traitsINtB2_4TickfE5majorB6_
FNDA:3,_RNvMNtNtCs1I4G5KWFz5n_15embedded_charts4axes6traitsINtB2_4TickfE5minorB6_
FNDA:1,_RNvNtNtNtCs1I4G5KWFz5n_15embedded_charts4axes6traits5testss_18test_tick_creation
FNDA:5,_RNvXs_NtNtCs1I4G5KWFz5n_15embedded_charts4axes6traitsfNtB4_9AxisValue6format
FNDA:104,_RNvXs_NtNtCs1I4G5KWFz5n_15embedded_charts4axes6traitsfNtB4_9AxisValue6to_f32
FNDA:11,_RNvXs_NtNtCs1I4G5KWFz5n_15embedded_charts4axes6traitsfNtB4_9AxisValue8from_f32
FNF:12
FNH:6
DA:156,12
DA:157,12
DA:158,12
DA:159,12
DA:160,12
DA:161,12
DA:162,12
DA:165,4
DA:166,4
DA:167,4
DA:168,4
DA:169,4
DA:170,4
DA:171,4
DA:174,0
DA:175,0
DA:176,0
DA:177,0
DA:178,0
DA:179,0
DA:180,0
DA:199,104
DA:200,104
DA:201,104
DA:203,11
DA:204,11
DA:205,11
DA:207,0
DA:208,0
DA:209,0
DA:210,0
DA:211,0
DA:212,0
DA:213,0
DA:214,0
DA:215,0
DA:216,0
DA:217,0
DA:219,0
DA:220,0
DA:221,0
DA:222,0
DA:223,0
DA:224,0
DA:226,0
DA:229,0
DA:230,0
DA:233,0
DA:235,0
DA:236,0
DA:238,5
DA:239,5
DA:240,5
DA:241,5
DA:242,5
DA:243,5
DA:244,5
DA:246,2
DA:247,2
DA:248,2
DA:249,2
DA:250,2
DA:251,0
DA:252,0
DA:253,0
DA:254,0
DA:255,0
DA:256,0
DA:257,0
DA:258,0
DA:259,0
DA:260,0
DA:261,0
DA:262,0
DA:264,2
DA:267,3
DA:268,3
DA:269,3
DA:270,0
DA:271,0
DA:272,3
DA:273,3
DA:274,9
DA:275,6
DA:276,6
DA:277,6
DA:278,3
DA:279,0
DA:280,3
DA:281,6
DA:282,6
DA:283,6
DA:285,3
DA:287,5
DA:291,0
DA:292,0
DA:293,0
DA:295,0
DA:296,0
DA:297,0
DA:298,0
DA:299,0
DA:301,0
DA:302,0
DA:303,0
DA:304,0
DA:305,0
DA:306,0
DA:307,0
DA:308,0
DA:309,0
DA:310,0
DA:311,0
DA:313,0
DA:314,0
DA:315,0
DA:316,0
DA:317,0
DA:318,0
DA:320,0
DA:323,0
DA:324,0
DA:327,0
DA:329,0
DA:330,0
DA:331,0
DA:333,0
DA:334,0
DA:335,0
DA:336,0
DA:337,0
DA:338,0
DA:339,0
DA:340,0
DA:341,0
DA:342,0
DA:343,0
DA:344,0
DA:345,0
DA:346,0
DA:347,0
DA:348,0
DA:349,0
DA:351,0
DA:352,0
DA:360,1
DA:361,1
DA:362,1
DA:363,1
DA:364,1
DA:366,1
DA:367,1
DA:368,1
DA:369,1
DA:370,1
BRF:0
BRH:0
LF:155
LH:59
end_of_record
SF:/home/tasuku/com/github/signal-slot/embedded-charts/src/chart/bar.rs
FN:515,_RINvMNtNtCs1I4G5KWFz5n_15embedded_charts5chart3barINtB3_8BarChartpE8draw_barpEB7_
FN:570,_RINvXININtNtCs1I4G5KWFz5n_15embedded_charts5chart3bars0_0pEINtB6_8BarChartpEINtNtB8_6traits5ChartpE4drawpEBa_
FN:893,_RINvXININtNtCs1I4G5KWFz5n_15embedded_charts5chart3bars7_0pEINtB6_16AnimatedBarChartpEINtNtB8_6traits5ChartpE4drawpEBa_
FN:926,_RINvXININtNtCs1I4G5KWFz5n_15embedded_charts5chart3bars8_0pEINtB6_16AnimatedBarChartpEINtNtB8_6traits13AnimatedChartpE13draw_animatedpEBa_
FN:535,_RNCINvMNtNtCs1I4G5KWFz5n_15embedded_charts5chart3barINtB5_8BarChartpE8draw_barpE0B9_
FN:546,_RNCINvMNtNtCs1I4G5KWFz5n_15embedded_charts5chart3barINtB5_8BarChartpE8draw_barpEs_0B9_
FN:593,_RNCINvXININtNtCs1I4G5KWFz5n_15embedded_charts5chart3bars0_0pEINtB8_8BarChartpEINtNtBa_6traits5ChartpE4drawpE0Bc_
FN:507,_RNCNvMNtNtCs1I4G5KWFz5n_15embedded_charts5chart3barINtB4_8BarChartpE20calculate_bar_layout0B8_
FN:867,_RNCNvMs5_NtNtCs1I4G5KWFz5n_15embedded_charts5chart3barINtB7_16AnimatedBarChartpE16interpolate_data0Bb_
FN:405,_RNvMNtNtCs1I4G5KWFz5n_15embedded_charts5chart3barINtB2_8BarChartpE10set_configB6_
FN:415,_RNvMNtNtCs1I4G5KWFz5n_15embedded_charts5chart3barINtB2_8BarChartpE15set_orientationB6_
FN:425,_RNvMNtNtCs1I4G5KWFz5n_15embedded_charts5chart3barINtB2_8BarChartpE20calculate_bar_layoutB6_
FN:381,_RNvMNtNtCs1I4G5KWFz5n_15embedded_charts5chart3barINtB2_8BarChartpE9set_styleB6_
FN:683,_RNvMs2_NtNtCs1I4G5KWFz5n_15embedded_charts5chart3barINtB5_15BarChartBuilderpE11with_borderB9_
FN:703,_RNvMs2_NtNtCs1I4G5KWFz5n_15embedded_charts5chart3barINtB5_15BarChartBuilderpE16background_colorB9_
FN:689,_RNvMs2_NtNtCs1I4G5KWFz5n_15embedded_charts5chart3barINtB5_15BarChartBuilderpE7stackedB9_
FN:818,_RNvMs5_NtNtCs1I4G5KWFz5n_15embedded_charts5chart3barINtB5_16AnimatedBarChartpE10set_configB9_
FN:833,_RNvMs5_NtNtCs1I4G5KWFz5n_15embedded_charts5chart3barINtB5_16AnimatedBarChartpE11orientationB9_
FN:838,_RNvMs5_NtNtCs1I4G5KWFz5n_15embedded_charts5chart3barINtB5_16AnimatedBarChartpE15get_render_dataB9_
FN:828,_RNvMs5_NtNtCs1I4G5KWFz5n_15embedded_charts5chart3barINtB5_16AnimatedBarChartpE15set_orientationB9_
FN:846,_RNvMs5_NtNtCs1I4G5KWFz5n_15embedded_charts5chart3barINtB5_16AnimatedBarChartpE16interpolate_dataB9_
FN:795,_RNvMs5_NtNtCs1I4G5KWFz5n_15embedded_charts5chart3barINtB5_16AnimatedBarChartpE3newB9_
FN:813,_RNvMs5_NtNtCs1I4G5KWFz5n_15embedded_charts5chart3barINtB5_16AnimatedBarChartpE5styleB9_
FN:823,_RNvMs5_NtNtCs1I4G5KWFz5n_15embedded_charts5chart3barINtB5_16AnimatedBarChartpE6configB9_
FN:803,_RNvMs5_NtNtCs1I4G5KWFz5n_15embedded_charts5chart3barINtB5_16AnimatedBarChartpE7builderB9_
FN:808,_RNvMs5_NtNtCs1I4G5KWFz5n_15embedded_charts5chart3barINtB5_16AnimatedBarChartpE9set_styleB9_
FN:978,_RNvMs9_NtNtCs1I4G5KWFz5n_15embedded_charts5chart3barINtB5_23AnimatedBarChartBuilderpE10frame_rateB9_
FN:1020,_RNvMs9_NtNtCs1I4G5KWFz5n_15embedded_charts5chart3barINtB5_23AnimatedBarChartBuilderpE10with_titleB9_
FN:984,_RNvMs9_NtNtCs1I4G5KWFz5n_15embedded_charts5chart3barINtB5_23AnimatedBarChartBuilderpE11orientationB9_
FN:1008,_RNvMs9_NtNtCs1I4G5KWFz5n_15embedded_charts5chart3barINtB5_23AnimatedBarChartBuilderpE11with_borderB9_
FN:1026,_RNvMs9_NtNtCs1I4G5KWFz5n_15embedded_charts5chart3barINtB5_23AnimatedBarChartBuilderpE16background_colorB9_
FN:970,_RNvMs9_NtNtCs1I4G5KWFz5n_15embedded_charts5chart3barINtB5_23AnimatedBarChartBuilderpE3newB9_
FN:1032,_RNvMs9_NtNtCs1I4G5KWFz5n_15embedded_charts5chart3barINtB5_23AnimatedBarChartBuilderpE5buildB9_
FN:990,_RNvMs9_NtNtCs1I4G5KWFz5n_15embedded_charts5chart3barINtB5_23AnimatedBarChartBuilderpE6colorsB9_
FN:1002,_RNvMs9_NtNtCs1I4G5KWFz5n_15embedded_charts5chart3barINtB5_23AnimatedBarChartBuilderpE7spacingB9_
FN:1014,_RNvMs9_NtNtCs1I4G5KWFz5n_15embedded_charts5chart3barINtB5_23AnimatedBarChartBuilderpE7stackedB9_
FN:996,_RNvMs9_NtNtCs1I4G5KWFz5n_15embedded_charts5chart3barINtB5_23AnimatedBarChartBuilderpE9bar_widthB9_
FN:729,_RNvXININtNtCs1I4G5KWFz5n_15embedded_charts5chart3bars4_0pEINtB5_15BarChartBuilderpENtNtCs3XRySYX51hI_4core7default7Default7defaultB9_
FN:880,_RNvXININtNtCs1I4G5KWFz5n_15embedded_charts5chart3bars6_0pEINtB5_16AnimatedBarChartpENtNtCs3XRySYX51hI_4core7default7Default7defaultB9_
FN:950,_RNvXININtNtCs1I4G5KWFz5n_15embedded_charts5chart3bars8_0pEINtB5_16AnimatedBarChartpEINtNtB7_6traits13AnimatedChartpE21extract_animated_dataB9_
FN:941,_RNvXININtNtCs1I4G5KWFz5n_15embedded_charts5chart3bars8_0pEINtB5_16AnimatedBarChartpEINtNtB7_6traits13AnimatedChartpE26create_transition_animatorB9_
FN:558,_RNvXININtNtCs1I4G5KWFz5n_15embedded_charts5chart3bars_0pEINtB5_8BarChartpENtNtCs3XRySYX51hI_4core7default7Default7defaultB9_
FN:1047,_RNvXININtNtCs1I4G5KWFz5n_15embedded_charts5chart3barsa_0pEINtB5_23AnimatedBarChartBuilderpENtNtCs3XRySYX51hI_4core7default7Default7defaultB9_
FN:420,_RNvMNtNtCs1I4G5KWFz5n_15embedded_charts5chart3barINtB2_8BarChartNtNtNtCshH4H1wHMe2V_22embedded_graphics_core10pixelcolor9rgb_color6Rgb565E11orientationB6_
FN:321,_RNvMNtNtCs1I4G5KWFz5n_15embedded_charts5chart3barINtB2_8BarChartNtNtNtCshH4H1wHMe2V_22embedded_graphics_core10pixelcolor9rgb_color6Rgb565E3newB6_
FN:393,_RNvMNtNtCs1I4G5KWFz5n_15embedded_charts5chart3barINtB2_8BarChartNtNtNtCshH4H1wHMe2V_22embedded_graphics_core10pixelcolor9rgb_color6Rgb565E5styleB6_
FN:410,_RNvMNtNtCs1I4G5KWFz5n_15embedded_charts5chart3barINtB2_8BarChartNtNtNtCshH4H1wHMe2V_22embedded_graphics_core10pixelcolor9rgb_color6Rgb565E6configB6_
FN:348,_RNvMNtNtCs1I4G5KWFz5n_15embedded_charts5chart3barINtB2_8BarChartNtNtNtCshH4H1wHMe2V_22embedded_graphics_core10pixelcolor9rgb_color6Rgb565E7builderB6_
FN:695,_RNvMs2_NtNtCs1I4G5KWFz5n_15embedded_charts5chart3barINtB5_15BarChartBuilderNtNtNtCshH4H1wHMe2V_22embedded_graphics_core10pixelcolor9rgb_color6Rgb565E10with_titleB9_
FN:654,_RNvMs2_NtNtCs1I4G5KWFz5n_15embedded_charts5chart3barINtB5_15BarChartBuilderNtNtNtCshH4H1wHMe2V_22embedded_graphics_core10pixelcolor9rgb_color6Rgb565E11orientationB9_
FN:645,_RNvMs2_NtNtCs1I4G5KWFz5n_15embedded_charts5chart3barINtB5_15BarChartBuilderNtNtNtCshH4H1wHMe2V_22embedded_graphics_core10pixelcolor9rgb_color6Rgb565E3newB9_
FN:660,_RNvMs2_NtNtCs1I4G5KWFz5n_15embedded_charts5chart3barINtB5_15BarChartBuilderNtNtNtCshH4H1wHMe2V_22embedded_graphics_core10pixelcolor9rgb_color6Rgb565E6colorsB9_
FN:677,_RNvMs2_NtNtCs1I4G5KWFz5n_15embedded_charts5chart3barINtB5_15BarChartBuilderNtNtNtCshH4H1wHMe2V_22embedded_graphics_core10pixelcolor9rgb_color6Rgb565E7spacingB9_
FN:671,_RNvMs2_NtNtCs1I4G5KWFz5n_15embedded_charts5chart3barINtB5_15BarChartBuilderNtNtNtCshH4H1wHMe2V_22embedded_graphics_core10pixelcolor9rgb_color6Rgb565E9bar_widthB9_
FN:615,_RNvXs1_NtNtCs1I4G5KWFz5n_15embedded_charts5chart3barINtB5_13BarChartStyleNtNtNtCshH4H1wHMe2V_22embedded_graphics_core10pixelcolor9rgb_color6Rgb565ENtNtCs3XRySYX51hI_4core7default7Default7defaultB9_
FN:716,_RNvXs3_NtNtCs1I4G5KWFz5n_15embedded_charts5chart3barINtB5_15BarChartBuilderNtNtNtCshH4H1wHMe2V_22embedded_graphics_core10pixelcolor9rgb_color6Rgb565EINtNtB7_6traits12ChartBuilderB1b_E5buildB9_
FN:761,_RNCNvNtNtNtCs1I4G5KWFz5n_15embedded_charts5chart3bar5testss_22test_bar_chart_builder0B9_
FN:767,_RNvNtNtNtCs1I4G5KWFz5n_15embedded_charts5chart3bar5testss_20test_bar_width_types
FN:747,_RNvNtNtNtCs1I4G5KWFz5n_15embedded_charts5chart3bar5testss_22test_bar_chart_builder
FN:740,_RNvNtNtNtCs1I4G5KWFz5n_15embedded_charts5chart3bar5testss_23test_bar_chart_creation
FNDA:0,_RINvMNtNtCs1I4G5KWFz5n_15embedded_charts5chart3barINtB3_8BarChartpE8draw_barpEB7_
FNDA:0,_RINvXININtNtCs1I4G5KWFz5n_15embedded_charts5chart3bars0_0pEINtB6_8BarChartpEINtNtB8_6traits5ChartpE4drawpEBa_
FNDA:0,_RINvXININtNtCs1I4G5KWFz5n_15embedded_charts5chart3bars7_0pEINtB6_16AnimatedBarChartpEINtNtB8_6traits5ChartpE4drawpEBa_
FNDA:0,_RINvXININtNtCs1I4G5KWFz5n_15embedded_charts5chart3bars8_0pEINtB6_16AnimatedBarChartpEINtNtB8_6traits13AnimatedChartpE13draw_animatedpEBa_
FNDA:0,_RNCINvMNtNtCs1I4G5KWFz5n_15embedded_charts5chart3barINtB5_8BarChartpE8draw_barpE0B9_
FNDA:0,_RNCINvMNtNtCs1I4G5KWFz5n_15embedded_charts5chart3barINtB5_8BarChartpE8draw_barpEs_0B9_
FNDA:0,_RNCINvXININtNtCs1I4G5KWFz5n_15embedded_charts5chart3bars0_0pEINtB8_8BarChartpEINtNtBa_6traits5ChartpE4drawpE0Bc_
FNDA:0,_RNCNvMNtNtCs1I4G5KWFz5n_15embedded_charts5chart3barINtB4_8BarChartpE20calculate_bar_layout0B8_
FNDA:0,_RNCNvMs5_NtNtCs1I4G5KWFz5n_15embedded_charts5chart3barINtB7_16AnimatedBarChartpE16interpolate_data0Bb_
FNDA:0,_RNvMNtNtCs1I4G5KWFz5n_15embedded_charts5chart3barINtB2_8BarChartpE10set_configB6_
FNDA:0,_RNvMNtNtCs1I4G5KWFz5n_15embedded_charts5chart3barINtB2_8BarChartpE15set_orientationB6_
FNDA:0,_RNvMNtNtCs1I4G5KWFz5n_15embedded_charts5chart3barINtB2_8BarChartpE20calculate_bar_layoutB6_
FNDA:0,_RNvMNtNtCs1I4G5KWFz5n_15embedded_charts5chart3barINtB2_8BarChartpE9set_styleB6_
FNDA:0,_RNvMs2_NtNtCs1I4G5KWFz5n_15embedded_charts5chart3barINtB5_15BarChartBuilderpE11with_borderB9_
FNDA:0,_RNvMs2_NtNtCs1I4G5KWFz5n_15embedded_charts5chart3barINtB5_15BarChartBuilderpE16background_colorB9_
FNDA:0,_RNvMs2_NtNtCs1I4G5KWFz5n_15embedded_charts5chart3barINtB5_15BarChartBuilderpE7stackedB9_
FNDA:0,_RNvMs5_NtNtCs1I4G5KWFz5n_15embedded_charts5chart3barINtB5_16AnimatedBarChartpE10set_configB9_
FNDA:0,_RNvMs5_NtNtCs1I4G5KWFz5n_15embedded_charts5chart3barINtB5_16AnimatedBarChartpE11orientationB9_
FNDA:0,_RNvMs5_NtNtCs1I4G5KWFz5n_15embedded_charts5chart3barINtB5_16AnimatedBarChartpE15get_render_dataB9_
FNDA:0,_RNvMs5_NtNtCs1I4G5KWFz5n_15embedded_charts5chart3barINtB5_16AnimatedBarChartpE15set_orientationB9_
FNDA:0,_RNvMs5_NtNtCs1I4G5KWFz5n_15embedded_charts5chart3barINtB5_16AnimatedBarChartpE16interpolate_dataB9_
FNDA:0,_RNvMs5_NtNtCs1I4G5KWFz5n_15embedded_charts5chart3barINtB5_16AnimatedBarChartpE3newB9_
FNDA:0,_RNvMs5_NtNtCs1I4G5KWFz5n_15embedded_charts5chart3barINtB5_16AnimatedBarChartpE5styleB9_
FNDA:0,_RNvMs5_NtNtCs1I4G5KWFz5n_15embedded_charts5chart3barINtB5_16AnimatedBarChartpE6configB9_
FNDA:0,_RNvMs5_NtNtCs1I4G5KWFz5n_15embedded_charts5chart3barINtB5_16AnimatedBarChartpE7builderB9_
FNDA:0,_RNvMs5_NtNtCs1I4G5KWFz5n_15embedded_charts5chart3barINtB5_16AnimatedBarChartpE9set_styleB9_
FNDA:0,_RNvMs9_NtNtCs1I4G5KWFz5n_15embedded_charts5chart3barINtB5_23AnimatedBarChartBuilderpE10frame_rateB9_
FNDA:0,_RNvMs9_NtNtCs1I4G5KWFz5n_15embedded_charts5chart3barINtB5_23AnimatedBarChartBuilderpE10with_titleB9_
FNDA:0,_RNvMs9_NtNtCs1I4G5KWFz5n_15embedded_charts5chart3barINtB5_23AnimatedBarChartBuilderpE11orientationB9_
FNDA:0,_RNvMs9_NtNtCs1I4G5KWFz5n_15embedded_charts5chart3barINtB5_23AnimatedBarChartBuilderpE11with_borderB9_
FNDA:0,_RNvMs9_NtNtCs1I4G5KWFz5n_15embedded_charts5chart3barINtB5_23AnimatedBarChartBuilderpE16background_colorB9_
FNDA:0,_RNvMs9_NtNtCs1I4G5KWFz5n_15embedded_charts5chart3barINtB5_23AnimatedBarChartBuilderpE3newB9_
FNDA:0,_RNvMs9_NtNtCs1I4G5KWFz5n_15embedded_charts5chart3barINtB5_23AnimatedBarChartBuilderpE5buildB9_
FNDA:0,_RNvMs9_NtNtCs1I4G5KWFz5n_15embedded_charts5chart3barINtB5_23AnimatedBarChartBuilderpE6colorsB9_
FNDA:0,_RNvMs9_NtNtCs1I4G5KWFz5n_15embedded_charts5chart3barINtB5_23AnimatedBarChartBuilderpE7spacingB9_
FNDA:0,_RNvMs9_NtNtCs1I4G5KWFz5n_15embedded_charts5chart3barINtB5_23AnimatedBarChartBuilderpE7stackedB9_
FNDA:0,_RNvMs9_NtNtCs1I4G5KWFz5n_15embedded_charts5chart3barINtB5_23AnimatedBarChartBuilderpE9bar_widthB9_
FNDA:0,_RNvXININtNtCs1I4G5KWFz5n_15embedded_charts5chart3bars4_0pEINtB5_15BarChartBuilderpENtNtCs3XRySYX51hI_4core7default7Default7defaultB9_
FNDA:0,_RNvXININtNtCs1I4G5KWFz5n_15embedded_charts5chart3bars6_0pEINtB5_16AnimatedBarChartpENtNtCs3XRySYX51hI_4core7default7Default7defaultB9_
FNDA:0,_RNvXININtNtCs1I4G5KWFz5n_15embedded_charts5chart3bars8_0pEINtB5_16AnimatedBarChartpEINtNtB7_6traits13AnimatedChartpE21extract_animated_dataB9_
FNDA:0,_RNvXININtNtCs1I4G5KWFz5n_15embedded_charts5chart3bars8_0pEINtB5_16AnimatedBarChartpEINtNtB7_6traits13AnimatedChartpE26create_transition_animatorB9_
FNDA:0,_RNvXININtNtCs1I4G5KWFz5n_15embedded_charts5chart3bars_0pEINtB5_8BarChartpENtNtCs3XRySYX51hI_4core7default7Default7defaultB9_
FNDA:0,_RNvXININtNtCs1I4G5KWFz5n_15embedded_charts5chart3barsa_0pEINtB5_23AnimatedBarChartBuilderpENtNtCs3XRySYX51hI_4core7default7Default7defaultB9_
FNDA:2,_RNvMNtNtCs1I4G5KWFz5n_15embedded_charts5chart3barINtB2_8BarChartNtNtNtCshH4H1wHMe2V_22embedded_graphics_core10pixelcolor9rgb_color6Rgb565E11orientationB6_
FNDA:1,_RNvMNtNtCs1I4G5KWFz5n_15embedded_charts5chart3barINtB2_8BarChartNtNtNtCshH4H1wHMe2V_22embedded_graphics_core10pixelcolor9rgb_color6Rgb565E3newB6_
FNDA:3,_RNvMNtNtCs1I4G5KWFz5n_15embedded_charts5chart3barINtB2_8BarChartNtNtNtCshH4H1wHMe2V_22embedded_graphics_core10pixelcolor9rgb_color6Rgb565E5styleB6_
FNDA:1,_RNvMNtNtCs1I4G5KWFz5n_15embedded_charts5chart3barINtB2_8BarChartNtNtNtCshH4H1wHMe2V_22embedded_graphics_core10pixelcolor9rgb_color6Rgb565E6configB6_
FNDA:1,_RNvMNtNtCs1I4G5KWFz5n_15embedded_charts5chart3barINtB2_8BarChartNtNtNtCshH4H1wHMe2V_22embedded_graphics_core10pixelcolor9rgb_color6Rgb565E7builderB6_
FNDA:1,_RNvMs2_NtNtCs1I4G5KWFz5n_15embedded_charts5chart3barINtB5_15BarChartBuilderNtNtNtCshH4H1wHMe2V_22embedded_graphics_core10pixelcolor9rgb_color6Rgb565E10with_titleB9_
FNDA:1,_RNvMs2_NtNtCs1I4G5KWFz5n_15embedded_charts5chart3barINtB5_15BarChartBuilderNtNtNtCshH4H1wHMe2V_22embedded_graphics_core10pixelcolor9rgb_color6Rgb565E11orientationB9_
FNDA:1,_RNvMs2_NtNtCs1I4G5KWFz5n_15embedded_charts5chart3barINtB5_15BarChartBuilderNtNtNtCshH4H1wHMe2V_22embedded_graphics_core10pixelcolor9rgb_color6Rgb565E3newB9_
FNDA:1,_RNvMs2_NtNtCs1I4G5KWFz5n_15embedded_charts5chart3barINtB5_15BarChartBuilderNtNtNtCshH4H1wHMe2V_22embedded_graphics_core10pixelcolor9rgb_color6Rgb565E6colorsB9_
FNDA:1,_RNvMs2_NtNtCs1I4G5KWFz5n_15embedded_charts5chart3barINtB5_15BarChartBuilderNtNtNtCshH4H1wHMe2V_22embedded_graphics_core10pixelcolor9rgb_color6Rgb565E7spacingB9_
FNDA:1,_RNvMs2_NtNtCs1I4G5KWFz5n_15embedded_charts5chart3barINtB5_15BarChartBuilderNtNtNtCshH4H1wHMe2V_22embedded_graphics_core10pixelcolor9rgb_color6Rgb565E9bar_widthB9_
FNDA:2,_RNvXs1_NtNtCs1I4G5KWFz5n_15embedded_charts5chart3barINtB5_13BarChartStyleNtNtNtCshH4H1wHMe2V_22embedded_graphics_core10pixelcolor9rgb_color6Rgb565ENtNtCs3XRySYX51hI_4core7default7Default7defaultB9_
FNDA:1,_RNvXs3_NtNtCs1I4G5KWFz5n_15embedded_charts5chart3barINtB5_15BarChartBuilderNtNtNtCshH4H1wHMe2V_22embedded_graphics_core10pixelcolor9rgb_color6Rgb565EINtNtB7_6traits12ChartBuilderB1b_E5buildB9_
FNDA:1,_RNCNvNtNtNtCs1I4G5KWFz5n_15embedded_charts5chart3bar5testss_22test_bar_chart_builder0B9_
FNDA:1,_RNvNtNtNtCs1I4G5KWFz5n_15embedded_charts5chart3bar5testss_20test_bar_width_types
FNDA:1,_RNvNtNtNtCs1I4G5KWFz5n_15embedded_charts5chart3bar5testss_22test_bar_chart_builder
FNDA:1,_RNvNtNtNtCs1I4G5KWFz5n_15embedded_charts5chart3bar5testss_23test_bar_chart_creation
FNF:60
FNH:17
DA:321,1
DA:322,1
DA:323,1
DA:324,1
DA:325,1
DA:326,1
DA:327,1
DA:348,1
DA:349,1
DA:350,1
DA:381,0
DA:382,0
DA:383,0
DA:393,3
DA:394,3
DA:395,3
DA:405,0
DA:406,0
DA:407,0
DA:410,1
DA:411,1
DA:412,1
DA:415,0
DA:416,0
DA:417,0
DA:420,2
DA:421,2
DA:422,2
DA:425,0
DA:426,0
DA:427,0
DA:428,0
DA:429,0
DA:430,0
DA:431,0
DA:432,0
DA:433,0
DA:434,0
DA:435,0
DA:436,0
DA:437,0
DA:440,0
DA:441,0
DA:442,0
DA:443,0
DA:444,0
DA:445,0
DA:447,0
DA:450,0
DA:451,0
DA:452,0
DA:454,0
DA:455,0
DA:456,0
DA:457,0
DA:458,0
DA:463,0
DA:464,0
DA:465,0
DA:467,0
DA:468,0
DA:469,0
DA:470,0
DA:473,0
DA:474,0
DA:476,0
DA:480,0
DA:481,0
DA:482,0
DA:483,0
DA:486,0
DA:487,0
DA:488,0
DA:489,0
DA:492,0
DA:493,0
DA:495,0
DA:499,0
DA:500,0
DA:501,0
DA:502,0
DA:503,0
DA:507,0
DA:508,0
DA:511,0
DA:512,0
DA:515,0
DA:516,0
DA:517,0
DA:518,0
DA:519,0
DA:520,0
DA:521,0
DA:522,0
DA:523,0
DA:525,0
DA:526,0
DA:528,0
DA:532,0
DA:533,0
DA:534,0
DA:535,0
DA:538,0
DA:539,0
DA:540,0
DA:541,0
DA:542,0
DA:543,0
DA:544,0
DA:545,0
DA:546,0
DA:547,0
DA:548,0
DA:550,0
DA:551,0
DA:558,0
DA:559,0
DA:560,0
DA:570,0
DA:571,0
DA:572,0
DA:573,0
DA:574,0
DA:575,0
DA:576,0
DA:577,0
DA:578,0
DA:579,0
DA:580,0
DA:581,0
DA:582,0
DA:583,0
DA:584,0
DA:585,0
DA:586,0
DA:589,0
DA:590,0
DA:591,0
DA:592,0
DA:593,0
DA:594,0
DA:597,0
DA:600,0
DA:603,0
DA:604,0
DA:607,0
DA:608,0
DA:615,2
DA:616,2
DA:617,2
DA:618,2
DA:619,2
DA:620,2
DA:621,2
DA:622,2
DA:623,2
DA:624,2
DA:625,2
DA:626,2
DA:627,2
DA:628,2
DA:629,2
DA:645,1
DA:646,1
DA:647,1
DA:648,1
DA:649,1
DA:650,1
DA:651,1
DA:654,1
DA:655,1
DA:656,1
DA:657,1
DA:660,1
DA:661,1
DA:662,3
DA:663,2
DA:664,0
DA:665,2
DA:667,1
DA:668,1
DA:671,1
DA:672,1
DA:673,1
DA:674,1
DA:677,1
DA:678,1
DA:679,1
DA:680,1
DA:683,0
DA:684,0
DA:685,0
DA:686,0
DA:689,0
DA:690,0
DA:691,0
DA:692,0
DA:695,1
DA:696,1
DA:697,1
DA:698,1
DA:699,1
DA:700,1
DA:703,0
DA:704,0
DA:705,0
DA:706,0
DA:716,1
DA:717,1
DA:718,1
DA:719,1
DA:720,1
DA:721,1
DA:722,1
DA:729,0
DA:730,0
DA:731,0
DA:740,1
DA:741,1
DA:742,1
DA:743,1
DA:744,1
DA:747,1
DA:748,1
DA:749,1
DA:750,1
DA:751,1
DA:752,1
DA:753,1
DA:754,1
DA:755,1
DA:756,1
DA:757,1
DA:758,1
DA:759,1
DA:760,1
DA:761,1
DA:764,1
DA:767,1
DA:768,1
DA:770,1
DA:771,1
DA:772,1
DA:773,0
DA:775,1
DA:776,1
DA:795,0
DA:796,0
DA:797,0
DA:798,0
DA:799,0
DA:800,0
DA:803,0
DA:804,0
DA:805,0
DA:808,0
DA:809,0
DA:810,0
DA:813,0
DA:814,0
DA:815,0
DA:818,0
DA:819,0
DA:820,0
DA:823,0
DA:824,0
DA:825,0
DA:828,0
DA:829,0
DA:830,0
DA:833,0
DA:834,0
DA:835,0
DA:838,0
DA:839,0
DA:840,0
DA:841,0
DA:842,0
DA:846,0
DA:847,0
DA:848,0
DA:849,0
DA:850,0
DA:851,0
DA:852,0
DA:853,0
DA:854,0
DA:855,0
DA:857,0
DA:858,0
DA:859,0
DA:860,0
DA:861,0
DA:862,0
DA:863,0
DA:864,0
DA:865,0
DA:866,0
DA:867,0
DA:868,0
DA:871,0
DA:872,0
DA:880,0
DA:881,0
DA:882,0
DA:893,0
DA:894,0
DA:895,0
DA:896,0
DA:897,0
DA:898,0
DA:899,0
DA:900,0
DA:901,0
DA:902,0
DA:903,0
DA:904,0
DA:905,0
DA:906,0
DA:907,0
DA:908,0
DA:909,0
DA:910,0
DA:911,0
DA:912,0
DA:914,0
DA:916,0
DA:926,0
DA:927,0
DA:928,0
DA:929,0
DA:930,0
DA:931,0
DA:932,0
DA:933,0
DA:934,0
DA:935,0
DA:936,0
DA:937,0
DA:938,0
DA:939,0
DA:941,0
DA:942,0
DA:943,0
DA:944,0
DA:945,0
DA:946,0
DA:947,0
DA:948,0
DA:950,0
DA:951,0
DA:952,0
DA:953,0
DA:970,0
DA:971,0
DA:972,0
DA:973,0
DA:974,0
DA:975,0
DA:978,0
DA:979,0
DA:980,0
DA:981,0
DA:984,0
DA:985,0
DA:986,0
DA:987,0
DA:990,0
DA:991,0
DA:992,0
DA:993,0
DA:996,0
DA:997,0
DA:998,0
DA:999,0
DA:1002,0
DA:1003,0
DA:1004,0
DA:1005,0
DA:1008,0
DA:1009,0
DA:1010,0
DA:1011,0
DA:1014,0
DA:1015,0
DA:1016,0
DA:1017,0
DA:1020,0
DA:1021,0
DA:1022,0
DA:1023,0
DA:1026,0
DA:1027,0
DA:1028,0
DA:1029,0
DA:1032,0
DA:1033,0
DA:1035,0
DA:1036,0
DA:1037,0
DA:1038,0
DA:1039,0
DA:1047,0
DA:1048,0
DA:1049,0
BRF:0
BRH:0
LF:411
LH:102
end_of_record
SF:/home/tasuku/com/github/signal-slot/embedded-charts/src/chart/curve.rs
FN:134,_RNvMNtNtCs1I4G5KWFz5n_15embedded_charts5chart5curveINtB2_10CurveChartpE10base_chartB6_
FN:139,_RNvMNtNtCs1I4G5KWFz5n_15embedded_charts5chart5curveINtB2_10CurveChartpE14base_chart_mutB6_
FN:215,_RNvXININtNtCs1I4G5KWFz5n_15embedded_charts5chart5curves_0pEINtB5_10CurveChartpENtNtCs3XRySYX51hI_4core7default7Default7defaultB9_
FN:833,_RNvNtNtNtCs1I4G5KWFz5n_15embedded_charts5chart5curve5testss_20test_builder_default
FN:609,_RNvNtNtNtCs1I4G5KWFz5n_15embedded_charts5chart5curve5testss_20test_draw_empty_data
FN:528,_RNvNtNtNtCs1I4G5KWFz5n_15embedded_charts5chart5curve5testss_21test_interpolate_data
FN:624,_RNvNtNtNtCs1I4G5KWFz5n_15embedded_charts5chart5curve5testss_22test_draw_single_point
FN:750,_RNvNtNtNtCs1I4G5KWFz5n_15embedded_charts5chart5curve5testss_22test_draw_with_markers
FN:819,_RNvNtNtNtCs1I4G5KWFz5n_15embedded_charts5chart5curve5testss_22test_edge_case_tension
FN:641,_RNvNtNtNtCs1I4G5KWFz5n_15embedded_charts5chart5curve5testss_24test_all_builder_methods
FN:496,_RNvNtNtNtCs1I4G5KWFz5n_15embedded_charts5chart5curve5testss_24test_curve_chart_builder
FN:696,_RNvNtNtNtCs1I4G5KWFz5n_15embedded_charts5chart5curve5testss_24test_setters_and_getters
FN:486,_RNvNtNtNtCs1I4G5KWFz5n_15embedded_charts5chart5curve5testss_25test_curve_chart_creation
FN:560,_RNvNtNtNtCs1I4G5KWFz5n_15embedded_charts5chart5curve5testss_26test_transform_curve_point
FN:805,_RNvNtNtNtCs1I4G5KWFz5n_15embedded_charts5chart5curve5testss_27test_edge_case_subdivisions
FN:778,_RNvNtNtNtCs1I4G5KWFz5n_15embedded_charts5chart5curve5testss_32test_draw_with_invisible_markers
FN:516,_RNvNtNtNtCs1I4G5KWFz5n_15embedded_charts5chart5curve5testss_34test_interpolation_config_clamping
FN:546,_RNvNtNtNtCs1I4G5KWFz5n_15embedded_charts5chart5curve5testss_35test_interpolate_data_memory_limits
FN:844,_RNvNtNtNtCs1I4G5KWFz5n_15embedded_charts5chart5curve5testss_38test_draw_with_fill_area_without_color
FN:588,_RNvNtNtNtCs1I4G5KWFz5n_15embedded_charts5chart5curve5testss_39test_transform_curve_point_equal_bounds
FN:227,_RINvXs0_NtNtCs1I4G5KWFz5n_15embedded_charts5chart5curveINtB6_10CurveChartNtNtNtCshH4H1wHMe2V_22embedded_graphics_core10pixelcolor9rgb_color6Rgb565EINtNtB8_6traits5ChartB19_E4drawINtNtCs5C7UwTAEl8q_17embedded_graphics12mock_display11MockDisplayB19_EEBa_
FN:258,_RNCINvXs0_NtNtCs1I4G5KWFz5n_15embedded_charts5chart5curveINtB8_10CurveChartNtNtNtCshH4H1wHMe2V_22embedded_graphics_core10pixelcolor9rgb_color6Rgb565EINtNtBa_6traits5ChartB1b_E4drawINtNtCs5C7UwTAEl8q_17embedded_graphics12mock_display11MockDisplayB1b_EE0Bc_
FN:324,_RNCINvXs0_NtNtCs1I4G5KWFz5n_15embedded_charts5chart5curveINtB8_10CurveChartNtNtNtCshH4H1wHMe2V_22embedded_graphics_core10pixelcolor9rgb_color6Rgb565EINtNtBa_6traits5ChartB1b_E4drawINtNtCs5C7UwTAEl8q_17embedded_graphics12mock_display11MockDisplayB1b_EEs_0Bc_
FN:151,_RNCNvMNtNtCs1I4G5KWFz5n_15embedded_charts5chart5curveINtB4_10CurveChartNtNtNtCshH4H1wHMe2V_22embedded_graphics_core10pixelcolor9rgb_color6Rgb565E16interpolate_data0B8_
FN:114,_RNvMNtNtCs1I4G5KWFz5n_15embedded_charts5chart5curveINtB2_10CurveChartNtNtNtCshH4H1wHMe2V_22embedded_graphics_core10pixelcolor9rgb_color6Rgb565E10set_configB6_
FN:144,_RNvMNtNtCs1I4G5KWFz5n_15embedded_charts5chart5curveINtB2_10CurveChartNtNtNtCshH4H1wHMe2V_22embedded_graphics_core10pixelcolor9rgb_color6Rgb565E16interpolate_dataB6_
FN:99,_RNvMNtNtCs1I4G5KWFz5n_15embedded_charts5chart5curveINtB2_10CurveChartNtNtNtCshH4H1wHMe2V_22embedded_graphics_core10pixelcolor9rgb_color6Rgb565E20interpolation_configB6_
FN:159,_RNvMNtNtCs1I4G5KWFz5n_15embedded_charts5chart5curveINtB2_10CurveChartNtNtNtCshH4H1wHMe2V_22embedded_graphics_core10pixelcolor9rgb_color6Rgb565E21transform_curve_pointB6_
FN:94,_RNvMNtNtCs1I4G5KWFz5n_15embedded_charts5chart5curveINtB2_10CurveChartNtNtNtCshH4H1wHMe2V_22embedded_graphics_core10pixelcolor9rgb_color6Rgb565E24set_interpolation_configB6_
FN:78,_RNvMNtNtCs1I4G5KWFz5n_15embedded_charts5chart5curveINtB2_10CurveChartNtNtNtCshH4H1wHMe2V_22embedded_graphics_core10pixelcolor9rgb_color6Rgb565E3newB6_
FN:129,_RNvMNtNtCs1I4G5KWFz5n_15embedded_charts5chart5curveINtB2_10CurveChartNtNtNtCshH4H1wHMe2V_22embedded_graphics_core10pixelcolor9rgb_color6Rgb565E4gridB6_
FN:109,_RNvMNtNtCs1I4G5KWFz5n_15embedded_charts5chart5curveINtB2_10CurveChartNtNtNtCshH4H1wHMe2V_22embedded_graphics_core10pixelcolor9rgb_color6Rgb565E5styleB6_
FN:119,_RNvMNtNtCs1I4G5KWFz5n_15embedded_charts5chart5curveINtB2_10CurveChartNtNtNtCshH4H1wHMe2V_22embedded_graphics_core10pixelcolor9rgb_color6Rgb565E6configB6_
FN:86,_RNvMNtNtCs1I4G5KWFz5n_15embedded_charts5chart5curveINtB2_10CurveChartNtNtNtCshH4H1wHMe2V_22embedded_graphics_core10pixelcolor9rgb_color6Rgb565E7builderB6_
FN:124,_RNvMNtNtCs1I4G5KWFz5n_15embedded_charts5chart5curveINtB2_10CurveChartNtNtNtCshH4H1wHMe2V_22embedded_graphics_core10pixelcolor9rgb_color6Rgb565E8set_gridB6_
FN:104,_RNvMNtNtCs1I4G5KWFz5n_15embedded_charts5chart5curveINtB2_10CurveChartNtNtNtCshH4H1wHMe2V_22embedded_graphics_core10pixelcolor9rgb_color6Rgb565E9set_styleB6_
FN:394,_RNvMs1_NtNtCs1I4G5KWFz5n_15embedded_charts5chart5curveINtB5_17CurveChartBuilderNtNtNtCshH4H1wHMe2V_22embedded_graphics_core10pixelcolor9rgb_color6Rgb565E10line_colorB9_
FN:400,_RNvMs1_NtNtCs1I4G5KWFz5n_15embedded_charts5chart5curveINtB5_17CurveChartBuilderNtNtNtCshH4H1wHMe2V_22embedded_graphics_core10pixelcolor9rgb_color6Rgb565E10line_widthB9_
FN:420,_RNvMs1_NtNtCs1I4G5KWFz5n_15embedded_charts5chart5curveINtB5_17CurveChartBuilderNtNtNtCshH4H1wHMe2V_22embedded_graphics_core10pixelcolor9rgb_color6Rgb565E10with_titleB9_
FN:444,_RNvMs1_NtNtCs1I4G5KWFz5n_15embedded_charts5chart5curveINtB5_17CurveChartBuilderNtNtNtCshH4H1wHMe2V_22embedded_graphics_core10pixelcolor9rgb_color6Rgb565E11with_x_axisB9_
FN:450,_RNvMs1_NtNtCs1I4G5KWFz5n_15embedded_charts5chart5curveINtB5_17CurveChartBuilderNtNtNtCshH4H1wHMe2V_22embedded_graphics_core10pixelcolor9rgb_color6Rgb565E11with_y_axisB9_
FN:370,_RNvMs1_NtNtCs1I4G5KWFz5n_15embedded_charts5chart5curveINtB5_17CurveChartBuilderNtNtNtCshH4H1wHMe2V_22embedded_graphics_core10pixelcolor9rgb_color6Rgb565E12subdivisionsB9_
FN:414,_RNvMs1_NtNtCs1I4G5KWFz5n_15embedded_charts5chart5curveINtB5_17CurveChartBuilderNtNtNtCshH4H1wHMe2V_22embedded_graphics_core10pixelcolor9rgb_color6Rgb565E12with_markersB9_
FN:426,_RNvMs1_NtNtCs1I4G5KWFz5n_15embedded_charts5chart5curveINtB5_17CurveChartBuilderNtNtNtCshH4H1wHMe2V_22embedded_graphics_core10pixelcolor9rgb_color6Rgb565E16background_colorB9_
FN:358,_RNvMs1_NtNtCs1I4G5KWFz5n_15embedded_charts5chart5curveINtB5_17CurveChartBuilderNtNtNtCshH4H1wHMe2V_22embedded_graphics_core10pixelcolor9rgb_color6Rgb565E18interpolation_typeB9_
FN:347,_RNvMs1_NtNtCs1I4G5KWFz5n_15embedded_charts5chart5curveINtB5_17CurveChartBuilderNtNtNtCshH4H1wHMe2V_22embedded_graphics_core10pixelcolor9rgb_color6Rgb565E3newB9_
FN:456,_RNvMs1_NtNtCs1I4G5KWFz5n_15embedded_charts5chart5curveINtB5_17CurveChartBuilderNtNtNtCshH4H1wHMe2V_22embedded_graphics_core10pixelcolor9rgb_color6Rgb565E5buildB9_
FN:388,_RNvMs1_NtNtCs1I4G5KWFz5n_15embedded_charts5chart5curveINtB5_17CurveChartBuilderNtNtNtCshH4H1wHMe2V_22embedded_graphics_core10pixelcolor9rgb_color6Rgb565E6closedB9_
FN:432,_RNvMs1_NtNtCs1I4G5KWFz5n_15embedded_charts5chart5curveINtB5_17CurveChartBuilderNtNtNtCshH4H1wHMe2V_22embedded_graphics_core10pixelcolor9rgb_color6Rgb565E7marginsB9_
FN:379,_RNvMs1_NtNtCs1I4G5KWFz5n_15embedded_charts5chart5curveINtB5_17CurveChartBuilderNtNtNtCshH4H1wHMe2V_22embedded_graphics_core10pixelcolor9rgb_color6Rgb565E7tensionB9_
FN:406,_RNvMs1_NtNtCs1I4G5KWFz5n_15embedded_charts5chart5curveINtB5_17CurveChartBuilderNtNtNtCshH4H1wHMe2V_22embedded_graphics_core10pixelcolor9rgb_color6Rgb565E9fill_areaB9_
FN:438,_RNvMs1_NtNtCs1I4G5KWFz5n_15embedded_charts5chart5curveINtB5_17CurveChartBuilderNtNtNtCshH4H1wHMe2V_22embedded_graphics_core10pixelcolor9rgb_color6Rgb565E9with_gridB9_
FN:470,_RNvXs2_NtNtCs1I4G5KWFz5n_15embedded_charts5chart5curveINtB5_17CurveChartBuilderNtNtNtCshH4H1wHMe2V_22embedded_graphics_core10pixelcolor9rgb_color6Rgb565ENtNtCs3XRySYX51hI_4core7default7Default7defaultB9_
FNDA:0,_RNvMNtNtCs1I4G5KWFz5n_15embedded_charts5chart5curveINtB2_10CurveChartpE10base_chartB6_
FNDA:0,_RNvMNtNtCs1I4G5KWFz5n_15embedded_charts5chart5curveINtB2_10CurveChartpE14base_chart_mutB6_
FNDA:0,_RNvXININtNtCs1I4G5KWFz5n_15embedded_charts5chart5curves_0pEINtB5_10CurveChartpENtNtCs3XRySYX51hI_4core7default7Default7defaultB9_
FNDA:1,_RNvNtNtNtCs1I4G5KWFz5n_15embedded_charts5chart5curve5testss_20test_builder_default
FNDA:1,_RNvNtNtNtCs1I4G5KWFz5n_15embedded_charts5chart5curve5testss_20test_draw_empty_data
FNDA:1,_RNvNtNtNtCs1I4G5KWFz5n_15embedded_charts5chart5curve5testss_21test_interpolate_data
FNDA:1,_RNvNtNtNtCs1I4G5KWFz5n_15embedded_charts5chart5curve5testss_22test_draw_single_point
FNDA:1,_RNvNtNtNtCs1I4G5KWFz5n_15embedded_charts5chart5curve5testss_22test_draw_with_markers
FNDA:1,_RNvNtNtNtCs1I4G5KWFz5n_15embedded_charts5chart5curve5testss_22test_edge_case_tension
FNDA:1,_RNvNtNtNtCs1I4G5KWFz5n_15embedded_charts5chart5curve5testss_24test_all_builder_methods
FNDA:1,_RNvNtNtNtCs1I4G5KWFz5n_15embedded_charts5chart5curve5testss_24test_curve_chart_builder
FNDA:1,_RNvNtNtNtCs1I4G5KWFz5n_15embedded_charts5chart5curve5testss_24test_setters_and_getters
FNDA:1,_RNvNtNtNtCs1I4G5KWFz5n_15embedded_charts5chart5curve5testss_25test_curve_chart_creation
FNDA:1,_RNvNtNtNtCs1I4G5KWFz5n_15embedded_charts5chart5curve5testss_26test_transform_curve_point
FNDA:1,_RNvNtNtNtCs1I4G5KWFz5n_15embedded_charts5chart5curve5testss_27test_edge_case_subdivisions
FNDA:1,_RNvNtNtNtCs1I4G5KWFz5n_15embedded_charts5chart5curve5testss_32test_draw_with_invisible_markers
FNDA:1,_RNvNtNtNtCs1I4G5KWFz5n_15embedded_charts5chart5curve5testss_34test_interpolation_config_clamping
FNDA:1,_RNvNtNtNtCs1I4G5KWFz5n_15embedded_charts5chart5curve5testss_35test_interpolate_data_memory_limits
FNDA:1,_RNvNtNtNtCs1I4G5KWFz5n_15embedded_charts5chart5curve5testss_38test_draw_with_fill_area_without_color
FNDA:1,_RNvNtNtNtCs1I4G5KWFz5n_15embedded_charts5chart5curve5testss_39test_transform_curve_point_equal_bounds
FNDA:5,_RINvXs0_NtNtCs1I4G5KWFz5n_15embedded_charts5chart5curveINtB6_10CurveChartNtNtNtCshH4H1wHMe2V_22embedded_graphics_core10pixelcolor9rgb_color6Rgb565EINtNtB8_6traits5ChartB19_E4drawINtNtCs5C7UwTAEl8q_17embedded_graphics12mock_display11MockDisplayB19_EEBa_
FNDA:0,_RNCINvXs0_NtNtCs1I4G5KWFz5n_15embedded_charts5chart5curveINtB8_10CurveChartNtNtNtCshH4H1wHMe2V_22embedded_graphics_core10pixelcolor9rgb_color6Rgb565EINtNtBa_6traits5ChartB1b_E4drawINtNtCs5C7UwTAEl8q_17embedded_graphics12mock_display11MockDisplayB1b_EE0Bc_
FNDA:0,_RNCINvXs0_NtNtCs1I4G5KWFz5n_15embedded_charts5chart5curveINtB8_10CurveChartNtNtNtCshH4H1wHMe2V_22embedded_graphics_core10pixelcolor9rgb_color6Rgb565EINtNtBa_6traits5ChartB1b_E4drawINtNtCs5C7UwTAEl8q_17embedded_graphics12mock_display11MockDisplayB1b_EEs_0Bc_
FNDA:0,_RNCNvMNtNtCs1I4G5KWFz5n_15embedded_charts5chart5curveINtB4_10CurveChartNtNtNtCshH4H1wHMe2V_22embedded_graphics_core10pixelcolor9rgb_color6Rgb565E16interpolate_data0B8_
FNDA:1,_RNvMNtNtCs1I4G5KWFz5n_15embedded_charts5chart5curveINtB2_10CurveChartNtNtNtCshH4H1wHMe2V_22embedded_graphics_core10pixelcolor9rgb_color6Rgb565E10set_configB6_
FNDA:5,_RNvMNtNtCs1I4G5KWFz5n_15embedded_charts5chart5curveINtB2_10CurveChartNtNtNtCshH4H1wHMe2V_22embedded_graphics_core10pixelcolor9rgb_color6Rgb565E16interpolate_dataB6_
FNDA:17,_RNvMNtNtCs1I4G5KWFz5n_15embedded_charts5chart5curveINtB2_10CurveChartNtNtNtCshH4H1wHMe2V_22embedded_graphics_core10pixelcolor9rgb_color6Rgb565E20interpolation_configB6_
FNDA:6,_RNvMNtNtCs1I4G5KWFz5n_15embedded_charts5chart5curveINtB2_10CurveChartNtNtNtCshH4H1wHMe2V_22embedded_graphics_core10pixelcolor9rgb_color6Rgb565E21transform_curve_pointB6_
FNDA:1,_RNvMNtNtCs1I4G5KWFz5n_15embedded_charts5chart5curveINtB2_10CurveChartNtNtNtCshH4H1wHMe2V_22embedded_graphics_core10pixelcolor9rgb_color6Rgb565E24set_interpolation_configB6_
FNDA:7,_RNvMNtNtCs1I4G5KWFz5n_15embedded_charts5chart5curveINtB2_10CurveChartNtNtNtCshH4H1wHMe2V_22embedded_graphics_core10pixelcolor9rgb_color6Rgb565E3newB6_
FNDA:3,_RNvMNtNtCs1I4G5KWFz5n_15embedded_charts5chart5curveINtB2_10CurveChartNtNtNtCshH4H1wHMe2V_22embedded_graphics_core10pixelcolor9rgb_color6Rgb565E4gridB6_
FNDA:10,_RNvMNtNtCs1I4G5KWFz5n_15embedded_charts5chart5curveINtB2_10CurveChartNtNtNtCshH4H1wHMe2V_22embedded_graphics_core10pixelcolor9rgb_color6Rgb565E5styleB6_
FNDA:3,_RNvMNtNtCs1I4G5KWFz5n_15embedded_charts5chart5curveINtB2_10CurveChartNtNtNtCshH4H1wHMe2V_22embedded_graphics_core10pixelcolor9rgb_color6Rgb565E6configB6_
FNDA:11,_RNvMNtNtCs1I4G5KWFz5n_15embedded_charts5chart5curveINtB2_10CurveChartNtNtNtCshH4H1wHMe2V_22embedded_graphics_core10pixelcolor9rgb_color6Rgb565E7builderB6_
FNDA:2,_RNvMNtNtCs1I4G5KWFz5n_15embedded_charts5chart5curveINtB2_10CurveChartNtNtNtCshH4H1wHMe2V_22embedded_graphics_core10pixelcolor9rgb_color6Rgb565E8set_gridB6_
FNDA:2,_RNvMNtNtCs1I4G5KWFz5n_15embedded_charts5chart5curveINtB2_10CurveChartNtNtNtCshH4H1wHMe2V_22embedded_graphics_core10pixelcolor9rgb_color6Rgb565E9set_styleB6_
FNDA:5,_RNvMs1_NtNtCs1I4G5KWFz5n_15embedded_charts5chart5curveINtB5_17CurveChartBuilderNtNtNtCshH4H1wHMe2V_22embedded_graphics_core10pixelcolor9rgb_color6Rgb565E10line_colorB9_
FNDA:2,_RNvMs1_NtNtCs1I4G5KWFz5n_15embedded_charts5chart5curveINtB5_17CurveChartBuilderNtNtNtCshH4H1wHMe2V_22embedded_graphics_core10pixelcolor9rgb_color6Rgb565E10line_widthB9_
FNDA:1,_RNvMs1_NtNtCs1I4G5KWFz5n_15embedded_charts5chart5curveINtB5_17CurveChartBuilderNtNtNtCshH4H1wHMe2V_22embedded_graphics_core10pixelcolor9rgb_color6Rgb565E10with_titleB9_
FNDA:1,_RNvMs1_NtNtCs1I4G5KWFz5n_15embedded_charts5chart5curveINtB5_17CurveChartBuilderNtNtNtCshH4H1wHMe2V_22embedded_graphics_core10pixelcolor9rgb_color6Rgb565E11with_x_axisB9_
FNDA:1,_RNvMs1_NtNtCs1I4G5KWFz5n_15embedded_charts5chart5curveINtB5_17CurveChartBuilderNtNtNtCshH4H1wHMe2V_22embedded_graphics_core10pixelcolor9rgb_color6Rgb565E11with_y_axisB9_
FNDA:6,_RNvMs1_NtNtCs1I4G5KWFz5n_15embedded_charts5chart5curveINtB5_17CurveChartBuilderNtNtNtCshH4H1wHMe2V_22embedded_graphics_core10pixelcolor9rgb_color6Rgb565E12subdivisionsB9_
FNDA:3,_RNvMs1_NtNtCs1I4G5KWFz5n_15embedded_charts5chart5curveINtB5_17CurveChartBuilderNtNtNtCshH4H1wHMe2V_22embedded_graphics_core10pixelcolor9rgb_color6Rgb565E12with_markersB9_
FNDA:1,_RNvMs1_NtNtCs1I4G5KWFz5n_15embedded_charts5chart5curveINtB5_17CurveChartBuilderNtNtNtCshH4H1wHMe2V_22embedded_graphics_core10pixelcolor9rgb_color6Rgb565E16background_colorB9_
FNDA:2,_RNvMs1_NtNtCs1I4G5KWFz5n_15embedded_charts5chart5curveINtB5_17CurveChartBuilderNtNtNtCshH4H1wHMe2V_22embedded_graphics_core10pixelcolor9rgb_color6Rgb565E18interpolation_typeB9_
FNDA:12,_RNvMs1_NtNtCs1I4G5KWFz5n_15embedded_charts5chart5curveINtB5_17CurveChartBuilderNtNtNtCshH4H1wHMe2V_22embedded_graphics_core10pixelcolor9rgb_color6Rgb565E3newB9_
FNDA:12,_RNvMs1_NtNtCs1I4G5KWFz5n_15embedded_charts5chart5curveINtB5_17CurveChartBuilderNtNtNtCshH4H1wHMe2V_22embedded_graphics_core10pixelcolor9rgb_color6Rgb565E5buildB9_
FNDA:1,_RNvMs1_NtNtCs1I4G5KWFz5n_15embedded_charts5chart5curveINtB5_17CurveChartBuilderNtNtNtCshH4H1wHMe2V_22embedded_graphics_core10pixelcolor9rgb_color6Rgb565E6closedB9_
FNDA:1,_RNvMs1_NtNtCs1I4G5KWFz5n_15embedded_charts5chart5curveINtB5_17CurveChartBuilderNtNtNtCshH4H1wHMe2V_22embedded_graphics_core10pixelcolor9rgb_color6Rgb565E7marginsB9_
FNDA:5,_RNvMs1_NtNtCs1I4G5KWFz5n_15embedded_charts5chart5curveINtB5_17CurveChartBuilderNtNtNtCshH4H1wHMe2V_22embedded_graphics_core10pixelcolor9rgb_color6Rgb565E7tensionB9_
FNDA:1,_RNvMs1_NtNtCs1I4G5KWFz5n_15embedded_charts5chart5curveINtB5_17CurveChartBuilderNtNtNtCshH4H1wHMe2V_22embedded_graphics_core10pixelcolor9rgb_color6Rgb565E9fill_areaB9_
FNDA:1,_RNvMs1_NtNtCs1I4G5KWFz5n_15embedded_charts5chart5curveINtB5_17CurveChartBuilderNtNtNtCshH4H1wHMe2V_22embedded_graphics_core10pixelcolor9rgb_color6Rgb565E9with_gridB9_
FNDA:1,_RNvXs2_NtNtCs1I4G5KWFz5n_15embedded_charts5chart5curveINtB5_17CurveChartBuilderNtNtNtCshH4H1wHMe2V_22embedded_graphics_core10pixelcolor9rgb_color6Rgb565ENtNtCs3XRySYX51hI_4core7default7Default7defaultB9_
FNF:53
FNH:47
DA:78,7
DA:79,7
DA:80,7
DA:81,7
DA:82,7
DA:83,7
DA:86,11
DA:87,11
DA:88,11
DA:94,1
DA:95,1
DA:96,1
DA:99,17
DA:100,17
DA:101,17
DA:104,2
DA:105,2
DA:106,2
DA:109,10
DA:110,10
DA:111,10
DA:114,1
DA:115,1
DA:116,1
DA:119,3
DA:120,3
DA:121,3
DA:124,2
DA:125,2
DA:126,2
DA:129,3
DA:130,3
DA:131,3
DA:134,0
DA:135,0
DA:136,0
DA:139,0
DA:140,0
DA:141,0
DA:144,5
DA:145,5
DA:146,5
DA:147,5
DA:148,5
DA:149,5
DA:150,25
DA:151,25
DA:155,5
DA:156,5
DA:159,6
DA:160,6
DA:161,6
DA:162,6
DA:163,6
DA:164,6
DA:168,6
DA:169,6
DA:170,6
DA:171,6
DA:172,6
DA:173,6
DA:174,6
DA:175,6
DA:176,6
DA:177,6
DA:178,6
DA:181,6
DA:182,5
DA:183,5
DA:184,5
DA:186,1
DA:189,6
DA:190,5
DA:191,5
DA:192,5
DA:194,1
DA:198,6
DA:199,6
DA:200,6
DA:201,6
DA:202,6
DA:203,6
DA:204,6
DA:205,6
DA:206,6
DA:207,6
DA:208,6
DA:215,0
DA:216,0
DA:217,0
DA:227,5
DA:228,5
DA:229,5
DA:230,5
DA:231,5
DA:232,5
DA:233,5
DA:234,5
DA:235,5
DA:236,5
DA:237,5
DA:238,5
DA:239,5
DA:240,5
DA:241,5
DA:242,1
DA:243,4
DA:244,4
DA:245,4
DA:246,4
DA:247,1
DA:248,3
DA:251,3
DA:254,3
DA:255,35
DA:256,35
DA:257,35
DA:258,35
DA:262,3
DA:265,3
DA:266,3
DA:267,3
DA:268,3
DA:269,3
DA:270,3
DA:271,3
DA:272,3
DA:273,3
DA:274,3
DA:275,3
DA:277,3
DA:278,1
DA:279,0
DA:280,0
DA:281,0
DA:282,0
DA:283,0
DA:284,0
DA:285,1
DA:287,2
DA:288,2
DA:289,2
DA:290,2
DA:291,2
DA:295,3
DA:298,3
DA:299,2
DA:302,1
DA:304,3
DA:306,3
DA:307,3
DA:308,3
DA:309,3
DA:310,3
DA:311,3
DA:312,3
DA:313,3
DA:314,3
DA:315,3
DA:316,3
DA:317,3
DA:318,3
DA:319,3
DA:320,3
DA:321,3
DA:322,3
DA:323,3
DA:324,3
DA:326,1
DA:327,1
DA:329,3
DA:330,5
DA:347,12
DA:348,12
DA:349,12
DA:350,12
DA:351,12
DA:352,12
DA:358,2
DA:359,2
DA:360,2
DA:361,2
DA:370,6
DA:371,6
DA:372,6
DA:373,6
DA:379,5
DA:380,5
DA:381,5
DA:382,5
DA:388,1
DA:389,1
DA:390,1
DA:391,1
DA:394,5
DA:395,5
DA:396,5
DA:397,5
DA:400,2
DA:401,2
DA:402,2
DA:403,2
DA:406,1
DA:407,1
DA:408,1
DA:409,1
DA:414,3
DA:415,3
DA:416,3
DA:417,3
DA:420,1
DA:421,1
DA:422,1
DA:423,1
DA:426,1
DA:427,1
DA:428,1
DA:429,1
DA:432,1
DA:433,1
DA:434,1
DA:435,1
DA:438,1
DA:439,1
DA:440,1
DA:441,1
DA:444,1
DA:445,1
DA:446,1
DA:447,1
DA:450,1
DA:451,1
DA:452,1
DA:453,1
DA:456,12
DA:457,12
DA:459,12
DA:460,12
DA:461,12
DA:462,12
DA:463,12
DA:470,1
DA:471,1
DA:472,1
DA:486,1
DA:487,1
DA:488,1
DA:489,1
DA:492,1
DA:493,1
DA:496,1
DA:497,1
DA:498,1
DA:499,1
DA:500,1
DA:501,1
DA:502,1
DA:503,1
DA:504,1
DA:505,1
DA:506,1
DA:507,1
DA:508,1
DA:509,1
DA:512,1
DA:513,1
DA:516,1
DA:517,1
DA:518,1
DA:519,1
DA:520,1
DA:521,1
DA:522,1
DA:523,1
DA:524,1
DA:525,1
DA:528,1
DA:529,1
DA:530,1
DA:531,1
DA:532,1
DA:533,1
DA:534,1
DA:535,1
DA:536,1
DA:537,1
DA:538,1
DA:540,1
DA:541,1
DA:542,1
DA:543,1
DA:546,1
DA:547,1
DA:548,1
DA:551,16
DA:552,15
DA:553,15
DA:555,1
DA:556,1
DA:557,1
DA:560,1
DA:561,1
DA:562,1
DA:563,1
DA:564,1
DA:565,1
DA:566,1
DA:567,1
DA:568,1
DA:569,1
DA:570,1
DA:571,1
DA:572,1
DA:573,1
DA:574,1
DA:575,1
DA:576,1
DA:579,1
DA:580,1
DA:581,1
DA:582,1
DA:583,1
DA:584,1
DA:585,1
DA:588,1
DA:589,1
DA:590,1
DA:591,1
DA:592,1
DA:593,1
DA:594,1
DA:595,1
DA:596,1
DA:597,1
DA:598,1
DA:599,1
DA:600,1
DA:601,1
DA:602,1
DA:603,1
DA:604,1
DA:605,1
DA:606,1
DA:609,1
DA:610,1
DA:611,1
DA:612,1
DA:613,1
DA:614,1
DA:615,1
DA:616,1
DA:617,1
DA:618,1
DA:619,1
DA:620,1
DA:621,1
DA:624,1
DA:625,1
DA:626,1
DA:627,1
DA:628,1
DA:629,1
DA:630,1
DA:631,1
DA:632,1
DA:633,1
DA:634,1
DA:635,1
DA:636,1
DA:637,1
DA:638,1
DA:641,1
DA:642,1
DA:643,1
DA:644,1
DA:645,1
DA:646,1
DA:647,1
DA:648,1
DA:649,1
DA:650,1
DA:651,1
DA:652,1
DA:653,1
DA:654,1
DA:655,1
DA:656,1
DA:657,1
DA:658,1
DA:659,1
DA:660,1
DA:661,1
DA:662,1
DA:663,1
DA:664,1
DA:665,1
DA:666,1
DA:667,1
DA:668,1
DA:669,1
DA:670,1
DA:671,1
DA:672,1
DA:673,1
DA:674,1
DA:675,1
DA:676,1
DA:677,1
DA:678,1
DA:679,1
DA:680,1
DA:681,1
DA:682,1
DA:685,1
DA:686,1
DA:687,1
DA:688,1
DA:689,1
DA:690,1
DA:691,1
DA:692,1
DA:693,1
DA:696,1
DA:697,1
DA:698,1
DA:699,1
DA:700,1
DA:701,1
DA:702,1
DA:703,1
DA:704,1
DA:705,1
DA:706,1
DA:707,1
DA:708,1
DA:711,1
DA:714,1
DA:715,1
DA:716,1
DA:717,1
DA:718,1
DA:719,1
DA:720,1
DA:721,1
DA:722,1
DA:723,1
DA:724,1
DA:725,1
DA:728,1
DA:729,1
DA:730,1
DA:731,1
DA:732,1
DA:733,1
DA:734,1
DA:735,1
DA:736,1
DA:737,1
DA:740,1
DA:741,1
DA:742,1
DA:745,1
DA:746,1
DA:747,1
DA:750,1
DA:751,1
DA:752,1
DA:753,1
DA:754,1
DA:755,1
DA:756,1
DA:757,1
DA:758,1
DA:759,1
DA:760,1
DA:761,1
DA:762,1
DA:763,1
DA:764,1
DA:765,1
DA:766,1
DA:767,1
DA:768,1
DA:769,1
DA:770,1
DA:771,1
DA:772,1
DA:773,1
DA:774,1
DA:775,1
DA:778,1
DA:779,1
DA:780,1
DA:781,1
DA:782,1
DA:783,1
DA:784,1
DA:785,1
DA:786,1
DA:787,1
DA:788,1
DA:789,1
DA:790,1
DA:791,1
DA:792,1
DA:793,1
DA:794,1
DA:795,1
DA:796,1
DA:797,1
DA:798,1
DA:799,1
DA:800,1
DA:801,1
DA:802,1
DA:805,1
DA:806,1
DA:807,1
DA:808,1
DA:809,1
DA:810,1
DA:811,1
DA:814,1
DA:815,1
DA:816,1
DA:819,1
DA:820,1
DA:821,1
DA:822,1
DA:823,1
DA:824,1
DA:825,1
DA:828,1
DA:829,1
DA:830,1
DA:833,1
DA:834,1
DA:835,1
DA:836,1
DA:837,1
DA:838,1
DA:841,1
DA:844,1
DA:845,1
DA:846,1
DA:847,1
DA:848,1
DA:849,1
DA:850,1
DA:851,1
DA:852,1
DA:853,1
DA:854,1
DA:855,1
DA:856,1
DA:857,1
DA:858,1
DA:859,1
DA:860,1
DA:861,1
DA:862,1
DA:863,1
DA:864,1
DA:865,1
DA:866,1
DA:867,1
DA:868,1
BRF:0
BRH:0
LF:570
LH:552
end_of_record
SF:/home/tasuku/com/github/signal-slot/embedded-charts/src/chart/line.rs
FN:1690,_RINvXININtNtCs1I4G5KWFz5n_15embedded_charts5chart4lines9_0pEINtB6_17AnimatedLineChartpEINtNtB8_6traits5ChartpE4drawpEBa_
FN:1723,_RINvXININtNtCs1I4G5KWFz5n_15embedded_charts5chart4linesa_0pEINtB6_17AnimatedLineChartpEINtNtB8_6traits13AnimatedChartpE13draw_animatedpEBa_
FN:1652,_RNvMs7_NtNtCs1I4G5KWFz5n_15embedded_charts5chart4lineINtB5_17AnimatedLineChartpE10base_chartB9_
FN:1617,_RNvMs7_NtNtCs1I4G5KWFz5n_15embedded_charts5chart4lineINtB5_17AnimatedLineChartpE10set_configB9_
FN:1645,_RNvMs7_NtNtCs1I4G5KWFz5n_15embedded_charts5chart4lineINtB5_17AnimatedLineChartpE13animated_dataB9_
FN:1657,_RNvMs7_NtNtCs1I4G5KWFz5n_15embedded_charts5chart4lineINtB5_17AnimatedLineChartpE14base_chart_mutB9_
FN:1637,_RNvMs7_NtNtCs1I4G5KWFz5n_15embedded_charts5chart4lineINtB5_17AnimatedLineChartpE17set_animated_dataB9_
FN:1662,_RNvMs7_NtNtCs1I4G5KWFz5n_15embedded_charts5chart4lineINtB5_17AnimatedLineChartpE25interpolate_with_animatorB9_
FN:1594,_RNvMs7_NtNtCs1I4G5KWFz5n_15embedded_charts5chart4lineINtB5_17AnimatedLineChartpE3newB9_
FN:1632,_RNvMs7_NtNtCs1I4G5KWFz5n_15embedded_charts5chart4lineINtB5_17AnimatedLineChartpE4gridB9_
FN:1612,_RNvMs7_NtNtCs1I4G5KWFz5n_15embedded_charts5chart4lineINtB5_17AnimatedLineChartpE5styleB9_
FN:1622,_RNvMs7_NtNtCs1I4G5KWFz5n_15embedded_charts5chart4lineINtB5_17AnimatedLineChartpE6configB9_
FN:1602,_RNvMs7_NtNtCs1I4G5KWFz5n_15embedded_charts5chart4lineINtB5_17AnimatedLineChartpE7builderB9_
FN:1627,_RNvMs7_NtNtCs1I4G5KWFz5n_15embedded_charts5chart4lineINtB5_17AnimatedLineChartpE8set_gridB9_
FN:1607,_RNvMs7_NtNtCs1I4G5KWFz5n_15embedded_charts5chart4lineINtB5_17AnimatedLineChartpE9set_styleB9_
FN:1775,_RNvMsb_NtNtCs1I4G5KWFz5n_15embedded_charts5chart4lineINtB5_24AnimatedLineChartBuilderpE10frame_rateB9_
FN:1781,_RNvMsb_NtNtCs1I4G5KWFz5n_15embedded_charts5chart4lineINtB5_24AnimatedLineChartBuilderpE10line_colorB9_
FN:1787,_RNvMsb_NtNtCs1I4G5KWFz5n_15embedded_charts5chart4lineINtB5_24AnimatedLineChartBuilderpE10line_widthB9_
FN:1805,_RNvMsb_NtNtCs1I4G5KWFz5n_15embedded_charts5chart4lineINtB5_24AnimatedLineChartBuilderpE10with_titleB9_
FN:1841,_RNvMsb_NtNtCs1I4G5KWFz5n_15embedded_charts5chart4lineINtB5_24AnimatedLineChartBuilderpE11with_x_axisB9_
FN:1847,_RNvMsb_NtNtCs1I4G5KWFz5n_15embedded_charts5chart4lineINtB5_24AnimatedLineChartBuilderpE11with_y_axisB9_
FN:1799,_RNvMsb_NtNtCs1I4G5KWFz5n_15embedded_charts5chart4lineINtB5_24AnimatedLineChartBuilderpE12with_markersB9_
FN:1811,_RNvMsb_NtNtCs1I4G5KWFz5n_15embedded_charts5chart4lineINtB5_24AnimatedLineChartBuilderpE16background_colorB9_
FN:1829,_RNvMsb_NtNtCs1I4G5KWFz5n_15embedded_charts5chart4lineINtB5_24AnimatedLineChartBuilderpE19smooth_subdivisionsB9_
FN:1767,_RNvMsb_NtNtCs1I4G5KWFz5n_15embedded_charts5chart4lineINtB5_24AnimatedLineChartBuilderpE3newB9_
FN:1853,_RNvMsb_NtNtCs1I4G5KWFz5n_15embedded_charts5chart4lineINtB5_24AnimatedLineChartBuilderpE5buildB9_
FN:1823,_RNvMsb_NtNtCs1I4G5KWFz5n_15embedded_charts5chart4lineINtB5_24AnimatedLineChartBuilderpE6smoothB9_
FN:1817,_RNvMsb_NtNtCs1I4G5KWFz5n_15embedded_charts5chart4lineINtB5_24AnimatedLineChartBuilderpE7marginsB9_
FN:1793,_RNvMsb_NtNtCs1I4G5KWFz5n_15embedded_charts5chart4lineINtB5_24AnimatedLineChartBuilderpE9fill_areaB9_
FN:1835,_RNvMsb_NtNtCs1I4G5KWFz5n_15embedded_charts5chart4lineINtB5_24AnimatedLineChartBuilderpE9with_gridB9_
FN:1677,_RNvXININtNtCs1I4G5KWFz5n_15embedded_charts5chart4lines8_0pEINtB5_17AnimatedLineChartpENtNtCs3XRySYX51hI_4core7default7Default7defaultB9_
FN:1747,_RNvXININtNtCs1I4G5KWFz5n_15embedded_charts5chart4linesa_0pEINtB5_17AnimatedLineChartpEINtNtB7_6traits13AnimatedChartpE21extract_animated_dataB9_
FN:1738,_RNvXININtNtCs1I4G5KWFz5n_15embedded_charts5chart4linesa_0pEINtB5_17AnimatedLineChartpEINtNtB7_6traits13AnimatedChartpE26create_transition_animatorB9_
FN:1868,_RNvXININtNtCs1I4G5KWFz5n_15embedded_charts5chart4linesc_0pEINtB5_24AnimatedLineChartBuilderpENtNtCs3XRySYX51hI_4core7default7Default7defaultB9_
FN:516,_RINvMNtNtCs1I4G5KWFz5n_15embedded_charts5chart4lineINtB3_9LineChartNtNtNtCshH4H1wHMe2V_22embedded_graphics_core10pixelcolor9rgb_color6Rgb565E11draw_markerINtNtCs5C7UwTAEl8q_17embedded_graphics12mock_display11MockDisplayB13_EEB7_
FN:494,_RINvMNtNtCs1I4G5KWFz5n_15embedded_charts5chart4lineINtB3_9LineChartNtNtNtCshH4H1wHMe2V_22embedded_graphics_core10pixelcolor9rgb_color6Rgb565E12draw_markersINtNtCs5C7UwTAEl8q_17embedded_graphics12mock_display11MockDisplayB13_EEB7_
FN:580,_RINvMNtNtCs1I4G5KWFz5n_15embedded_charts5chart4lineINtB3_9LineChartNtNtNtCshH4H1wHMe2V_22embedded_graphics_core10pixelcolor9rgb_color6Rgb565E14draw_area_fillINtNtCs5C7UwTAEl8q_17embedded_graphics12mock_display11MockDisplayB13_EEB7_
FN:422,_RINvMNtNtCs1I4G5KWFz5n_15embedded_charts5chart4lineINtB3_9LineChartNtNtNtCshH4H1wHMe2V_22embedded_graphics_core10pixelcolor9rgb_color6Rgb565E15transform_pointNtNtNtB7_4data5point7Point2DEB7_
FN:678,_RINvXs0_NtNtCs1I4G5KWFz5n_15embedded_charts5chart4lineINtB6_9LineChartNtNtNtCshH4H1wHMe2V_22embedded_graphics_core10pixelcolor9rgb_color6Rgb565EINtNtB8_6traits5ChartB16_E4drawINtNtCs5C7UwTAEl8q_17embedded_graphics12mock_display11MockDisplayB16_EEBa_
FN:536,_RNCINvMNtNtCs1I4G5KWFz5n_15embedded_charts5chart4lineINtB5_9LineChartNtNtNtCshH4H1wHMe2V_22embedded_graphics_core10pixelcolor9rgb_color6Rgb565E11draw_markerINtNtCs5C7UwTAEl8q_17embedded_graphics12mock_display11MockDisplayB15_EE0B9_
FN:559,_RNCINvMNtNtCs1I4G5KWFz5n_15embedded_charts5chart4lineINtB5_9LineChartNtNtNtCshH4H1wHMe2V_22embedded_graphics_core10pixelcolor9rgb_color6Rgb565E11draw_markerINtNtCs5C7UwTAEl8q_17embedded_graphics12mock_display11MockDisplayB15_EEs0_0B9_
FN:572,_RNCINvMNtNtCs1I4G5KWFz5n_15embedded_charts5chart4lineINtB5_9LineChartNtNtNtCshH4H1wHMe2V_22embedded_graphics_core10pixelcolor9rgb_color6Rgb565E11draw_markerINtNtCs5C7UwTAEl8q_17embedded_graphics12mock_display11MockDisplayB15_EEs1_0B9_
FN:545,_RNCINvMNtNtCs1I4G5KWFz5n_15embedded_charts5chart4lineINtB5_9LineChartNtNtNtCshH4H1wHMe2V_22embedded_graphics_core10pixelcolor9rgb_color6Rgb565E11draw_markerINtNtCs5C7UwTAEl8q_17embedded_graphics12mock_display11MockDisplayB15_EEs_0B9_
FN:605,_RNCINvMNtNtCs1I4G5KWFz5n_15embedded_charts5chart4lineINtB5_9LineChartNtNtNtCshH4H1wHMe2V_22embedded_graphics_core10pixelcolor9rgb_color6Rgb565E14draw_area_fillINtNtCs5C7UwTAEl8q_17embedded_graphics12mock_display11MockDisplayB15_EE0B9_
FN:654,_RNCINvMNtNtCs1I4G5KWFz5n_15embedded_charts5chart4lineINtB5_9LineChartNtNtNtCshH4H1wHMe2V_22embedded_graphics_core10pixelcolor9rgb_color6Rgb565E14draw_area_fillINtNtCs5C7UwTAEl8q_17embedded_graphics12mock_display11MockDisplayB15_EEs0_0B9_
FN:610,_RNCINvMNtNtCs1I4G5KWFz5n_15embedded_charts5chart4lineINtB5_9LineChartNtNtNtCshH4H1wHMe2V_22embedded_graphics_core10pixelcolor9rgb_color6Rgb565E14draw_area_fillINtNtCs5C7UwTAEl8q_17embedded_graphics12mock_display11MockDisplayB15_EEs_0B9_
FN:704,_RNCINvXs0_NtNtCs1I4G5KWFz5n_15embedded_charts5chart4lineINtB8_9LineChartNtNtNtCshH4H1wHMe2V_22embedded_graphics_core10pixelcolor9rgb_color6Rgb565EINtNtBa_6traits5ChartB18_E4drawINtNtCs5C7UwTAEl8q_17embedded_graphics12mock_display11MockDisplayB18_EE0Bc_
FN:757,_RNCINvXs0_NtNtCs1I4G5KWFz5n_15embedded_charts5chart4lineINtB8_9LineChartNtNtNtCshH4H1wHMe2V_22embedded_graphics_core10pixelcolor9rgb_color6Rgb565EINtNtBa_6traits5ChartB18_E4drawINtNtCs5C7UwTAEl8q_17embedded_graphics12mock_display11MockDisplayB18_EEs0_0Bc_
FN:771,_RNCINvXs0_NtNtCs1I4G5KWFz5n_15embedded_charts5chart4lineINtB8_9LineChartNtNtNtCshH4H1wHMe2V_22embedded_graphics_core10pixelcolor9rgb_color6Rgb565EINtNtBa_6traits5ChartB18_E4drawINtNtCs5C7UwTAEl8q_17embedded_graphics12mock_display11MockDisplayB18_EEs1_0Bc_
FN:788,_RNCINvXs0_NtNtCs1I4G5KWFz5n_15embedded_charts5chart4lineINtB8_9LineChartNtNtNtCshH4H1wHMe2V_22embedded_graphics_core10pixelcolor9rgb_color6Rgb565EINtNtBa_6traits5ChartB18_E4drawINtNtCs5C7UwTAEl8q_17embedded_graphics12mock_display11MockDisplayB18_EEs2_0Bc_
FN:739,_RNCINvXs0_NtNtCs1I4G5KWFz5n_15embedded_charts5chart4lineINtB8_9LineChartNtNtNtCshH4H1wHMe2V_22embedded_graphics_core10pixelcolor9rgb_color6Rgb565EINtNtBa_6traits5ChartB18_E4drawINtNtCs5C7UwTAEl8q_17embedded_graphics12mock_display11MockDisplayB18_EEs_0Bc_
FN:374,_RNvMNtNtCs1I4G5KWFz5n_15embedded_charts5chart4lineINtB2_9LineChartNtNtNtCshH4H1wHMe2V_22embedded_graphics_core10pixelcolor9rgb_color6Rgb565E10set_configB6_
FN:291,_RNvMNtNtCs1I4G5KWFz5n_15embedded_charts5chart4lineINtB2_9LineChartNtNtNtCshH4H1wHMe2V_22embedded_graphics_core10pixelcolor9rgb_color6Rgb565E3newB6_
FN:417,_RNvMNtNtCs1I4G5KWFz5n_15embedded_charts5chart4lineINtB2_9LineChartNtNtNtCshH4H1wHMe2V_22embedded_graphics_core10pixelcolor9rgb_color6Rgb565E4gridB6_
FN:362,_RNvMNtNtCs1I4G5KWFz5n_15embedded_charts5chart4lineINtB2_9LineChartNtNtNtCshH4H1wHMe2V_22embedded_graphics_core10pixelcolor9rgb_color6Rgb565E5styleB6_
FN:383,_RNvMNtNtCs1I4G5KWFz5n_15embedded_charts5chart4lineINtB2_9LineChartNtNtNtCshH4H1wHMe2V_22embedded_graphics_core10pixelcolor9rgb_color6Rgb565E6configB6_
FN:319,_RNvMNtNtCs1I4G5KWFz5n_15embedded_charts5chart4lineINtB2_9LineChartNtNtNtCshH4H1wHMe2V_22embedded_graphics_core10pixelcolor9rgb_color6Rgb565E7builderB6_
FN:408,_RNvMNtNtCs1I4G5KWFz5n_15embedded_charts5chart4lineINtB2_9LineChartNtNtNtCshH4H1wHMe2V_22embedded_graphics_core10pixelcolor9rgb_color6Rgb565E8set_gridB6_
FN:350,_RNvMNtNtCs1I4G5KWFz5n_15embedded_charts5chart4lineINtB2_9LineChartNtNtNtCshH4H1wHMe2V_22embedded_graphics_core10pixelcolor9rgb_color6Rgb565E9set_styleB6_
FN:871,_RNvMs3_NtNtCs1I4G5KWFz5n_15embedded_charts5chart4lineINtB5_16LineChartBuilderNtNtNtCshH4H1wHMe2V_22embedded_graphics_core10pixelcolor9rgb_color6Rgb565E10line_colorB9_
FN:877,_RNvMs3_NtNtCs1I4G5KWFz5n_15embedded_charts5chart4lineINtB5_16LineChartBuilderNtNtNtCshH4H1wHMe2V_22embedded_graphics_core10pixelcolor9rgb_color6Rgb565E10line_widthB9_
FN:896,_RNvMs3_NtNtCs1I4G5KWFz5n_15embedded_charts5chart4lineINtB5_16LineChartBuilderNtNtNtCshH4H1wHMe2V_22embedded_graphics_core10pixelcolor9rgb_color6Rgb565E10with_titleB9_
FN:934,_RNvMs3_NtNtCs1I4G5KWFz5n_15embedded_charts5chart4lineINtB5_16LineChartBuilderNtNtNtCshH4H1wHMe2V_22embedded_graphics_core10pixelcolor9rgb_color6Rgb565E11with_x_axisB9_
FN:940,_RNvMs3_NtNtCs1I4G5KWFz5n_15embedded_charts5chart4lineINtB5_16LineChartBuilderNtNtNtCshH4H1wHMe2V_22embedded_graphics_core10pixelcolor9rgb_color6Rgb565E11with_y_axisB9_
FN:890,_RNvMs3_NtNtCs1I4G5KWFz5n_15embedded_charts5chart4lineINtB5_16LineChartBuilderNtNtNtCshH4H1wHMe2V_22embedded_graphics_core10pixelcolor9rgb_color6Rgb565E12with_markersB9_
FN:904,_RNvMs3_NtNtCs1I4G5KWFz5n_15embedded_charts5chart4lineINtB5_16LineChartBuilderNtNtNtCshH4H1wHMe2V_22embedded_graphics_core10pixelcolor9rgb_color6Rgb565E16background_colorB9_
FN:922,_RNvMs3_NtNtCs1I4G5KWFz5n_15embedded_charts5chart4lineINtB5_16LineChartBuilderNtNtNtCshH4H1wHMe2V_22embedded_graphics_core10pixelcolor9rgb_color6Rgb565E19smooth_subdivisionsB9_
FN:860,_RNvMs3_NtNtCs1I4G5KWFz5n_15embedded_charts5chart4lineINtB5_16LineChartBuilderNtNtNtCshH4H1wHMe2V_22embedded_graphics_core10pixelcolor9rgb_color6Rgb565E3newB9_
FN:916,_RNvMs3_NtNtCs1I4G5KWFz5n_15embedded_charts5chart4lineINtB5_16LineChartBuilderNtNtNtCshH4H1wHMe2V_22embedded_graphics_core10pixelcolor9rgb_color6Rgb565E6smoothB9_
FN:910,_RNvMs3_NtNtCs1I4G5KWFz5n_15embedded_charts5chart4lineINtB5_16LineChartBuilderNtNtNtCshH4H1wHMe2V_22embedded_graphics_core10pixelcolor9rgb_color6Rgb565E7marginsB9_
FN:883,_RNvMs3_NtNtCs1I4G5KWFz5n_15embedded_charts5chart4lineINtB5_16LineChartBuilderNtNtNtCshH4H1wHMe2V_22embedded_graphics_core10pixelcolor9rgb_color6Rgb565E9fill_areaB9_
FN:928,_RNvMs3_NtNtCs1I4G5KWFz5n_15embedded_charts5chart4lineINtB5_16LineChartBuilderNtNtNtCshH4H1wHMe2V_22embedded_graphics_core10pixelcolor9rgb_color6Rgb565E9with_gridB9_
FN:818,_RNvXs1_NtNtCs1I4G5KWFz5n_15embedded_charts5chart4lineINtB5_14LineChartStyleNtNtNtCshH4H1wHMe2V_22embedded_graphics_core10pixelcolor9rgb_color6Rgb565ENtNtCs3XRySYX51hI_4core7default7Default7defaultB9_
FN:835,_RNvXs2_NtNtCs1I4G5KWFz5n_15embedded_charts5chart4lineINtB5_11MarkerStyleNtNtNtCshH4H1wHMe2V_22embedded_graphics_core10pixelcolor9rgb_color6Rgb565ENtNtCs3XRySYX51hI_4core7default7Default7defaultB9_
FN:953,_RNvXs4_NtNtCs1I4G5KWFz5n_15embedded_charts5chart4lineINtB5_16LineChartBuilderNtNtNtCshH4H1wHMe2V_22embedded_graphics_core10pixelcolor9rgb_color6Rgb565EINtNtB7_6traits12ChartBuilderB1d_E5buildB9_
FN:968,_RNvXs5_NtNtCs1I4G5KWFz5n_15embedded_charts5chart4lineINtB5_16LineChartBuilderNtNtNtCshH4H1wHMe2V_22embedded_graphics_core10pixelcolor9rgb_color6Rgb565ENtNtCs3XRySYX51hI_4core7default7Default7defaultB9_
FN:1561,_RNvXs6_NtNtCs1I4G5KWFz5n_15embedded_charts5chart4lineINtB5_9LineChartNtNtNtCshH4H1wHMe2V_22embedded_graphics_core10pixelcolor9rgb_color6Rgb565EINtNtB7_6traits9AxisChartB15_E10set_x_axisB9_
FN:1565,_RNvXs6_NtNtCs1I4G5KWFz5n_15embedded_charts5chart4lineINtB5_9LineChartNtNtNtCshH4H1wHMe2V_22embedded_graphics_core10pixelcolor9rgb_color6Rgb565EINtNtB7_6traits9AxisChartB15_E10set_y_axisB9_
FN:1569,_RNvXs6_NtNtCs1I4G5KWFz5n_15embedded_charts5chart4lineINtB5_9LineChartNtNtNtCshH4H1wHMe2V_22embedded_graphics_core10pixelcolor9rgb_color6Rgb565EINtNtB7_6traits9AxisChartB15_E6x_axisB9_
FN:1573,_RNvXs6_NtNtCs1I4G5KWFz5n_15embedded_charts5chart4lineINtB5_9LineChartNtNtNtCshH4H1wHMe2V_22embedded_graphics_core10pixelcolor9rgb_color6Rgb565EINtNtB7_6traits9AxisChartB15_E6y_axisB9_
FN:666,_RNvXs_NtNtCs1I4G5KWFz5n_15embedded_charts5chart4lineINtB4_9LineChartNtNtNtCshH4H1wHMe2V_22embedded_graphics_core10pixelcolor9rgb_color6Rgb565ENtNtCs3XRySYX51hI_4core7default7Default7defaultB8_
FN:1059,_RNvNtNtNtCs1I4G5KWFz5n_15embedded_charts5chart4line5testss_12test_setters
FN:1428,_RNvNtNtNtCs1I4G5KWFz5n_15embedded_charts5chart4line5testss_17test_axis_getters
FN:1009,_RNvNtNtNtCs1I4G5KWFz5n_15embedded_charts5chart4line5testss_17test_marker_style
FN:1399,_RNvNtNtNtCs1I4G5KWFz5n_15embedded_charts5chart4line5testss_19test_draw_with_axes
FN:1466,_RNvNtNtNtCs1I4G5KWFz5n_15embedded_charts5chart4line5testss_19test_large_data_set
FN:1215,_RNvNtNtNtCs1I4G5KWFz5n_15embedded_charts5chart4line5testss_20test_draw_empty_data
FN:1230,_RNvNtNtNtCs1I4G5KWFz5n_15embedded_charts5chart4line5testss_22test_draw_single_point
FN:1356,_RNvNtNtNtCs1I4G5KWFz5n_15embedded_charts5chart4line5testss_22test_draw_smooth_curve
FN:1144,_RNvNtNtNtCs1I4G5KWFz5n_15embedded_charts5chart4line5testss_23test_builder_edge_cases
FN:997,_RNvNtNtNtCs1I4G5KWFz5n_15embedded_charts5chart4line5testss_23test_line_chart_builder
FN:1024,_RNvNtNtNtCs1I4G5KWFz5n_15embedded_charts5chart4line5testss_23test_line_chart_default
FN:1098,_RNvNtNtNtCs1I4G5KWFz5n_15embedded_charts5chart4line5testss_24test_builder_all_options
FN:1333,_RNvNtNtNtCs1I4G5KWFz5n_15embedded_charts5chart4line5testss_24test_draw_with_area_fill
FN:985,_RNvNtNtNtCs1I4G5KWFz5n_15embedded_charts5chart4line5testss_24test_line_chart_creation
FN:1486,_RNvNtNtNtCs1I4G5KWFz5n_15embedded_charts5chart4line5testss_24test_viewport_edge_cases
FN:1246,_RNvNtNtNtCs1I4G5KWFz5n_15embedded_charts5chart4line5testss_25test_draw_with_background
FN:1043,_RNvNtNtNtCs1I4G5KWFz5n_15embedded_charts5chart4line5testss_25test_marker_style_default
FN:1505,_RNvNtNtNtCs1I4G5KWFz5n_15embedded_charts5chart4line5testss_25test_negative_data_values
FN:1458,_RNvNtNtNtCs1I4G5KWFz5n_15embedded_charts5chart4line5testss_26test_marker_shape_equality
FN:1271,_RNvNtNtNtCs1I4G5KWFz5n_15embedded_charts5chart4line5testss_27test_draw_all_marker_shapes
FN:1307,_RNvNtNtNtCs1I4G5KWFz5n_15embedded_charts5chart4line5testss_27test_draw_invisible_markers
FN:1170,_RNvNtNtNtCs1I4G5KWFz5n_15embedded_charts5chart4line5testss_28test_transform_point_no_axes
FN:1031,_RNvNtNtNtCs1I4G5KWFz5n_15embedded_charts5chart4line5testss_29test_line_chart_style_default
FN:1523,_RNvNtNtNtCs1I4G5KWFz5n_15embedded_charts5chart4line5testss_30test_transform_point_with_axes
FN:1052,_RNvNtNtNtCs1I4G5KWFz5n_15embedded_charts5chart4line5testss_31test_line_chart_builder_default
FN:1194,_RNvNtNtNtCs1I4G5KWFz5n_15embedded_charts5chart4line5testss_33test_transform_point_equal_bounds
FN:1380,_RNvNtNtNtCs1I4G5KWFz5n_15embedded_charts5chart4line5testss_42test_draw_smooth_curve_insufficient_points
FNDA:0,_RINvXININtNtCs1I4G5KWFz5n_15embedded_charts5chart4lines9_0pEINtB6_17AnimatedLineChartpEINtNtB8_6traits5ChartpE4drawpEBa_
FNDA:0,_RINvXININtNtCs1I4G5KWFz5n_15embedded_charts5chart4linesa_0pEINtB6_17AnimatedLineChartpEINtNtB8_6traits13AnimatedChartpE13draw_animatedpEBa_
FNDA:0,_RNvMs7_NtNtCs1I4G5KWFz5n_15embedded_charts5chart4lineINtB5_17AnimatedLineChartpE10base_chartB9_
FNDA:0,_RNvMs7_NtNtCs1I4G5KWFz5n_15embedded_charts5chart4lineINtB5_17AnimatedLineChartpE10set_configB9_
FNDA:0,_RNvMs7_NtNtCs1I4G5KWFz5n_15embedded_charts5chart4lineINtB5_17AnimatedLineChartpE13animated_dataB9_
FNDA:0,_RNvMs7_NtNtCs1I4G5KWFz5n_15embedded_charts5chart4lineINtB5_17AnimatedLineChartpE14base_chart_mutB9_
FNDA:0,_RNvMs7_NtNtCs1I4G5KWFz5n_15embedded_charts5chart4lineINtB5_17AnimatedLineChartpE17set_animated_dataB9_
FNDA:0,_RNvMs7_NtNtCs1I4G5KWFz5n_15embedded_charts5chart4lineINtB5_17AnimatedLineChartpE25interpolate_with_animatorB9_
FNDA:0,_RNvMs7_NtNtCs1I4G5KWFz5n_15embedded_charts5chart4lineINtB5_17AnimatedLineChartpE3newB9_
FNDA:0,_RNvMs7_NtNtCs1I4G5KWFz5n_15embedded_charts5chart4lineINtB5_17AnimatedLineChartpE4gridB9_
FNDA:0,_RNvMs7_NtNtCs1I4G5KWFz5n_15embedded_charts5chart4lineINtB5_17AnimatedLineChartpE5styleB9_
FNDA:0,_RNvMs7_NtNtCs1I4G5KWFz5n_15embedded_charts5chart4lineINtB5_17AnimatedLineChartpE6configB9_
FNDA:0,_RNvMs7_NtNtCs1I4G5KWFz5n_15embedded_charts5chart4lineINtB5_17AnimatedLineChartpE7builderB9_
FNDA:0,_RNvMs7_NtNtCs1I4G5KWFz5n_15embedded_charts5chart4lineINtB5_17AnimatedLineChartpE8set_gridB9_
FNDA:0,_RNvMs7_NtNtCs1I4G5KWFz5n_15embedded_charts5chart4lineINtB5_17AnimatedLineChartpE9set_styleB9_
FNDA:0,_RNvMsb_NtNtCs1I4G5KWFz5n_15embedded_charts5chart4lineINtB5_24AnimatedLineChartBuilderpE10frame_rateB9_
FNDA:0,_RNvMsb_NtNtCs1I4G5KWFz5n_15embedded_charts5chart4lineINtB5_24AnimatedLineChartBuilderpE10line_colorB9_
FNDA:0,_RNvMsb_NtNtCs1I4G5KWFz5n_15embedded_charts5chart4lineINtB5_24AnimatedLineChartBuilderpE10line_widthB9_
FNDA:0,_RNvMsb_NtNtCs1I4G5KWFz5n_15embedded_charts5chart4lineINtB5_24AnimatedLineChartBuilderpE10with_titleB9_
FNDA:0,_RNvMsb_NtNtCs1I4G5KWFz5n_15embedded_charts5chart4lineINtB5_24AnimatedLineChartBuilderpE11with_x_axisB9_
FNDA:0,_RNvMsb_NtNtCs1I4G5KWFz5n_15embedded_charts5chart4lineINtB5_24AnimatedLineChartBuilderpE11with_y_axisB9_
FNDA:0,_RNvMsb_NtNtCs1I4G5KWFz5n_15embedded_charts5chart4lineINtB5_24AnimatedLineChartBuilderpE12with_markersB9_
FNDA:0,_RNvMsb_NtNtCs1I4G5KWFz5n_15embedded_charts5chart4lineINtB5_24AnimatedLineChartBuilderpE16background_colorB9_
FNDA:0,_RNvMsb_NtNtCs1I4G5KWFz5n_15embedded_charts5chart4lineINtB5_24AnimatedLineChartBuilderpE19smooth_subdivisionsB9_
FNDA:0,_RNvMsb_NtNtCs1I4G5KWFz5n_15embedded_charts5chart4lineINtB5_24AnimatedLineChartBuilderpE3newB9_
FNDA:0,_RNvMsb_NtNtCs1I4G5KWFz5n_15embedded_charts5chart4lineINtB5_24AnimatedLineChartBuilderpE5buildB9_
FNDA:0,_RNvMsb_NtNtCs1I4G5KWFz5n_15embedded_charts5chart4lineINtB5_24AnimatedLineChartBuilderpE6smoothB9_
FNDA:0,_RNvMsb_NtNtCs1I4G5KWFz5n_15embedded_charts5chart4lineINtB5_24AnimatedLineChartBuilderpE7marginsB9_
FNDA:0,_RNvMsb_NtNtCs1I4G5KWFz5n_15embedded_charts5chart4lineINtB5_24AnimatedLineChartBuilderpE9fill_areaB9_
FNDA:0,_RNvMsb_NtNtCs1I4G5KWFz5n_15embedded_charts5chart4lineINtB5_24AnimatedLineChartBuilderpE9with_gridB9_
FNDA:0,_RNvXININtNtCs1I4G5KWFz5n_15embedded_charts5chart4lines8_0pEINtB5_17AnimatedLineChartpENtNtCs3XRySYX51hI_4core7default7Default7defaultB9_
FNDA:0,_RNvXININtNtCs1I4G5KWFz5n_15embedded_charts5chart4linesa_0pEINtB5_17AnimatedLineChartpEINtNtB7_6traits13AnimatedChartpE21extract_animated_dataB9_
FNDA:0,_RNvXININtNtCs1I4G5KWFz5n_15embedded_charts5chart4linesa_0pEINtB5_17AnimatedLineChartpEINtNtB7_6traits13AnimatedChartpE26create_transition_animatorB9_
FNDA:0,_RNvXININtNtCs1I4G5KWFz5n_15embedded_charts5chart4linesc_0pEINtB5_24AnimatedLineChartBuilderpENtNtCs3XRySYX51hI_4core7default7Default7defaultB9_
FNDA:12,_RINvMNtNtCs1I4G5KWFz5n_15embedded_charts5chart4lineINtB3_9LineChartNtNtNtCshH4H1wHMe2V_22embedded_graphics_core10pixelcolor9rgb_color6Rgb565E11draw_markerINtNtCs5C7UwTAEl8q_17embedded_graphics12mock_display11MockDisplayB13_EEB7_
FNDA:18,_RINvMNtNtCs1I4G5KWFz5n_15embedded_charts5chart4lineINtB3_9LineChartNtNtNtCshH4H1wHMe2V_22embedded_graphics_core10pixelcolor9rgb_color6Rgb565E12draw_markersINtNtCs5C7UwTAEl8q_17embedded_graphics12mock_display11MockDisplayB13_EEB7_
FNDA:2,_RINvMNtNtCs1I4G5KWFz5n_15embedded_charts5chart4lineINtB3_9LineChartNtNtNtCshH4H1wHMe2V_22embedded_graphics_core10pixelcolor9rgb_color6Rgb565E14draw_area_fillINtNtCs5C7UwTAEl8q_17embedded_graphics12mock_display11MockDisplayB13_EEB7_
FNDA:199,_RINvMNtNtCs1I4G5KWFz5n_15embedded_charts5chart4lineINtB3_9LineChartNtNtNtCshH4H1wHMe2V_22embedded_graphics_core10pixelcolor9rgb_color6Rgb565E15transform_pointNtNtNtB7_4data5point7Point2DEB7_
FNDA:19,_RINvXs0_NtNtCs1I4G5KWFz5n_15embedded_charts5chart4lineINtB6_9LineChartNtNtNtCshH4H1wHMe2V_22embedded_graphics_core10pixelcolor9rgb_color6Rgb565EINtNtB8_6traits5ChartB16_E4drawINtNtCs5C7UwTAEl8q_17embedded_graphics12mock_display11MockDisplayB16_EEBa_
FNDA:0,_RNCINvMNtNtCs1I4G5KWFz5n_15embedded_charts5chart4lineINtB5_9LineChartNtNtNtCshH4H1wHMe2V_22embedded_graphics_core10pixelcolor9rgb_color6Rgb565E11draw_markerINtNtCs5C7UwTAEl8q_17embedded_graphics12mock_display11MockDisplayB15_EE0B9_
FNDA:0,_RNCINvMNtNtCs1I4G5KWFz5n_15embedded_charts5chart4lineINtB5_9LineChartNtNtNtCshH4H1wHMe2V_22embedded_graphics_core10pixelcolor9rgb_color6Rgb565E11draw_markerINtNtCs5C7UwTAEl8q_17embedded_graphics12mock_display11MockDisplayB15_EEs0_0B9_
FNDA:0,_RNCINvMNtNtCs1I4G5KWFz5n_15embedded_charts5chart4lineINtB5_9LineChartNtNtNtCshH4H1wHMe2V_22embedded_graphics_core10pixelcolor9rgb_color6Rgb565E11draw_markerINtNtCs5C7UwTAEl8q_17embedded_graphics12mock_display11MockDisplayB15_EEs1_0B9_
FNDA:0,_RNCINvMNtNtCs1I4G5KWFz5n_15embedded_charts5chart4lineINtB5_9LineChartNtNtNtCshH4H1wHMe2V_22embedded_graphics_core10pixelcolor9rgb_color6Rgb565E11draw_markerINtNtCs5C7UwTAEl8q_17embedded_graphics12mock_display11MockDisplayB15_EEs_0B9_
FNDA:12,_RNCINvMNtNtCs1I4G5KWFz5n_15embedded_charts5chart4lineINtB5_9LineChartNtNtNtCshH4H1wHMe2V_22embedded_graphics_core10pixelcolor9rgb_color6Rgb565E14draw_area_fillINtNtCs5C7UwTAEl8q_17embedded_graphics12mock_display11MockDisplayB15_EE0B9_
FNDA:0,_RNCINvMNtNtCs1I4G5KWFz5n_15embedded_charts5chart4lineINtB5_9LineChartNtNtNtCshH4H1wHMe2V_22embedded_graphics_core10pixelcolor9rgb_color6Rgb565E14draw_area_fillINtNtCs5C7UwTAEl8q_17embedded_graphics12mock_display11MockDisplayB15_EEs0_0B9_
FNDA:12,_RNCINvMNtNtCs1I4G5KWFz5n_15embedded_charts5chart4lineINtB5_9LineChartNtNtNtCshH4H1wHMe2V_22embedded_graphics_core10pixelcolor9rgb_color6Rgb565E14draw_area_fillINtNtCs5C7UwTAEl8q_17embedded_graphics12mock_display11MockDisplayB15_EEs_0B9_
FNDA:0,_RNCINvXs0_NtNtCs1I4G5KWFz5n_15embedded_charts5chart4lineINtB8_9LineChartNtNtNtCshH4H1wHMe2V_22embedded_graphics_core10pixelcolor9rgb_color6Rgb565EINtNtBa_6traits5ChartB18_E4drawINtNtCs5C7UwTAEl8q_17embedded_graphics12mock_display11MockDisplayB18_EE0Bc_
FNDA:0,_RNCINvXs0_NtNtCs1I4G5KWFz5n_15embedded_charts5chart4lineINtB8_9LineChartNtNtNtCshH4H1wHMe2V_22embedded_graphics_core10pixelcolor9rgb_color6Rgb565EINtNtBa_6traits5ChartB18_E4drawINtNtCs5C7UwTAEl8q_17embedded_graphics12mock_display11MockDisplayB18_EEs0_0Bc_
FNDA:0,_RNCINvXs0_NtNtCs1I4G5KWFz5n_15embedded_charts5chart4lineINtB8_9LineChartNtNtNtCshH4H1wHMe2V_22embedded_graphics_core10pixelcolor9rgb_color6Rgb565EINtNtBa_6traits5ChartB18_E4drawINtNtCs5C7UwTAEl8q_17embedded_graphics12mock_display11MockDisplayB18_EEs1_0Bc_
FNDA:0,_RNCINvXs0_NtNtCs1I4G5KWFz5n_15embedded_charts5chart4lineINtB8_9LineChartNtNtNtCshH4H1wHMe2V_22embedded_graphics_core10pixelcolor9rgb_color6Rgb565EINtNtBa_6traits5ChartB18_E4drawINtNtCs5C7UwTAEl8q_17embedded_graphics12mock_display11MockDisplayB18_EEs2_0Bc_
FNDA:0,_RNCINvXs0_NtNtCs1I4G5KWFz5n_15embedded_charts5chart4lineINtB8_9LineChartNtNtNtCshH4H1wHMe2V_22embedded_graphics_core10pixelcolor9rgb_color6Rgb565EINtNtBa_6traits5ChartB18_E4drawINtNtCs5C7UwTAEl8q_17embedded_graphics12mock_display11MockDisplayB18_EEs_0Bc_
FNDA:2,_RNvMNtNtCs1I4G5KWFz5n_15embedded_charts5chart4lineINtB2_9LineChartNtNtNtCshH4H1wHMe2V_22embedded_graphics_core10pixelcolor9rgb_color6Rgb565E10set_configB6_
FNDA:20,_RNvMNtNtCs1I4G5KWFz5n_15embedded_charts5chart4lineINtB2_9LineChartNtNtNtCshH4H1wHMe2V_22embedded_graphics_core10pixelcolor9rgb_color6Rgb565E3newB6_
FNDA:6,_RNvMNtNtCs1I4G5KWFz5n_15embedded_charts5chart4lineINtB2_9LineChartNtNtNtCshH4H1wHMe2V_22embedded_graphics_core10pixelcolor9rgb_color6Rgb565E4gridB6_
FNDA:58,_RNvMNtNtCs1I4G5KWFz5n_15embedded_charts5chart4lineINtB2_9LineChartNtNtNtCshH4H1wHMe2V_22embedded_graphics_core10pixelcolor9rgb_color6Rgb565E5styleB6_
FNDA:14,_RNvMNtNtCs1I4G5KWFz5n_15embedded_charts5chart4lineINtB2_9LineChartNtNtNtCshH4H1wHMe2V_22embedded_graphics_core10pixelcolor9rgb_color6Rgb565E6configB6_
FNDA:23,_RNvMNtNtCs1I4G5KWFz5n_15embedded_charts5chart4lineINtB2_9LineChartNtNtNtCshH4H1wHMe2V_22embedded_graphics_core10pixelcolor9rgb_color6Rgb565E7builderB6_
FNDA:4,_RNvMNtNtCs1I4G5KWFz5n_15embedded_charts5chart4lineINtB2_9LineChartNtNtNtCshH4H1wHMe2V_22embedded_graphics_core10pixelcolor9rgb_color6Rgb565E8set_gridB6_
FNDA:3,_RNvMNtNtCs1I4G5KWFz5n_15embedded_charts5chart4lineINtB2_9LineChartNtNtNtCshH4H1wHMe2V_22embedded_graphics_core10pixelcolor9rgb_color6Rgb565E9set_styleB6_
FNDA:17,_RNvMs3_NtNtCs1I4G5KWFz5n_15embedded_charts5chart4lineINtB5_16LineChartBuilderNtNtNtCshH4H1wHMe2V_22embedded_graphics_core10pixelcolor9rgb_color6Rgb565E10line_colorB9_
FNDA:12,_RNvMs3_NtNtCs1I4G5KWFz5n_15embedded_charts5chart4lineINtB5_16LineChartBuilderNtNtNtCshH4H1wHMe2V_22embedded_graphics_core10pixelcolor9rgb_color6Rgb565E10line_widthB9_
FNDA:2,_RNvMs3_NtNtCs1I4G5KWFz5n_15embedded_charts5chart4lineINtB5_16LineChartBuilderNtNtNtCshH4H1wHMe2V_22embedded_graphics_core10pixelcolor9rgb_color6Rgb565E10with_titleB9_
FNDA:2,_RNvMs3_NtNtCs1I4G5KWFz5n_15embedded_charts5chart4lineINtB5_16LineChartBuilderNtNtNtCshH4H1wHMe2V_22embedded_graphics_core10pixelcolor9rgb_color6Rgb565E11with_x_axisB9_
FNDA:2,_RNvMs3_NtNtCs1I4G5KWFz5n_15embedded_charts5chart4lineINtB5_16LineChartBuilderNtNtNtCshH4H1wHMe2V_22embedded_graphics_core10pixelcolor9rgb_color6Rgb565E11with_y_axisB9_
FNDA:10,_RNvMs3_NtNtCs1I4G5KWFz5n_15embedded_charts5chart4lineINtB5_16LineChartBuilderNtNtNtCshH4H1wHMe2V_22embedded_graphics_core10pixelcolor9rgb_color6Rgb565E12with_markersB9_
FNDA:3,_RNvMs3_NtNtCs1I4G5KWFz5n_15embedded_charts5chart4lineINtB5_16LineChartBuilderNtNtNtCshH4H1wHMe2V_22embedded_graphics_core10pixelcolor9rgb_color6Rgb565E16background_colorB9_
FNDA:4,_RNvMs3_NtNtCs1I4G5KWFz5n_15embedded_charts5chart4lineINtB5_16LineChartBuilderNtNtNtCshH4H1wHMe2V_22embedded_graphics_core10pixelcolor9rgb_color6Rgb565E19smooth_subdivisionsB9_
FNDA:36,_RNvMs3_NtNtCs1I4G5KWFz5n_15embedded_charts5chart4lineINtB5_16LineChartBuilderNtNtNtCshH4H1wHMe2V_22embedded_graphics_core10pixelcolor9rgb_color6Rgb565E3newB9_
FNDA:10,_RNvMs3_NtNtCs1I4G5KWFz5n_15embedded_charts5chart4lineINtB5_16LineChartBuilderNtNtNtCshH4H1wHMe2V_22embedded_graphics_core10pixelcolor9rgb_color6Rgb565E6smoothB9_
FNDA:2,_RNvMs3_NtNtCs1I4G5KWFz5n_15embedded_charts5chart4lineINtB5_16LineChartBuilderNtNtNtCshH4H1wHMe2V_22embedded_graphics_core10pixelcolor9rgb_color6Rgb565E7marginsB9_
FNDA:6,_RNvMs3_NtNtCs1I4G5KWFz5n_15embedded_charts5chart4lineINtB5_16LineChartBuilderNtNtNtCshH4H1wHMe2V_22embedded_graphics_core10pixelcolor9rgb_color6Rgb565E9fill_areaB9_
FNDA:2,_RNvMs3_NtNtCs1I4G5KWFz5n_15embedded_charts5chart4lineINtB5_16LineChartBuilderNtNtNtCshH4H1wHMe2V_22embedded_graphics_core10pixelcolor9rgb_color6Rgb565E9with_gridB9_
FNDA:57,_RNvXs1_NtNtCs1I4G5KWFz5n_15embedded_charts5chart4lineINtB5_14LineChartStyleNtNtNtCshH4H1wHMe2V_22embedded_graphics_core10pixelcolor9rgb_color6Rgb565ENtNtCs3XRySYX51hI_4core7default7Default7defaultB9_
FNDA:2,_RNvXs2_NtNtCs1I4G5KWFz5n_15embedded_charts5chart4lineINtB5_11MarkerStyleNtNtNtCshH4H1wHMe2V_22embedded_graphics_core10pixelcolor9rgb_color6Rgb565ENtNtCs3XRySYX51hI_4core7default7Default7defaultB9_
FNDA:36,_RNvXs4_NtNtCs1I4G5KWFz5n_15embedded_charts5chart4lineINtB5_16LineChartBuilderNtNtNtCshH4H1wHMe2V_22embedded_graphics_core10pixelcolor9rgb_color6Rgb565EINtNtB7_6traits12ChartBuilderB1d_E5buildB9_
FNDA:1,_RNvXs5_NtNtCs1I4G5KWFz5n_15embedded_charts5chart4lineINtB5_16LineChartBuilderNtNtNtCshH4H1wHMe2V_22embedded_graphics_core10pixelcolor9rgb_color6Rgb565ENtNtCs3XRySYX51hI_4core7default7Default7defaultB9_
FNDA:3,_RNvXs6_NtNtCs1I4G5KWFz5n_15embedded_charts5chart4lineINtB5_9LineChartNtNtNtCshH4H1wHMe2V_22embedded_graphics_core10pixelcolor9rgb_color6Rgb565EINtNtB7_6traits9AxisChartB15_E10set_x_axisB9_
FNDA:3,_RNvXs6_NtNtCs1I4G5KWFz5n_15embedded_charts5chart4lineINtB5_9LineChartNtNtNtCshH4H1wHMe2V_22embedded_graphics_core10pixelcolor9rgb_color6Rgb565EINtNtB7_6traits9AxisChartB15_E10set_y_axisB9_
FNDA:2,_RNvXs6_NtNtCs1I4G5KWFz5n_15embedded_charts5chart4lineINtB5_9LineChartNtNtNtCshH4H1wHMe2V_22embedded_graphics_core10pixelcolor9rgb_color6Rgb565EINtNtB7_6traits9AxisChartB15_E6x_axisB9_
FNDA:2,_RNvXs6_NtNtCs1I4G5KWFz5n_15embedded_charts5chart4lineINtB5_9LineChartNtNtNtCshH4H1wHMe2V_22embedded_graphics_core10pixelcolor9rgb_color6Rgb565EINtNtB7_6traits9AxisChartB15_E6y_axisB9_
FNDA:1,_RNvXs_NtNtCs1I4G5KWFz5n_15embedded_charts5chart4lineINtB4_9LineChartNtNtNtCshH4H1wHMe2V_22embedded_graphics_core10pixelcolor9rgb_color6Rgb565ENtNtCs3XRySYX51hI_4core7default7Default7defaultB8_
FNDA:1,_RNvNtNtNtCs1I4G5KWFz5n_15embedded_charts5chart4line5testss_12test_setters
FNDA:1,_RNvNtNtNtCs1I4G5KWFz5n_15embedded_charts5chart4line5testss_17test_axis_getters
FNDA:1,_RNvNtNtNtCs1I4G5KWFz5n_15embedded_charts5chart4line5testss_17test_marker_style
FNDA:1,_RNvNtNtNtCs1I4G5KWFz5n_15embedded_charts5chart4line5testss_19test_draw_with_axes
FNDA:1,_RNvNtNtNtCs1I4G5KWFz5n_15embedded_charts5chart4line5testss_19test_large_data_set
FNDA:1,_RNvNtNtNtCs1I4G5KWFz5n_15embedded_charts5chart4line5testss_20test_draw_empty_data
FNDA:1,_RNvNtNtNtCs1I4G5KWFz5n_15embedded_charts5chart4line5testss_22test_draw_single_point
FNDA:1,_RNvNtNtNtCs1I4G5KWFz5n_15embedded_charts5chart4line5testss_22test_draw_smooth_curve
FNDA:1,_RNvNtNtNtCs1I4G5KWFz5n_15embedded_charts5chart4line5testss_23test_builder_edge_cases
FNDA:1,_RNvNtNtNtCs1I4G5KWFz5n_15embedded_charts5chart4line5testss_23test_line_chart_builder
FNDA:1,_RNvNtNtNtCs1I4G5KWFz5n_15embedded_charts5chart4line5testss_23test_line_chart_default
FNDA:1,_RNvNtNtNtCs1I4G5KWFz5n_15embedded_charts5chart4line5testss_24test_builder_all_options
FNDA:1,_RNvNtNtNtCs1I4G5KWFz5n_15embedded_charts5chart4line5testss_24test_draw_with_area_fill
FNDA:1,_RNvNtNtNtCs1I4G5KWFz5n_15embedded_charts5chart4line5testss_24test_line_chart_creation
FNDA:1,_RNvNtNtNtCs1I4G5KWFz5n_15embedded_charts5chart4line5testss_24test_viewport_edge_cases
FNDA:1,_RNvNtNtNtCs1I4G5KWFz5n_15embedded_charts5chart4line5testss_25test_draw_with_background
FNDA:1,_RNvNtNtNtCs1I4G5KWFz5n_15embedded_charts5chart4line5testss_25test_marker_style_default
FNDA:1,_RNvNtNtNtCs1I4G5KWFz5n_15embedded_charts5chart4line5testss_25test_negative_data_values
FNDA:1,_RNvNtNtNtCs1I4G5KWFz5n_15embedded_charts5chart4line5testss_26test_marker_shape_equality
FNDA:1,_RNvNtNtNtCs1I4G5KWFz5n_15embedded_charts5chart4line5testss_27test_draw_all_marker_shapes
FNDA:1,_RNvNtNtNtCs1I4G5KWFz5n_15embedded_charts5chart4line5testss_27test_draw_invisible_markers
FNDA:1,_RNvNtNtNtCs1I4G5KWFz5n_15embedded_charts5chart4line5testss_28test_transform_point_no_axes
FNDA:1,_RNvNtNtNtCs1I4G5KWFz5n_15embedded_charts5chart4line5testss_29test_line_chart_style_default
FNDA:1,_RNvNtNtNtCs1I4G5KWFz5n_15embedded_charts5chart4line5testss_30test_transform_point_with_axes
FNDA:1,_RNvNtNtNtCs1I4G5KWFz5n_15embedded_charts5chart4line5testss_31test_line_chart_builder_default
FNDA:1,_RNvNtNtNtCs1I4G5KWFz5n_15embedded_charts5chart4line5testss_33test_transform_point_equal_bounds
FNDA:1,_RNvNtNtNtCs1I4G5KWFz5n_15embedded_charts5chart4line5testss_42test_draw_smooth_curve_insufficient_points
FNF:108
FNH:64
DA:291,20
DA:292,20
DA:293,20
DA:294,20
DA:295,20
DA:296,20
DA:297,20
DA:298,20
DA:299,20
DA:319,23
DA:320,23
DA:321,23
DA:350,3
DA:351,3
DA:352,3
DA:362,58
DA:363,58
DA:364,58
DA:374,2
DA:375,2
DA:376,2
DA:383,14
DA:384,14
DA:385,14
DA:408,4
DA:409,4
DA:410,4
DA:417,6
DA:418,6
DA:419,6
DA:422,199
DA:423,199
DA:424,199
DA:425,199
DA:426,199
DA:427,199
DA:428,199
DA:429,199
DA:430,199
DA:431,199
DA:432,199
DA:433,199
DA:434,199
DA:435,199
DA:438,199
DA:439,4
DA:440,4
DA:441,4
DA:443,195
DA:444,195
DA:445,195
DA:446,195
DA:449,199
DA:450,4
DA:451,4
DA:452,4
DA:454,195
DA:455,195
DA:456,195
DA:457,195
DA:461,199
DA:464,199
DA:465,196
DA:466,196
DA:467,196
DA:469,3
DA:472,199
DA:473,196
DA:474,196
DA:475,196
DA:477,3
DA:481,199
DA:482,199
DA:483,199
DA:484,199
DA:485,199
DA:486,199
DA:487,199
DA:488,199
DA:489,199
DA:490,199
DA:491,199
DA:494,18
DA:495,18
DA:496,18
DA:497,18
DA:498,18
DA:499,18
DA:500,18
DA:501,18
DA:502,18
DA:503,18
DA:504,18
DA:505,5
DA:506,12
DA:507,12
DA:508,12
DA:510,1
DA:511,13
DA:512,18
DA:513,18
DA:516,12
DA:517,12
DA:518,12
DA:519,12
DA:520,12
DA:521,12
DA:522,12
DA:523,12
DA:524,12
DA:525,12
DA:526,12
DA:527,12
DA:528,12
DA:530,3
DA:531,3
DA:532,3
DA:533,3
DA:534,3
DA:535,3
DA:536,3
DA:539,3
DA:540,3
DA:541,3
DA:542,3
DA:543,3
DA:544,3
DA:545,3
DA:551,3
DA:552,3
DA:553,3
DA:554,3
DA:555,3
DA:556,3
DA:557,3
DA:558,3
DA:559,3
DA:565,3
DA:566,3
DA:567,3
DA:568,3
DA:569,3
DA:570,3
DA:571,3
DA:572,3
DA:576,12
DA:577,12
DA:580,2
DA:581,2
DA:582,2
DA:583,2
DA:584,2
DA:585,2
DA:586,2
DA:587,2
DA:588,2
DA:589,2
DA:590,2
DA:591,2
DA:592,0
DA:593,2
DA:594,2
DA:595,2
DA:596,2
DA:597,2
DA:600,2
DA:601,2
DA:602,2
DA:603,2
DA:604,2
DA:605,12
DA:606,2
DA:607,2
DA:608,2
DA:609,2
DA:610,12
DA:611,2
DA:612,2
DA:615,360
DA:616,360
DA:617,360
DA:619,0
DA:620,360
DA:621,360
DA:622,360
DA:623,360
DA:626,1080
DA:627,1080
DA:628,1080
DA:629,360
DA:630,0
DA:631,360
DA:632,360
DA:633,360
DA:634,360
DA:635,360
DA:636,720
DA:637,0
DA:641,360
DA:642,360
DA:643,360
DA:644,360
DA:645,360
DA:646,360
DA:647,360
DA:648,360
DA:649,360
DA:650,360
DA:651,360
DA:652,360
DA:653,360
DA:654,360
DA:655,0
DA:658,2
DA:659,2
DA:666,1
DA:667,1
DA:668,1
DA:678,19
DA:679,19
DA:680,19
DA:681,19
DA:682,19
DA:683,19
DA:684,19
DA:685,19
DA:686,19
DA:687,19
DA:688,19
DA:689,19
DA:690,19
DA:691,19
DA:692,19
DA:693,1
DA:694,18
DA:697,18
DA:700,18
DA:701,1
DA:702,1
DA:703,1
DA:704,1
DA:705,17
DA:709,18
DA:712,18
DA:713,1
DA:714,17
DA:717,18
DA:718,1
DA:719,17
DA:723,18
DA:724,0
DA:725,0
DA:726,18
DA:729,18
DA:735,1
DA:736,3
DA:737,3
DA:738,3
DA:739,3
DA:742,1
DA:743,1
DA:744,1
DA:745,1
DA:746,1
DA:747,1
DA:749,1
DA:750,1
DA:753,1
DA:754,17
DA:755,17
DA:756,17
DA:757,17
DA:759,1
DA:762,17
DA:766,18
DA:767,183
DA:768,183
DA:769,183
DA:770,183
DA:771,183
DA:775,18
DA:776,2
DA:777,2
DA:778,0
DA:779,16
DA:782,18
DA:783,165
DA:784,165
DA:785,165
DA:786,165
DA:787,165
DA:788,165
DA:789,0
DA:793,18
DA:797,18
DA:800,18
DA:801,1
DA:802,17
DA:805,18
DA:806,1
DA:807,17
DA:810,18
DA:811,19
DA:818,57
DA:819,57
DA:820,57
DA:821,57
DA:822,57
DA:823,57
DA:824,57
DA:825,57
DA:826,57
DA:827,57
DA:828,57
DA:835,2
DA:836,2
DA:837,2
DA:838,2
DA:839,2
DA:840,2
DA:841,2
DA:842,2
DA:860,36
DA:861,36
DA:862,36
DA:863,36
DA:864,36
DA:865,36
DA:866,36
DA:867,36
DA:868,36
DA:871,17
DA:872,17
DA:873,17
DA:874,17
DA:877,12
DA:878,12
DA:879,12
DA:880,12
DA:883,6
DA:884,6
DA:885,6
DA:886,6
DA:887,6
DA:890,10
DA:891,10
DA:892,10
DA:893,10
DA:896,2
DA:897,2
DA:898,2
DA:899,2
DA:900,2
DA:901,2
DA:904,3
DA:905,3
DA:906,3
DA:907,3
DA:910,2
DA:911,2
DA:912,2
DA:913,2
DA:916,10
DA:917,10
DA:918,10
DA:919,10
DA:922,4
DA:923,4
DA:924,4
DA:925,4
DA:928,2
DA:929,2
DA:930,2
DA:931,2
DA:934,2
DA:935,2
DA:936,2
DA:937,2
DA:940,2
DA:941,2
DA:942,2
DA:943,2
DA:953,36
DA:954,36
DA:955,36
DA:956,36
DA:957,36
DA:958,36
DA:959,36
DA:960,36
DA:961,36
DA:968,1
DA:969,1
DA:970,1
DA:985,1
DA:986,1
DA:987,1
DA:988,1
DA:989,1
DA:990,1
DA:991,1
DA:992,1
DA:993,1
DA:994,1
DA:997,1
DA:998,1
DA:999,1
DA:1000,1
DA:1001,1
DA:1002,1
DA:1003,1
DA:1004,1
DA:1005,1
DA:1006,1
DA:1009,1
DA:1010,1
DA:1011,1
DA:1012,1
DA:1013,1
DA:1014,1
DA:1015,1
DA:1016,1
DA:1017,1
DA:1018,1
DA:1019,1
DA:1020,1
DA:1021,1
DA:1024,1
DA:1025,1
DA:1026,1
DA:1027,1
DA:1028,1
DA:1031,1
DA:1032,1
DA:1033,1
DA:1034,1
DA:1035,1
DA:1036,1
DA:1037,1
DA:1038,1
DA:1039,1
DA:1040,1
DA:1043,1
DA:1044,1
DA:1045,1
DA:1046,1
DA:1047,1
DA:1048,1
DA:1049,1
DA:1052,1
DA:1053,1
DA:1054,1
DA:1055,1
DA:1056,1
DA:1059,1
DA:1060,1
DA:1061,1
DA:1062,1
DA:1063,1
DA:1064,1
DA:1065,1
DA:1066,1
DA:1067,1
DA:1068,1
DA:1069,1
DA:1070,1
DA:1071,1
DA:1072,1
DA:1073,1
DA:1074,1
DA:1075,1
DA:1078,1
DA:1079,1
DA:1080,1
DA:1081,1
DA:1082,1
DA:1083,1
DA:1084,1
DA:1085,1
DA:1086,1
DA:1089,1
DA:1090,1
DA:1091,1
DA:1093,1
DA:1094,1
DA:1095,1
DA:1098,1
DA:1099,1
DA:1100,1
DA:1101,1
DA:1102,1
DA:1103,1
DA:1104,1
DA:1105,1
DA:1106,1
DA:1107,1
DA:1108,1
DA:1109,1
DA:1110,1
DA:1111,1
DA:1112,1
DA:1113,1
DA:1114,1
DA:1115,1
DA:1116,1
DA:1117,1
DA:1118,1
DA:1119,1
DA:1120,1
DA:1121,1
DA:1122,1
DA:1123,1
DA:1124,1
DA:1125,1
DA:1126,1
DA:1127,1
DA:1128,1
DA:1129,1
DA:1130,1
DA:1131,1
DA:1132,1
DA:1133,1
DA:1134,1
DA:1135,1
DA:1136,1
DA:1137,1
DA:1138,1
DA:1139,1
DA:1140,1
DA:1141,1
DA:1144,1
DA:1145,1
DA:1146,1
DA:1147,1
DA:1148,1
DA:1149,1
DA:1150,1
DA:1153,1
DA:1154,1
DA:1155,1
DA:1156,1
DA:1157,1
DA:1158,1
DA:1161,1
DA:1162,1
DA:1163,1
DA:1164,1
DA:1165,1
DA:1166,1
DA:1167,1
DA:1170,1
DA:1171,1
DA:1172,1
DA:1173,1
DA:1174,1
DA:1175,1
DA:1176,1
DA:1177,1
DA:1178,1
DA:1179,1
DA:1180,1
DA:1181,1
DA:1182,1
DA:1183,1
DA:1184,1
DA:1187,1
DA:1188,1
DA:1189,1
DA:1190,1
DA:1191,1
DA:1194,1
DA:1195,1
DA:1196,1
DA:1197,1
DA:1198,1
DA:1199,1
DA:1200,1
DA:1201,1
DA:1202,1
DA:1203,1
DA:1204,1
DA:1205,1
DA:1206,1
DA:1207,1
DA:1208,1
DA:1209,1
DA:1210,1
DA:1211,1
DA:1212,1
DA:1215,1
DA:1216,1
DA:1217,1
DA:1218,1
DA:1219,1
DA:1220,1
DA:1221,1
DA:1222,1
DA:1223,1
DA:1224,1
DA:1225,1
DA:1226,1
DA:1227,1
DA:1230,1
DA:1231,1
DA:1232,1
DA:1233,1
DA:1234,1
DA:1235,1
DA:1236,1
DA:1237,1
DA:1238,1
DA:1239,1
DA:1240,1
DA:1241,1
DA:1242,1
DA:1243,1
DA:1246,1
DA:1247,1
DA:1248,1
DA:1249,1
DA:1250,1
DA:1251,1
DA:1252,1
DA:1253,1
DA:1254,1
DA:1255,1
DA:1256,1
DA:1257,1
DA:1258,1
DA:1259,1
DA:1260,1
DA:1261,1
DA:1262,1
DA:1263,1
DA:1264,1
DA:1265,1
DA:1266,1
DA:1267,1
DA:1268,1
DA:1271,1
DA:1272,1
DA:1273,1
DA:1274,1
DA:1275,1
DA:1276,1
DA:1277,1
DA:1279,5
DA:1280,4
DA:1281,4
DA:1282,4
DA:1283,4
DA:1284,4
DA:1285,4
DA:1286,4
DA:1287,4
DA:1288,4
DA:1289,4
DA:1290,4
DA:1291,4
DA:1292,4
DA:1293,4
DA:1294,4
DA:1295,4
DA:1296,4
DA:1297,4
DA:1298,4
DA:1299,4
DA:1300,4
DA:1301,4
DA:1302,4
DA:1304,1
DA:1307,1
DA:1308,1
DA:1309,1
DA:1310,1
DA:1311,1
DA:1312,1
DA:1313,1
DA:1314,1
DA:1315,1
DA:1316,1
DA:1317,1
DA:1318,1
DA:1319,1
DA:1320,1
DA:1321,1
DA:1322,1
DA:1323,1
DA:1324,1
DA:1325,1
DA:1326,1
DA:1327,1
DA:1328,1
DA:1329,1
DA:1330,1
DA:1333,1
DA:1334,1
DA:1335,1
DA:1336,1
DA:1337,1
DA:1338,1
DA:1339,1
DA:1340,1
DA:1341,1
DA:1342,1
DA:1343,1
DA:1344,1
DA:1345,1
DA:1346,1
DA:1347,1
DA:1348,1
DA:1349,1
DA:1350,1
DA:1351,1
DA:1352,1
DA:1353,1
DA:1356,1
DA:1357,1
DA:1358,1
DA:1359,1
DA:1360,1
DA:1361,1
DA:1362,1
DA:1363,1
DA:1364,1
DA:1365,1
DA:1366,1
DA:1367,1
DA:1368,1
DA:1369,1
DA:1370,1
DA:1371,1
DA:1372,1
DA:1373,1
DA:1374,1
DA:1375,1
DA:1376,1
DA:1377,1
DA:1380,1
DA:1381,1
DA:1382,1
DA:1383,1
DA:1384,1
DA:1385,1
DA:1386,1
DA:1387,1
DA:1388,1
DA:1389,1
DA:1390,1
DA:1391,1
DA:1392,1
DA:1393,1
DA:1394,1
DA:1395,1
DA:1396,1
DA:1399,1
DA:1400,1
DA:1401,1
DA:1402,1
DA:1403,1
DA:1404,1
DA:1405,1
DA:1406,1
DA:1407,1
DA:1408,1
DA:1409,1
DA:1410,1
DA:1411,1
DA:1412,1
DA:1413,1
DA:1414,1
DA:1415,1
DA:1416,1
DA:1417,1
DA:1418,1
DA:1419,1
DA:1420,1
DA:1421,1
DA:1422,1
DA:1423,1
DA:1424,1
DA:1425,1
DA:1428,1
DA:1429,1
DA:1430,1
DA:1431,1
DA:1432,1
DA:1433,1
DA:1436,1
DA:1437,1
DA:1442,1
DA:1443,1
DA:1444,1
DA:1445,1
DA:1446,1
DA:1447,1
DA:1448,1
DA:1449,1
DA:1450,1
DA:1451,1
DA:1452,1
DA:1453,1
DA:1454,1
DA:1455,1
DA:1458,1
DA:1459,1
DA:1460,1
DA:1461,1
DA:1462,1
DA:1463,1
DA:1466,1
DA:1467,1
DA:1468,1
DA:1469,1
DA:1470,1
DA:1471,1
DA:1472,1
DA:1473,1
DA:1474,1
DA:1477,101
DA:1478,100
DA:1479,100
DA:1481,1
DA:1482,1
DA:1483,1
DA:1486,1
DA:1487,1
DA:1488,1
DA:1489,1
DA:1490,1
DA:1491,1
DA:1492,1
DA:1493,1
DA:1494,1
DA:1495,1
DA:1496,1
DA:1497,1
DA:1498,1
DA:1499,1
DA:1500,1
DA:1501,1
DA:1502,1
DA:1505,1
DA:1506,1
DA:1507,1
DA:1508,1
DA:1509,1
DA:1510,1
DA:1511,1
DA:1512,1
DA:1513,1
DA:1514,1
DA:1515,1
DA:1516,1
DA:1517,1
DA:1518,1
DA:1519,1
DA:1520,1
DA:1523,1
DA:1524,1
DA:1525,1
DA:1526,1
DA:1527,1
DA:1528,1
DA:1529,1
DA:1530,1
DA:1531,1
DA:1532,1
DA:1533,1
DA:1534,1
DA:1535,1
DA:1536,1
DA:1537,1
DA:1538,1
DA:1539,1
DA:1540,1
DA:1541,1
DA:1542,1
DA:1543,1
DA:1544,1
DA:1545,1
DA:1546,1
DA:1547,1
DA:1548,1
DA:1549,1
DA:1550,1
DA:1551,1
DA:1561,3
DA:1562,3
DA:1563,3
DA:1565,3
DA:1566,3
DA:1567,3
DA:1569,2
DA:1570,2
DA:1571,2
DA:1573,2
DA:1574,2
DA:1575,2
DA:1594,0
DA:1595,0
DA:1596,0
DA:1597,0
DA:1598,0
DA:1599,0
DA:1602,0
DA:1603,0
DA:1604,0
DA:1607,0
DA:1608,0
DA:1609,0
DA:1612,0
DA:1613,0
DA:1614,0
DA:1617,0
DA:1618,0
DA:1619,0
DA:1622,0
DA:1623,0
DA:1624,0
DA:1627,0
DA:1628,0
DA:1629,0
DA:1632,0
DA:1633,0
DA:1634,0
DA:1637,0
DA:1638,0
DA:1639,0
DA:1640,0
DA:1641,0
DA:1642,0
DA:1645,0
DA:1646,0
DA:1647,0
DA:1648,0
DA:1649,0
DA:1652,0
DA:1653,0
DA:1654,0
DA:1657,0
DA:1658,0
DA:1659,0
DA:1662,0
DA:1663,0
DA:1664,0
DA:1665,0
DA:1666,0
DA:1667,0
DA:1668,0
DA:1669,0
DA:1677,0
DA:1678,0
DA:1679,0
DA:1690,0
DA:1691,0
DA:1692,0
DA:1693,0
DA:1694,0
DA:1695,0
DA:1696,0
DA:1697,0
DA:1698,0
DA:1699,0
DA:1700,0
DA:1701,0
DA:1702,0
DA:1703,0
DA:1704,0
DA:1705,0
DA:1707,0
DA:1708,0
DA:1709,0
DA:1711,0
DA:1713,0
DA:1723,0
DA:1724,0
DA:1725,0
DA:1726,0
DA:1727,0
DA:1728,0
DA:1729,0
DA:1730,0
DA:1731,0
DA:1732,0
DA:1733,0
DA:1734,0
DA:1735,0
DA:1736,0
DA:1738,0
DA:1739,0
DA:1740,0
DA:1741,0
DA:1742,0
DA:1743,0
DA:1744,0
DA:1745,0
DA:1747,0
DA:1748,0
DA:1749,0
DA:1750,0
DA:1767,0
DA:1768,0
DA:1769,0
DA:1770,0
DA:1771,0
DA:1772,0
DA:1775,0
DA:1776,0
DA:1777,0
DA:1778,0
DA:1781,0
DA:1782,0
DA:1783,0
DA:1784,0
DA:1787,0
DA:1788,0
DA:1789,0
DA:1790,0
DA:1793,0
DA:1794,0
DA:1795,0
DA:1796,0
DA:1799,0
DA:1800,0
DA:1801,0
DA:1802,0
DA:1805,0
DA:1806,0
DA:1807,0
DA:1808,0
DA:1811,0
DA:1812,0
DA:1813,0
DA:1814,0
DA:1817,0
DA:1818,0
DA:1819,0
DA:1820,0
DA:1823,0
DA:1824,0
DA:1825,0
DA:1826,0
DA:1829,0
DA:1830,0
DA:1831,0
DA:1832,0
DA:1835,0
DA:1836,0
DA:1837,0
DA:1838,0
DA:1841,0
DA:1842,0
DA:1843,0
DA:1844,0
DA:1847,0
DA:1848,0
DA:1849,0
DA:1850,0
DA:1853,0
DA:1854,0
DA:1856,0
DA:1857,0
DA:1858,0
DA:1859,0
DA:1860,0
DA:1868,0
DA:1869,0
DA:1870,0
BRF:0
BRH:0
LF:1081
LH:892
end_of_record
SF:/home/tasuku/com/github/signal-slot/embedded-charts/src/chart/pie.rs
FN:173,_RINvMNtNtCs1I4G5KWFz5n_15embedded_charts5chart3pieINtB3_8PieChartpE10draw_slicepEB7_
FN:298,_RINvMNtNtCs1I4G5KWFz5n_15embedded_charts5chart3pieINtB3_8PieChartpE17draw_donut_centerpEB7_
FN:191,_RINvMNtNtCs1I4G5KWFz5n_15embedded_charts5chart3pieINtB3_8PieChartpE21draw_pie_slice_custompEB7_
FN:341,_RINvXININtNtCs1I4G5KWFz5n_15embedded_charts5chart3pies0_0pEINtB6_8PieChartpEINtNtB8_6traits5ChartpE4drawpEBa_
FN:307,_RNCINvMNtNtCs1I4G5KWFz5n_15embedded_charts5chart3pieINtB5_8PieChartpE17draw_donut_centerpE0B9_
FN:319,_RNCINvMNtNtCs1I4G5KWFz5n_15embedded_charts5chart3pieINtB5_8PieChartpE17draw_donut_centerpEs_0B9_
FN:289,_RNCINvMNtNtCs1I4G5KWFz5n_15embedded_charts5chart3pieINtB5_8PieChartpE21draw_pie_slice_custompE0B9_
FN:363,_RNCINvXININtNtCs1I4G5KWFz5n_15embedded_charts5chart3pies0_0pEINtB8_8PieChartpEINtNtBa_6traits5ChartpE4drawpE0Bc_
FN:410,_RNCINvXININtNtCs1I4G5KWFz5n_15embedded_charts5chart3pies0_0pEINtB8_8PieChartpEINtNtBa_6traits5ChartpE4drawpEs_0Bc_
FN:135,_RNCNvMNtNtCs1I4G5KWFz5n_15embedded_charts5chart3pieINtB4_8PieChartpE16calculate_slices0B8_
FN:165,_RNCNvMNtNtCs1I4G5KWFz5n_15embedded_charts5chart3pieINtB4_8PieChartpE16calculate_slicess0_0B8_
FN:136,_RNCNvMNtNtCs1I4G5KWFz5n_15embedded_charts5chart3pieINtB4_8PieChartpE16calculate_slicess_0B8_
FN:106,_RNvMNtNtCs1I4G5KWFz5n_15embedded_charts5chart3pieINtB2_8PieChartpE10set_centerB6_
FN:96,_RNvMNtNtCs1I4G5KWFz5n_15embedded_charts5chart3pieINtB2_8PieChartpE10set_configB6_
FN:116,_RNvMNtNtCs1I4G5KWFz5n_15embedded_charts5chart3pieINtB2_8PieChartpE10set_radiusB6_
FN:126,_RNvMNtNtCs1I4G5KWFz5n_15embedded_charts5chart3pieINtB2_8PieChartpE16calculate_slicesB6_
FN:86,_RNvMNtNtCs1I4G5KWFz5n_15embedded_charts5chart3pieINtB2_8PieChartpE9set_styleB6_
FN:574,_RNvMs3_NtNtCs1I4G5KWFz5n_15embedded_charts5chart3pieINtB5_15PieChartBuilderpE11with_borderB9_
FN:594,_RNvMs3_NtNtCs1I4G5KWFz5n_15embedded_charts5chart3pieINtB5_15PieChartBuilderpE16background_colorB9_
FN:580,_RNvMs3_NtNtCs1I4G5KWFz5n_15embedded_charts5chart3pieINtB5_15PieChartBuilderpE6labelsB9_
FN:621,_RNvXININtNtCs1I4G5KWFz5n_15embedded_charts5chart3pies5_0pEINtB5_15PieChartBuilderpENtNtCs3XRySYX51hI_4core7default7Default7defaultB9_
FN:329,_RNvXININtNtCs1I4G5KWFz5n_15embedded_charts5chart3pies_0pEINtB5_8PieChartpENtNtCs3XRySYX51hI_4core7default7Default7defaultB9_
FN:71,_RNvMNtNtCs1I4G5KWFz5n_15embedded_charts5chart3pieINtB2_8PieChartNtNtNtCshH4H1wHMe2V_22embedded_graphics_core10pixelcolor9rgb_color6Rgb565E3newB6_
FN:91,_RNvMNtNtCs1I4G5KWFz5n_15embedded_charts5chart3pieINtB2_8PieChartNtNtNtCshH4H1wHMe2V_22embedded_graphics_core10pixelcolor9rgb_color6Rgb565E5styleB6_
FN:111,_RNvMNtNtCs1I4G5KWFz5n_15embedded_charts5chart3pieINtB2_8PieChartNtNtNtCshH4H1wHMe2V_22embedded_graphics_core10pixelcolor9rgb_color6Rgb565E6centerB6_
FN:101,_RNvMNtNtCs1I4G5KWFz5n_15embedded_charts5chart3pieINtB2_8PieChartNtNtNtCshH4H1wHMe2V_22embedded_graphics_core10pixelcolor9rgb_color6Rgb565E6configB6_
FN:121,_RNvMNtNtCs1I4G5KWFz5n_15embedded_charts5chart3pieINtB2_8PieChartNtNtNtCshH4H1wHMe2V_22embedded_graphics_core10pixelcolor9rgb_color6Rgb565E6radiusB6_
FN:81,_RNvMNtNtCs1I4G5KWFz5n_15embedded_charts5chart3pieINtB2_8PieChartNtNtNtCshH4H1wHMe2V_22embedded_graphics_core10pixelcolor9rgb_color6Rgb565E7builderB6_
FN:561,_RNvMs3_NtNtCs1I4G5KWFz5n_15embedded_charts5chart3pieINtB5_15PieChartBuilderNtNtNtCshH4H1wHMe2V_22embedded_graphics_core10pixelcolor9rgb_color6Rgb565E10thin_donutB9_
FN:586,_RNvMs3_NtNtCs1I4G5KWFz5n_15embedded_charts5chart3pieINtB5_15PieChartBuilderNtNtNtCshH4H1wHMe2V_22embedded_graphics_core10pixelcolor9rgb_color6Rgb565E10with_titleB9_
FN:498,_RNvMs3_NtNtCs1I4G5KWFz5n_15embedded_charts5chart3pieINtB5_15PieChartBuilderNtNtNtCshH4H1wHMe2V_22embedded_graphics_core10pixelcolor9rgb_color6Rgb565E11start_angleB9_
FN:569,_RNvMs3_NtNtCs1I4G5KWFz5n_15embedded_charts5chart3pieINtB5_15PieChartBuilderNtNtNtCshH4H1wHMe2V_22embedded_graphics_core10pixelcolor9rgb_color6Rgb565E11thick_donutB9_
FN:553,_RNvMs3_NtNtCs1I4G5KWFz5n_15embedded_charts5chart3pieINtB5_15PieChartBuilderNtNtNtCshH4H1wHMe2V_22embedded_graphics_core10pixelcolor9rgb_color6Rgb565E14balanced_donutB9_
FN:528,_RNvMs3_NtNtCs1I4G5KWFz5n_15embedded_charts5chart3pieINtB5_15PieChartBuilderNtNtNtCshH4H1wHMe2V_22embedded_graphics_core10pixelcolor9rgb_color6Rgb565E16donut_percentageB9_
FN:465,_RNvMs3_NtNtCs1I4G5KWFz5n_15embedded_charts5chart3pieINtB5_15PieChartBuilderNtNtNtCshH4H1wHMe2V_22embedded_graphics_core10pixelcolor9rgb_color6Rgb565E3newB9_
FN:504,_RNvMs3_NtNtCs1I4G5KWFz5n_15embedded_charts5chart3pieINtB5_15PieChartBuilderNtNtNtCshH4H1wHMe2V_22embedded_graphics_core10pixelcolor9rgb_color6Rgb565E5donutB9_
FN:475,_RNvMs3_NtNtCs1I4G5KWFz5n_15embedded_charts5chart3pieINtB5_15PieChartBuilderNtNtNtCshH4H1wHMe2V_22embedded_graphics_core10pixelcolor9rgb_color6Rgb565E6centerB9_
FN:487,_RNvMs3_NtNtCs1I4G5KWFz5n_15embedded_charts5chart3pieINtB5_15PieChartBuilderNtNtNtCshH4H1wHMe2V_22embedded_graphics_core10pixelcolor9rgb_color6Rgb565E6colorsB9_
FN:481,_RNvMs3_NtNtCs1I4G5KWFz5n_15embedded_charts5chart3pieINtB5_15PieChartBuilderNtNtNtCshH4H1wHMe2V_22embedded_graphics_core10pixelcolor9rgb_color6Rgb565E6radiusB9_
FN:421,_RNvXs1_NtNtCs1I4G5KWFz5n_15embedded_charts5chart3pieINtB5_13PieChartStyleNtNtNtCshH4H1wHMe2V_22embedded_graphics_core10pixelcolor9rgb_color6Rgb565ENtNtCs3XRySYX51hI_4core7default7Default7defaultB9_
FN:607,_RNvXs4_NtNtCs1I4G5KWFz5n_15embedded_charts5chart3pieINtB5_15PieChartBuilderNtNtNtCshH4H1wHMe2V_22embedded_graphics_core10pixelcolor9rgb_color6Rgb565EINtNtB7_6traits12ChartBuilderB1b_E5buildB9_
FN:657,_RNCNvNtNtNtCs1I4G5KWFz5n_15embedded_charts5chart3pie5testss_22test_pie_chart_builder0B9_
FN:441,_RNvXs2_NtNtCs1I4G5KWFz5n_15embedded_charts5chart3pieNtB5_10LabelStyleNtNtCs3XRySYX51hI_4core7default7Default7default
FN:678,_RNvNtNtNtCs1I4G5KWFz5n_15embedded_charts5chart3pie5testss_14test_pie_slice
FN:663,_RNvNtNtNtCs1I4G5KWFz5n_15embedded_charts5chart3pie5testss_16test_label_style
FN:692,_RNvNtNtNtCs1I4G5KWFz5n_15embedded_charts5chart3pie5testss_21test_donut_percentage
FN:640,_RNvNtNtNtCs1I4G5KWFz5n_15embedded_charts5chart3pie5testss_22test_pie_chart_builder
FN:632,_RNvNtNtNtCs1I4G5KWFz5n_15embedded_charts5chart3pie5testss_23test_pie_chart_creation
FN:748,_RNvNtNtNtCs1I4G5KWFz5n_15embedded_charts5chart3pie5testss_25test_donut_vs_regular_pie
FN:722,_RNvNtNtNtCs1I4G5KWFz5n_15embedded_charts5chart3pie5testss_30test_donut_convenience_methods
FNDA:0,_RINvMNtNtCs1I4G5KWFz5n_15embedded_charts5chart3pieINtB3_8PieChartpE10draw_slicepEB7_
FNDA:0,_RINvMNtNtCs1I4G5KWFz5n_15embedded_charts5chart3pieINtB3_8PieChartpE17draw_donut_centerpEB7_
FNDA:0,_RINvMNtNtCs1I4G5KWFz5n_15embedded_charts5chart3pieINtB3_8PieChartpE21draw_pie_slice_custompEB7_
FNDA:0,_RINvXININtNtCs1I4G5KWFz5n_15embedded_charts5chart3pies0_0pEINtB6_8PieChartpEINtNtB8_6traits5ChartpE4drawpEBa_
FNDA:0,_RNCINvMNtNtCs1I4G5KWFz5n_15embedded_charts5chart3pieINtB5_8PieChartpE17draw_donut_centerpE0B9_
FNDA:0,_RNCINvMNtNtCs1I4G5KWFz5n_15embedded_charts5chart3pieINtB5_8PieChartpE17draw_donut_centerpEs_0B9_
FNDA:0,_RNCINvMNtNtCs1I4G5KWFz5n_15embedded_charts5chart3pieINtB5_8PieChartpE21draw_pie_slice_custompE0B9_
FNDA:0,_RNCINvXININtNtCs1I4G5KWFz5n_15embedded_charts5chart3pies0_0pEINtB8_8PieChartpEINtNtBa_6traits5ChartpE4drawpE0Bc_
FNDA:0,_RNCINvXININtNtCs1I4G5KWFz5n_15embedded_charts5chart3pies0_0pEINtB8_8PieChartpEINtNtBa_6traits5ChartpE4drawpEs_0Bc_
FNDA:0,_RNCNvMNtNtCs1I4G5KWFz5n_15embedded_charts5chart3pieINtB4_8PieChartpE16calculate_slices0B8_
FNDA:0,_RNCNvMNtNtCs1I4G5KWFz5n_15embedded_charts5chart3pieINtB4_8PieChartpE16calculate_slicess0_0B8_
FNDA:0,_RNCNvMNtNtCs1I4G5KWFz5n_15embedded_charts5chart3pieINtB4_8PieChartpE16calculate_slicess_0B8_
FNDA:0,_RNvMNtNtCs1I4G5KWFz5n_15embedded_charts5chart3pieINtB2_8PieChartpE10set_centerB6_
FNDA:0,_RNvMNtNtCs1I4G5KWFz5n_15embedded_charts5chart3pieINtB2_8PieChartpE10set_configB6_
FNDA:0,_RNvMNtNtCs1I4G5KWFz5n_15embedded_charts5chart3pieINtB2_8PieChartpE10set_radiusB6_
FNDA:0,_RNvMNtNtCs1I4G5KWFz5n_15embedded_charts5chart3pieINtB2_8PieChartpE16calculate_slicesB6_
FNDA:0,_RNvMNtNtCs1I4G5KWFz5n_15embedded_charts5chart3pieINtB2_8PieChartpE9set_styleB6_
FNDA:0,_RNvMs3_NtNtCs1I4G5KWFz5n_15embedded_charts5chart3pieINtB5_15PieChartBuilderpE11with_borderB9_
FNDA:0,_RNvMs3_NtNtCs1I4G5KWFz5n_15embedded_charts5chart3pieINtB5_15PieChartBuilderpE16background_colorB9_
FNDA:0,_RNvMs3_NtNtCs1I4G5KWFz5n_15embedded_charts5chart3pieINtB5_15PieChartBuilderpE6labelsB9_
FNDA:0,_RNvXININtNtCs1I4G5KWFz5n_15embedded_charts5chart3pies5_0pEINtB5_15PieChartBuilderpENtNtCs3XRySYX51hI_4core7default7Default7defaultB9_
FNDA:0,_RNvXININtNtCs1I4G5KWFz5n_15embedded_charts5chart3pies_0pEINtB5_8PieChartpENtNtCs3XRySYX51hI_4core7default7Default7defaultB9_
FNDA:1,_RNvMNtNtCs1I4G5KWFz5n_15embedded_charts5chart3pieINtB2_8PieChartNtNtNtCshH4H1wHMe2V_22embedded_graphics_core10pixelcolor9rgb_color6Rgb565E3newB6_
FNDA:12,_RNvMNtNtCs1I4G5KWFz5n_15embedded_charts5chart3pieINtB2_8PieChartNtNtNtCshH4H1wHMe2V_22embedded_graphics_core10pixelcolor9rgb_color6Rgb565E5styleB6_
FNDA:2,_RNvMNtNtCs1I4G5KWFz5n_15embedded_charts5chart3pieINtB2_8PieChartNtNtNtCshH4H1wHMe2V_22embedded_graphics_core10pixelcolor9rgb_color6Rgb565E6centerB6_
FNDA:1,_RNvMNtNtCs1I4G5KWFz5n_15embedded_charts5chart3pieINtB2_8PieChartNtNtNtCshH4H1wHMe2V_22embedded_graphics_core10pixelcolor9rgb_color6Rgb565E6configB6_
FNDA:2,_RNvMNtNtCs1I4G5KWFz5n_15embedded_charts5chart3pieINtB2_8PieChartNtNtNtCshH4H1wHMe2V_22embedded_graphics_core10pixelcolor9rgb_color6Rgb565E6radiusB6_
FNDA:9,_RNvMNtNtCs1I4G5KWFz5n_15embedded_charts5chart3pieINtB2_8PieChartNtNtNtCshH4H1wHMe2V_22embedded_graphics_core10pixelcolor9rgb_color6Rgb565E7builderB6_
FNDA:1,_RNvMs3_NtNtCs1I4G5KWFz5n_15embedded_charts5chart3pieINtB5_15PieChartBuilderNtNtNtCshH4H1wHMe2V_22embedded_graphics_core10pixelcolor9rgb_color6Rgb565E10thin_donutB9_
FNDA:1,_RNvMs3_NtNtCs1I4G5KWFz5n_15embedded_charts5chart3pieINtB5_15PieChartBuilderNtNtNtCshH4H1wHMe2V_22embedded_graphics_core10pixelcolor9rgb_color6Rgb565E10with_titleB9_
FNDA:1,_RNvMs3_NtNtCs1I4G5KWFz5n_15embedded_charts5chart3pieINtB5_15PieChartBuilderNtNtNtCshH4H1wHMe2V_22embedded_graphics_core10pixelcolor9rgb_color6Rgb565E11start_angleB9_
FNDA:1,_RNvMs3_NtNtCs1I4G5KWFz5n_15embedded_charts5chart3pieINtB5_15PieChartBuilderNtNtNtCshH4H1wHMe2V_22embedded_graphics_core10pixelcolor9rgb_color6Rgb565E11thick_donutB9_
FNDA:1,_RNvMs3_NtNtCs1I4G5KWFz5n_15embedded_charts5chart3pieINtB5_15PieChartBuilderNtNtNtCshH4H1wHMe2V_22embedded_graphics_core10pixelcolor9rgb_color6Rgb565E14balanced_donutB9_
FNDA:6,_RNvMs3_NtNtCs1I4G5KWFz5n_15embedded_charts5chart3pieINtB5_15PieChartBuilderNtNtNtCshH4H1wHMe2V_22embedded_graphics_core10pixelcolor9rgb_color6Rgb565E16donut_percentageB9_
FNDA:9,_RNvMs3_NtNtCs1I4G5KWFz5n_15embedded_charts5chart3pieINtB5_15PieChartBuilderNtNtNtCshH4H1wHMe2V_22embedded_graphics_core10pixelcolor9rgb_color6Rgb565E3newB9_
FNDA:2,_RNvMs3_NtNtCs1I4G5KWFz5n_15embedded_charts5chart3pieINtB5_15PieChartBuilderNtNtNtCshH4H1wHMe2V_22embedded_graphics_core10pixelcolor9rgb_color6Rgb565E5donutB9_
FNDA:1,_RNvMs3_NtNtCs1I4G5KWFz5n_15embedded_charts5chart3pieINtB5_15PieChartBuilderNtNtNtCshH4H1wHMe2V_22embedded_graphics_core10pixelcolor9rgb_color6Rgb565E6centerB9_
FNDA:1,_RNvMs3_NtNtCs1I4G5KWFz5n_15embedded_charts5chart3pieINtB5_15PieChartBuilderNtNtNtCshH4H1wHMe2V_22embedded_graphics_core10pixelcolor9rgb_color6Rgb565E6colorsB9_
FNDA:9,_RNvMs3_NtNtCs1I4G5KWFz5n_15embedded_charts5chart3pieINtB5_15PieChartBuilderNtNtNtCshH4H1wHMe2V_22embedded_graphics_core10pixelcolor9rgb_color6Rgb565E6radiusB9_
FNDA:10,_RNvXs1_NtNtCs1I4G5KWFz5n_15embedded_charts5chart3pieINtB5_13PieChartStyleNtNtNtCshH4H1wHMe2V_22embedded_graphics_core10pixelcolor9rgb_color6Rgb565ENtNtCs3XRySYX51hI_4core7default7Default7defaultB9_
FNDA:9,_RNvXs4_NtNtCs1I4G5KWFz5n_15embedded_charts5chart3pieINtB5_15PieChartBuilderNtNtNtCshH4H1wHMe2V_22embedded_graphics_core10pixelcolor9rgb_color6Rgb565EINtNtB7_6traits12ChartBuilderB1b_E5buildB9_
FNDA:1,_RNCNvNtNtNtCs1I4G5KWFz5n_15embedded_charts5chart3pie5testss_22test_pie_chart_builder0B9_
FNDA:10,_RNvXs2_NtNtCs1I4G5KWFz5n_15embedded_charts5chart3pieNtB5_10LabelStyleNtNtCs3XRySYX51hI_4core7default7Default7default
FNDA:1,_RNvNtNtNtCs1I4G5KWFz5n_15embedded_charts5chart3pie5testss_14test_pie_slice
FNDA:1,_RNvNtNtNtCs1I4G5KWFz5n_15embedded_charts5chart3pie5testss_16test_label_style
FNDA:1,_RNvNtNtNtCs1I4G5KWFz5n_15embedded_charts5chart3pie5testss_21test_donut_percentage
FNDA:1,_RNvNtNtNtCs1I4G5KWFz5n_15embedded_charts5chart3pie5testss_22test_pie_chart_builder
FNDA:1,_RNvNtNtNtCs1I4G5KWFz5n_15embedded_charts5chart3pie5testss_23test_pie_chart_creation
FNDA:1,_RNvNtNtNtCs1I4G5KWFz5n_15embedded_charts5chart3pie5testss_25test_donut_vs_regular_pie
FNDA:1,_RNvNtNtNtCs1I4G5KWFz5n_15embedded_charts5chart3pie5testss_30test_donut_convenience_methods
FNF:50
FNH:28
DA:71,1
DA:72,1
DA:73,1
DA:74,1
DA:75,1
DA:76,1
DA:77,1
DA:78,1
DA:81,9
DA:82,9
DA:83,9
DA:86,0
DA:87,0
DA:88,0
DA:91,12
DA:92,12
DA:93,12
DA:96,0
DA:97,0
DA:98,0
DA:101,1
DA:102,1
DA:103,1
DA:106,0
DA:107,0
DA:108,0
DA:111,2
DA:112,2
DA:113,2
DA:116,0
DA:117,0
DA:118,0
DA:121,2
DA:122,2
DA:123,2
DA:126,0
DA:127,0
DA:128,0
DA:129,0
DA:130,0
DA:131,0
DA:132,0
DA:133,0
DA:134,0
DA:135,0
DA:136,0
DA:137,0
DA:138,0
DA:139,0
DA:140,0
DA:141,0
DA:142,0
DA:143,0
DA:144,0
DA:145,0
DA:148,0
DA:149,0
DA:150,0
DA:151,0
DA:152,0
DA:153,0
DA:154,0
DA:155,0
DA:156,0
DA:157,0
DA:158,0
DA:159,0
DA:160,0
DA:161,0
DA:162,0
DA:163,0
DA:164,0
DA:165,0
DA:166,0
DA:169,0
DA:170,0
DA:173,0
DA:174,0
DA:175,0
DA:176,0
DA:178,0
DA:179,0
DA:181,0
DA:185,0
DA:187,0
DA:188,0
DA:191,0
DA:192,0
DA:193,0
DA:194,0
DA:195,0
DA:196,0
DA:197,0
DA:198,0
DA:199,0
DA:203,0
DA:204,0
DA:205,0
DA:206,0
DA:207,0
DA:208,0
DA:209,0
DA:210,0
DA:211,0
DA:212,0
DA:213,0
DA:214,0
DA:215,0
DA:216,0
DA:218,0
DA:219,0
DA:220,0
DA:221,0
DA:222,0
DA:223,0
DA:224,0
DA:225,0
DA:226,0
DA:227,0
DA:228,0
DA:229,0
DA:230,0
DA:231,0
DA:232,0
DA:233,0
DA:234,0
DA:237,0
DA:238,0
DA:239,0
DA:240,0
DA:241,0
DA:243,0
DA:244,0
DA:245,0
DA:246,0
DA:247,0
DA:248,0
DA:249,0
DA:250,0
DA:251,0
DA:252,0
DA:253,0
DA:254,0
DA:257,0
DA:258,0
DA:259,0
DA:260,0
DA:261,0
DA:262,0
DA:263,0
DA:264,0
DA:265,0
DA:267,0
DA:268,0
DA:269,0
DA:270,0
DA:271,0
DA:272,0
DA:273,0
DA:274,0
DA:275,0
DA:278,0
DA:279,0
DA:282,0
DA:285,0
DA:286,0
DA:287,0
DA:288,0
DA:289,0
DA:290,0
DA:294,0
DA:295,0
DA:298,0
DA:299,0
DA:300,0
DA:301,0
DA:302,0
DA:304,0
DA:305,0
DA:306,0
DA:307,0
DA:309,0
DA:310,0
DA:311,0
DA:312,0
DA:313,0
DA:314,0
DA:315,0
DA:316,0
DA:317,0
DA:318,0
DA:319,0
DA:320,0
DA:322,0
DA:323,0
DA:329,0
DA:330,0
DA:331,0
DA:341,0
DA:342,0
DA:343,0
DA:344,0
DA:345,0
DA:346,0
DA:347,0
DA:348,0
DA:349,0
DA:350,0
DA:351,0
DA:352,0
DA:353,0
DA:354,0
DA:355,0
DA:356,0
DA:359,0
DA:360,0
DA:361,0
DA:362,0
DA:363,0
DA:364,0
DA:367,0
DA:368,0
DA:369,0
DA:370,0
DA:371,0
DA:372,0
DA:373,0
DA:374,0
DA:375,0
DA:376,0
DA:377,0
DA:380,0
DA:383,0
DA:384,0
DA:388,0
DA:391,0
DA:397,0
DA:398,0
DA:399,0
DA:400,0
DA:401,0
DA:402,0
DA:403,0
DA:404,0
DA:405,0
DA:406,0
DA:407,0
DA:408,0
DA:409,0
DA:410,0
DA:411,0
DA:413,0
DA:414,0
DA:421,10
DA:422,10
DA:423,10
DA:424,10
DA:425,10
DA:426,10
DA:427,10
DA:428,10
DA:429,10
DA:430,10
DA:431,10
DA:432,10
DA:433,10
DA:434,10
DA:435,10
DA:436,10
DA:437,10
DA:441,10
DA:442,10
DA:443,10
DA:444,10
DA:445,10
DA:446,10
DA:447,10
DA:448,10
DA:465,9
DA:466,9
DA:467,9
DA:468,9
DA:469,9
DA:470,9
DA:471,9
DA:472,9
DA:475,1
DA:476,1
DA:477,1
DA:478,1
DA:481,9
DA:482,9
DA:483,9
DA:484,9
DA:487,1
DA:488,1
DA:489,4
DA:490,3
DA:491,0
DA:492,3
DA:494,1
DA:495,1
DA:498,1
DA:499,1
DA:500,1
DA:501,1
DA:504,2
DA:505,2
DA:506,2
DA:507,2
DA:528,6
DA:529,6
DA:530,6
DA:531,6
DA:532,6
DA:533,6
DA:553,1
DA:554,1
DA:555,1
DA:561,1
DA:562,1
DA:563,1
DA:569,1
DA:570,1
DA:571,1
DA:574,0
DA:575,0
DA:576,0
DA:577,0
DA:580,0
DA:581,0
DA:582,0
DA:583,0
DA:586,1
DA:587,1
DA:588,1
DA:589,1
DA:590,1
DA:591,1
DA:594,0
DA:595,0
DA:596,0
DA:597,0
DA:607,9
DA:608,9
DA:609,9
DA:610,9
DA:611,9
DA:612,9
DA:613,9
DA:614,9
DA:621,0
DA:622,0
DA:623,0
DA:632,1
DA:633,1
DA:634,1
DA:635,1
DA:636,1
DA:637,1
DA:640,1
DA:641,1
DA:642,1
DA:643,1
DA:644,1
DA:645,1
DA:646,1
DA:647,1
DA:648,1
DA:649,1
DA:650,1
DA:651,1
DA:652,1
DA:653,1
DA:654,1
DA:655,1
DA:656,1
DA:657,1
DA:660,1
DA:663,1
DA:664,1
DA:665,1
DA:666,1
DA:667,1
DA:668,1
DA:669,1
DA:670,1
DA:671,1
DA:672,1
DA:673,1
DA:674,1
DA:675,1
DA:678,1
DA:679,1
DA:680,1
DA:681,1
DA:682,1
DA:683,1
DA:684,1
DA:685,1
DA:686,1
DA:687,1
DA:688,1
DA:689,1
DA:692,1
DA:693,1
DA:694,1
DA:695,1
DA:696,1
DA:697,1
DA:698,1
DA:699,1
DA:700,1
DA:703,1
DA:704,1
DA:705,1
DA:706,1
DA:707,1
DA:708,1
DA:709,1
DA:712,1
DA:713,1
DA:714,1
DA:715,1
DA:716,1
DA:717,1
DA:718,1
DA:719,1
DA:722,1
DA:723,1
DA:724,1
DA:725,1
DA:726,1
DA:727,1
DA:728,1
DA:729,1
DA:730,1
DA:733,1
DA:734,1
DA:735,1
DA:738,1
DA:739,1
DA:740,1
DA:741,1
DA:742,1
DA:743,1
DA:744,1
DA:745,1
DA:748,1
DA:749,1
DA:750,1
DA:751,1
DA:752,1
DA:755,1
DA:756,1
DA:757,1
DA:758,1
BRF:0
BRH:0
LF:466
LH:212
end_of_record
SF:/home/tasuku/com/github/signal-slot/embedded-charts/src/chart/traits.rs
FN:78,_RNvYpINtNtNtCs1I4G5KWFz5n_15embedded_charts5chart6traits14StreamingChartpE24set_smooth_interpolationBa_
FN:52,_RNvYpINtNtNtCs1I4G5KWFz5n_15embedded_charts5chart6traits14StreamingChartpE9push_dataBa_
FN:32,_RNvYpINtNtNtCs1I4G5KWFz5n_15embedded_charts5chart6traits5ChartpE11data_boundsBa_
FN:340,_RNvMNtNtCs1I4G5KWFz5n_15embedded_charts5chart6traitsNtB2_7Margins10horizontal
FN:310,_RNvMNtNtCs1I4G5KWFz5n_15embedded_charts5chart6traitsNtB2_7Margins3all
FN:330,_RNvMNtNtCs1I4G5KWFz5n_15embedded_charts5chart6traitsNtB2_7Margins3new
FN:350,_RNvMNtNtCs1I4G5KWFz5n_15embedded_charts5chart6traitsNtB2_7Margins8apply_to
FN:345,_RNvMNtNtCs1I4G5KWFz5n_15embedded_charts5chart6traitsNtB2_7Margins8vertical
FN:320,_RNvMNtNtCs1I4G5KWFz5n_15embedded_charts5chart6traitsNtB2_7Margins9symmetric
FN:364,_RNvXs_NtNtCs1I4G5KWFz5n_15embedded_charts5chart6traitsNtB4_7MarginsNtNtCs3XRySYX51hI_4core7default7Default7default
FN:404,_RNvNtNtNtCs1I4G5KWFz5n_15embedded_charts5chart6traits5testss_19test_margins_totals
FN:411,_RNvNtNtNtCs1I4G5KWFz5n_15embedded_charts5chart6traits5testss_21test_margins_apply_to
FN:386,_RNvNtNtNtCs1I4G5KWFz5n_15embedded_charts5chart6traits5testss_21test_margins_creation
FN:395,_RNvNtNtNtCs1I4G5KWFz5n_15embedded_charts5chart6traits5testss_22test_margins_symmetric
FN:370,_RNvXs0_NtNtCs1I4G5KWFz5n_15embedded_charts5chart6traitsINtB5_11ChartConfigNtNtNtCshH4H1wHMe2V_22embedded_graphics_core10pixelcolor9rgb_color6Rgb565ENtNtCs3XRySYX51hI_4core7default7Default7defaultB9_
FNDA:0,_RNvYpINtNtNtCs1I4G5KWFz5n_15embedded_charts5chart6traits14StreamingChartpE24set_smooth_interpolationBa_
FNDA:0,_RNvYpINtNtNtCs1I4G5KWFz5n_15embedded_charts5chart6traits14StreamingChartpE9push_dataBa_
FNDA:0,_RNvYpINtNtNtCs1I4G5KWFz5n_15embedded_charts5chart6traits5ChartpE11data_boundsBa_
FNDA:246,_RNvMNtNtCs1I4G5KWFz5n_15embedded_charts5chart6traitsNtB2_7Margins10horizontal
FNDA:93,_RNvMNtNtCs1I4G5KWFz5n_15embedded_charts5chart6traitsNtB2_7Margins3all
FNDA:3,_RNvMNtNtCs1I4G5KWFz5n_15embedded_charts5chart6traitsNtB2_7Margins3new
FNDA:245,_RNvMNtNtCs1I4G5KWFz5n_15embedded_charts5chart6traitsNtB2_7Margins8apply_to
FNDA:246,_RNvMNtNtCs1I4G5KWFz5n_15embedded_charts5chart6traitsNtB2_7Margins8vertical
FNDA:1,_RNvMNtNtCs1I4G5KWFz5n_15embedded_charts5chart6traitsNtB2_7Margins9symmetric
FNDA:88,_RNvXs_NtNtCs1I4G5KWFz5n_15embedded_charts5chart6traitsNtB4_7MarginsNtNtCs3XRySYX51hI_4core7default7Default7default
FNDA:1,_RNvNtNtNtCs1I4G5KWFz5n_15embedded_charts5chart6traits5testss_19test_margins_totals
FNDA:1,_RNvNtNtNtCs1I4G5KWFz5n_15embedded_charts5chart6traits5testss_21test_margins_apply_to
FNDA:1,_RNvNtNtNtCs1I4G5KWFz5n_15embedded_charts5chart6traits5testss_21test_margins_creation
FNDA:1,_RNvNtNtNtCs1I4G5KWFz5n_15embedded_charts5chart6traits5testss_22test_margins_symmetric
FNDA:88,_RNvXs0_NtNtCs1I4G5KWFz5n_15embedded_charts5chart6traitsINtB5_11ChartConfigNtNtNtCshH4H1wHMe2V_22embedded_graphics_core10pixelcolor9rgb_color6Rgb565ENtNtCs3XRySYX51hI_4core7default7Default7defaultB9_
FNF:15
FNH:12
DA:32,0
DA:33,0
DA:34,0
DA:35,0
DA:36,0
DA:52,0
DA:53,0
DA:54,0
DA:55,0
DA:78,0
DA:79,0
DA:80,0
DA:310,93
DA:311,93
DA:312,93
DA:313,93
DA:314,93
DA:315,93
DA:316,93
DA:317,93
DA:320,1
DA:321,1
DA:322,1
DA:323,1
DA:324,1
DA:325,1
DA:326,1
DA:327,1
DA:330,3
DA:331,3
DA:332,3
DA:333,3
DA:334,3
DA:335,3
DA:336,3
DA:337,3
DA:340,246
DA:341,246
DA:342,246
DA:345,246
DA:346,246
DA:347,246
DA:350,245
DA:351,245
DA:352,245
DA:353,245
DA:354,245
DA:355,245
DA:356,245
DA:357,245
DA:358,245
DA:359,245
DA:360,245
DA:364,88
DA:365,88
DA:366,88
DA:370,88
DA:371,88
DA:372,88
DA:373,88
DA:374,88
DA:375,88
DA:376,88
DA:377,88
DA:378,88
DA:386,1
DA:387,1
DA:388,1
DA:389,1
DA:390,1
DA:391,1
DA:392,1
DA:395,1
DA:396,1
DA:397,1
DA:398,1
DA:399,1
DA:400,1
DA:401,1
DA:404,1
DA:405,1
DA:406,1
DA:407,1
DA:408,1
DA:411,1
DA:412,1
DA:413,1
DA:414,1
DA:415,1
DA:416,1
DA:417,1
DA:418,1
BRF:0
BRH:0
LF:92
LH:80
end_of_record
SF:/home/tasuku/com/github/signal-slot/embedded-charts/src/dashboard/grid.rs
FN:123,_RNvNtNtNtCs1I4G5KWFz5n_15embedded_charts9dashboard4grid5testss_18test_grid_position
FN:136,_RNvNtNtNtCs1I4G5KWFz5n_15embedded_charts9dashboard4grid5testss_20test_grid_layout_2x2
FN:156,_RNvNtNtNtCs1I4G5KWFz5n_15embedded_charts9dashboard4grid5testss_26test_grid_layout_with_span
FN:113,_RNvXs0_NtNtCs1I4G5KWFz5n_15embedded_charts9dashboard4gridNtB5_10GridLayoutNtNtCs3XRySYX51hI_4core7default7Default7default
FN:93,_RINvMs_NtNtCs1I4G5KWFz5n_15embedded_charts9dashboard4gridNtB5_10GridLayout19calculate_viewportsKj10_EB9_
FN:93,_RINvMs_NtNtCs1I4G5KWFz5n_15embedded_charts9dashboard4gridNtB5_10GridLayout19calculate_viewportsKj4_EB9_
FN:105,_RNCINvMs_NtNtCs1I4G5KWFz5n_15embedded_charts9dashboard4gridNtB7_10GridLayout19calculate_viewportsKj10_E0Bb_
FN:105,_RNCINvMs_NtNtCs1I4G5KWFz5n_15embedded_charts9dashboard4gridNtB7_10GridLayout19calculate_viewportsKj4_E0Bb_
FN:21,_RNvMNtNtCs1I4G5KWFz5n_15embedded_charts9dashboard4gridNtB2_12GridPosition3new
FN:31,_RNvMNtNtCs1I4G5KWFz5n_15embedded_charts9dashboard4gridNtB2_12GridPosition9with_span
FN:60,_RNvMs_NtNtCs1I4G5KWFz5n_15embedded_charts9dashboard4gridNtB4_10GridLayout23calculate_cell_viewport
FN:52,_RNvMs_NtNtCs1I4G5KWFz5n_15embedded_charts9dashboard4gridNtB4_10GridLayout3new
FNDA:1,_RNvNtNtNtCs1I4G5KWFz5n_15embedded_charts9dashboard4grid5testss_18test_grid_position
FNDA:1,_RNvNtNtNtCs1I4G5KWFz5n_15embedded_charts9dashboard4grid5testss_20test_grid_layout_2x2
FNDA:1,_RNvNtNtNtCs1I4G5KWFz5n_15embedded_charts9dashboard4grid5testss_26test_grid_layout_with_span
FNDA:0,_RNvXs0_NtNtCs1I4G5KWFz5n_15embedded_charts9dashboard4gridNtB5_10GridLayoutNtNtCs3XRySYX51hI_4core7default7Default7default
FNDA:1,_RINvMs_NtNtCs1I4G5KWFz5n_15embedded_charts9dashboard4gridNtB5_10GridLayout19calculate_viewportsKj10_EB9_
FNDA:1,_RINvMs_NtNtCs1I4G5KWFz5n_15embedded_charts9dashboard4gridNtB5_10GridLayout19calculate_viewportsKj4_EB9_
FNDA:0,_RNCINvMs_NtNtCs1I4G5KWFz5n_15embedded_charts9dashboard4gridNtB7_10GridLayout19calculate_viewportsKj10_E0Bb_
FNDA:0,_RNCINvMs_NtNtCs1I4G5KWFz5n_15embedded_charts9dashboard4gridNtB7_10GridLayout19calculate_viewportsKj4_E0Bb_
FNDA:11,_RNvMNtNtCs1I4G5KWFz5n_15embedded_charts9dashboard4gridNtB2_12GridPosition3new
FNDA:2,_RNvMNtNtCs1I4G5KWFz5n_15embedded_charts9dashboard4gridNtB2_12GridPosition9with_span
FNDA:11,_RNvMs_NtNtCs1I4G5KWFz5n_15embedded_charts9dashboard4gridNtB4_10GridLayout23calculate_cell_viewport
FNDA:7,_RNvMs_NtNtCs1I4G5KWFz5n_15embedded_charts9dashboard4gridNtB4_10GridLayout3new
FNF:10
FNH:8
DA:21,11
DA:22,11
DA:23,11
DA:24,11
DA:25,11
DA:26,11
DA:27,11
DA:28,11
DA:31,2
DA:32,2
DA:33,2
DA:34,2
DA:35,2
DA:36,2
DA:37,2
DA:38,2
DA:52,7
DA:53,7
DA:54,7
DA:55,7
DA:56,7
DA:57,7
DA:60,11
DA:61,11
DA:62,11
DA:63,11
DA:64,11
DA:65,11
DA:66,11
DA:67,11
DA:68,11
DA:69,11
DA:70,11
DA:71,11
DA:72,11
DA:73,11
DA:74,11
DA:75,11
DA:76,11
DA:77,11
DA:78,11
DA:79,11
DA:80,11
DA:81,11
DA:82,11
DA:83,11
DA:84,11
DA:85,11
DA:86,11
DA:87,11
DA:88,11
DA:89,11
DA:90,11
DA:93,2
DA:94,2
DA:95,2
DA:96,2
DA:97,2
DA:98,2
DA:99,2
DA:101,8
DA:102,6
DA:103,6
DA:104,6
DA:105,6
DA:108,2
DA:109,2
DA:113,0
DA:114,0
DA:115,0
DA:123,1
DA:124,1
DA:125,1
DA:126,1
DA:127,1
DA:128,1
DA:130,1
DA:131,1
DA:132,1
DA:133,1
DA:136,1
DA:137,1
DA:138,1
DA:139,1
DA:140,1
DA:141,1
DA:142,1
DA:143,1
DA:144,1
DA:145,1
DA:146,1
DA:147,1
DA:150,1
DA:151,1
DA:152,1
DA:153,1
DA:156,1
DA:157,1
DA:158,1
DA:159,1
DA:160,1
DA:161,1
DA:162,1
DA:163,1
DA:164,1
DA:165,1
BRF:0
BRH:0
LF:107
LH:103
end_of_record
SF:/home/tasuku/com/github/signal-slot/embedded-charts/src/dashboard/layout.rs
FN:38,_RNCNvMNtNtCs1I4G5KWFz5n_15embedded_charts9dashboard6layoutNtB4_15DashboardLayout19calculate_viewports0B8_
FN:95,_RNvNtNtNtCs1I4G5KWFz5n_15embedded_charts9dashboard6layout5testss_29test_layout_preset_conversion
FN:107,_RNvNtNtNtCs1I4G5KWFz5n_15embedded_charts9dashboard6layout5testss_41test_dashboard_layout_calculate_viewports
FN:19,_RNvMNtNtCs1I4G5KWFz5n_15embedded_charts9dashboard6layoutNtB2_15DashboardLayout19calculate_viewports
FN:75,_RNvMs_NtNtCs1I4G5KWFz5n_15embedded_charts9dashboard6layoutNtB4_12LayoutPreset9to_layout
FNDA:0,_RNCNvMNtNtCs1I4G5KWFz5n_15embedded_charts9dashboard6layoutNtB4_15DashboardLayout19calculate_viewports0B8_
FNDA:1,_RNvNtNtNtCs1I4G5KWFz5n_15embedded_charts9dashboard6layout5testss_29test_layout_preset_conversion
FNDA:1,_RNvNtNtNtCs1I4G5KWFz5n_15embedded_charts9dashboard6layout5testss_41test_dashboard_layout_calculate_viewports
FNDA:1,_RNvMNtNtCs1I4G5KWFz5n_15embedded_charts9dashboard6layoutNtB2_15DashboardLayout19calculate_viewports
FNDA:2,_RNvMs_NtNtCs1I4G5KWFz5n_15embedded_charts9dashboard6layoutNtB4_12LayoutPreset9to_layout
FNF:5
FNH:4
DA:19,1
DA:20,1
DA:21,1
DA:22,1
DA:23,1
DA:24,1
DA:25,1
DA:26,1
DA:27,1
DA:28,1
DA:29,1
DA:31,2
DA:32,4
DA:33,4
DA:34,1
DA:35,3
DA:36,3
DA:37,3
DA:38,3
DA:39,3
DA:43,1
DA:47,0
DA:50,1
DA:75,2
DA:76,2
DA:77,0
DA:78,0
DA:79,0
DA:80,2
DA:81,0
DA:82,0
DA:83,0
DA:84,0
DA:86,2
DA:95,1
DA:96,1
DA:97,1
DA:98,1
DA:99,1
DA:100,1
DA:102,0
DA:104,1
DA:107,1
DA:108,1
DA:109,1
DA:110,1
DA:111,1
DA:112,1
DA:115,1
DA:116,1
DA:119,1
DA:120,1
DA:123,1
DA:124,1
DA:125,1
BRF:0
BRH:0
LF:56
LH:46
end_of_record
SF:/home/tasuku/com/github/signal-slot/embedded-charts/src/dashboard/mod.rs
FN:57,_RNvNtNtCs1I4G5KWFz5n_15embedded_charts9dashboard5testss_19test_layout_presets
FN:44,_RNvNtNtCs1I4G5KWFz5n_15embedded_charts9dashboard5testss_30test_simple_dashboard_creation
FNDA:1,_RNvNtNtCs1I4G5KWFz5n_15embedded_charts9dashboard5testss_19test_layout_presets
FNDA:1,_RNvNtNtCs1I4G5KWFz5n_15embedded_charts9dashboard5testss_30test_simple_dashboard_creation
FNF:2
FNH:2
DA:44,1
DA:45,1
DA:46,1
DA:47,1
DA:48,1
DA:49,1
DA:50,1
DA:51,1
DA:52,1
DA:53,1
DA:54,1
DA:57,1
DA:58,1
DA:59,1
DA:60,1
DA:61,1
DA:62,1
DA:63,1
DA:64,1
DA:66,0
DA:68,1
BRF:0
BRH:0
LF:21
LH:20
end_of_record
SF:/home/tasuku/com/github/signal-slot/embedded-charts/src/dashboard/simple.rs
FN:29,_RNvMNtNtCs1I4G5KWFz5n_15embedded_charts9dashboard6simpleNtB2_15SimpleDashboard12get_viewport
FN:21,_RNvMNtNtCs1I4G5KWFz5n_15embedded_charts9dashboard6simpleNtB2_15SimpleDashboard3new
FN:66,_RNvNtNtNtCs1I4G5KWFz5n_15embedded_charts9dashboard6simple5testss_21test_simple_dashboard
FN:35,_RINvMNtNtCs1I4G5KWFz5n_15embedded_charts9dashboard6simpleNtB3_15SimpleDashboard17get_all_viewportsKj4_EB7_
FN:50,_RNCINvMNtNtCs1I4G5KWFz5n_15embedded_charts9dashboard6simpleNtB5_15SimpleDashboard17get_all_viewportsKj4_E0B9_
FNDA:2,_RNvMNtNtCs1I4G5KWFz5n_15embedded_charts9dashboard6simpleNtB2_15SimpleDashboard12get_viewport
FNDA:2,_RNvMNtNtCs1I4G5KWFz5n_15embedded_charts9dashboard6simpleNtB2_15SimpleDashboard3new
FNDA:1,_RNvNtNtNtCs1I4G5KWFz5n_15embedded_charts9dashboard6simple5testss_21test_simple_dashboard
FNDA:1,_RINvMNtNtCs1I4G5KWFz5n_15embedded_charts9dashboard6simpleNtB3_15SimpleDashboard17get_all_viewportsKj4_EB7_
FNDA:0,_RNCINvMNtNtCs1I4G5KWFz5n_15embedded_charts9dashboard6simpleNtB5_15SimpleDashboard17get_all_viewportsKj4_E0B9_
FNF:5
FNH:4
DA:21,2
DA:22,2
DA:23,2
DA:24,2
DA:25,2
DA:26,2
DA:29,2
DA:30,2
DA:31,2
DA:32,2
DA:35,1
DA:36,1
DA:37,1
DA:38,1
DA:39,1
DA:40,1
DA:41,1
DA:43,2
DA:44,4
DA:45,4
DA:46,1
DA:47,3
DA:48,3
DA:49,3
DA:50,3
DA:51,3
DA:55,1
DA:56,1
DA:57,1
DA:66,1
DA:67,1
DA:68,1
DA:69,1
DA:70,1
DA:71,1
DA:72,1
DA:73,1
DA:76,1
DA:77,1
DA:78,1
BRF:0
BRH:0
LF:41
LH:40
end_of_record
SF:/home/tasuku/com/github/signal-slot/embedded-charts/src/data/aggregation.rs
FN:315,_RINvXININtNtCs1I4G5KWFz5n_15embedded_charts4data11aggregations0_0pKpEINtNtB8_6series16StaticDataSeriespKpENtB6_15DataAggregation15downsample_lttbKpEBa_
FN:616,_RNvMs1_NtNtCs1I4G5KWFz5n_15embedded_charts4data11aggregationINtNtB7_6series16StaticDataSeriespKpE23calculate_average_pointB9_
FN:641,_RNvMs1_NtNtCs1I4G5KWFz5n_15embedded_charts4data11aggregationINtNtB7_6series16StaticDataSeriespKpE23calculate_triangle_areaB9_
FN:125,_RNvXNtNtCs1I4G5KWFz5n_15embedded_charts4data11aggregationNtB2_17AggregationConfigNtNtCs3XRySYX51hI_4core7default7Default7default
FN:147,_RNvXs_NtNtCs1I4G5KWFz5n_15embedded_charts4data11aggregationNtB4_18DownsamplingConfigNtNtCs3XRySYX51hI_4core7default7Default7default
FN:555,_RNCNvMs1_NtNtCs1I4G5KWFz5n_15embedded_charts4data11aggregationINtNtB9_6series16StaticDataSeriesNtNtB9_5point7Point2DKj100_E15aggregate_group0Bb_
FN:580,_RNCNvMs1_NtNtCs1I4G5KWFz5n_15embedded_charts4data11aggregationINtNtB9_6series16StaticDataSeriesNtNtB9_5point7Point2DKj100_E15aggregate_groups0_0Bb_
FN:593,_RNCNvMs1_NtNtCs1I4G5KWFz5n_15embedded_charts4data11aggregationINtNtB9_6series16StaticDataSeriesNtNtB9_5point7Point2DKj100_E15aggregate_groups1_0Bb_
FN:604,_RNCNvMs1_NtNtCs1I4G5KWFz5n_15embedded_charts4data11aggregationINtNtB9_6series16StaticDataSeriesNtNtB9_5point7Point2DKj100_E15aggregate_groups2_0Bb_
FN:556,_RNCNvMs1_NtNtCs1I4G5KWFz5n_15embedded_charts4data11aggregationINtNtB9_6series16StaticDataSeriesNtNtB9_5point7Point2DKj100_E15aggregate_groups_0Bb_
FN:697,_RNvNtNtNtCs1I4G5KWFz5n_15embedded_charts4data11aggregation5testss_21test_mean_aggregation
FN:726,_RNvNtNtNtCs1I4G5KWFz5n_15embedded_charts4data11aggregation5testss_25test_uniform_downsampling
FN:679,_RNvNtNtNtCs1I4G5KWFz5n_15embedded_charts4data11aggregation5testss_28test_group_stats_calculation
FN:662,_RNvNtNtNtCs1I4G5KWFz5n_15embedded_charts4data11aggregation5testss_31test_aggregation_config_default
FN:671,_RNvNtNtNtCs1I4G5KWFz5n_15embedded_charts4data11aggregation5testss_32test_downsampling_config_default
FN:746,_RNvNtNtNtCs1I4G5KWFz5n_15embedded_charts4data11aggregation5testss_35test_no_aggregation_when_not_needed
FN:425,_RINvXs0_NtNtCs1I4G5KWFz5n_15embedded_charts4data11aggregationINtNtB8_6series16StaticDataSeriesNtNtB8_5point7Point2DKj100_ENtB6_15DataAggregation18downsample_uniformKB1Q_EBa_
FN:250,_RINvXs0_NtNtCs1I4G5KWFz5n_15embedded_charts4data11aggregationINtNtB8_6series16StaticDataSeriesNtNtB8_5point7Point2DKj100_ENtB6_15DataAggregation9aggregateKB1Q_EBa_
FN:534,_RNvMs1_NtNtCs1I4G5KWFz5n_15embedded_charts4data11aggregationINtNtB7_6series16StaticDataSeriesNtNtB7_5point7Point2DKj100_E15aggregate_groupB9_
FN:462,_RNvXs0_NtNtCs1I4G5KWFz5n_15embedded_charts4data11aggregationINtNtB7_6series16StaticDataSeriesNtNtB7_5point7Point2DKj100_ENtB5_15DataAggregation21calculate_group_statsB9_
FNDA:0,_RINvXININtNtCs1I4G5KWFz5n_15embedded_charts4data11aggregations0_0pKpEINtNtB8_6series16StaticDataSeriespKpENtB6_15DataAggregation15downsample_lttbKpEBa_
FNDA:0,_RNvMs1_NtNtCs1I4G5KWFz5n_15embedded_charts4data11aggregationINtNtB7_6series16StaticDataSeriespKpE23calculate_average_pointB9_
FNDA:0,_RNvMs1_NtNtCs1I4G5KWFz5n_15embedded_charts4data11aggregationINtNtB7_6series16StaticDataSeriespKpE23calculate_triangle_areaB9_
FNDA:2,_RNvXNtNtCs1I4G5KWFz5n_15embedded_charts4data11aggregationNtB2_17AggregationConfigNtNtCs3XRySYX51hI_4core7default7Default7default
FNDA:1,_RNvXs_NtNtCs1I4G5KWFz5n_15embedded_charts4data11aggregationNtB4_18DownsamplingConfigNtNtCs3XRySYX51hI_4core7default7Default7default
FNDA:0,_RNCNvMs1_NtNtCs1I4G5KWFz5n_15embedded_charts4data11aggregationINtNtB9_6series16StaticDataSeriesNtNtB9_5point7Point2DKj100_E15aggregate_group0Bb_
FNDA:0,_RNCNvMs1_NtNtCs1I4G5KWFz5n_15embedded_charts4data11aggregationINtNtB9_6series16StaticDataSeriesNtNtB9_5point7Point2DKj100_E15aggregate_groups0_0Bb_
FNDA:0,_RNCNvMs1_NtNtCs1I4G5KWFz5n_15embedded_charts4data11aggregationINtNtB9_6series16StaticDataSeriesNtNtB9_5point7Point2DKj100_E15aggregate_groups1_0Bb_
FNDA:0,_RNCNvMs1_NtNtCs1I4G5KWFz5n_15embedded_charts4data11aggregationINtNtB9_6series16StaticDataSeriesNtNtB9_5point7Point2DKj100_E15aggregate_groups2_0Bb_
FNDA:0,_RNCNvMs1_NtNtCs1I4G5KWFz5n_15embedded_charts4data11aggregationINtNtB9_6series16StaticDataSeriesNtNtB9_5point7Point2DKj100_E15aggregate_groups_0Bb_
FNDA:1,_RNvNtNtNtCs1I4G5KWFz5n_15embedded_charts4data11aggregation5testss_21test_mean_aggregation
FNDA:1,_RNvNtNtNtCs1I4G5KWFz5n_15embedded_charts4data11aggregation5testss_25test_uniform_downsampling
FNDA:1,_RNvNtNtNtCs1I4G5KWFz5n_15embedded_charts4data11aggregation5testss_28test_group_stats_calculation
FNDA:1,_RNvNtNtNtCs1I4G5KWFz5n_15embedded_charts4data11aggregation5testss_31test_aggregation_config_default
FNDA:1,_RNvNtNtNtCs1I4G5KWFz5n_15embedded_charts4data11aggregation5testss_32test_downsampling_config_default
FNDA:1,_RNvNtNtNtCs1I4G5KWFz5n_15embedded_charts4data11aggregation5testss_35test_no_aggregation_when_not_needed
FNDA:1,_RINvXs0_NtNtCs1I4G5KWFz5n_15embedded_charts4data11aggregationINtNtB8_6series16StaticDataSeriesNtNtB8_5point7Point2DKj100_ENtB6_15DataAggregation18downsample_uniformKB1Q_EBa_
FNDA:2,_RINvXs0_NtNtCs1I4G5KWFz5n_15embedded_charts4data11aggregationINtNtB8_6series16StaticDataSeriesNtNtB8_5point7Point2DKj100_ENtB6_15DataAggregation9aggregateKB1Q_EBa_
FNDA:2,_RNvMs1_NtNtCs1I4G5KWFz5n_15embedded_charts4data11aggregationINtNtB7_6series16StaticDataSeriesNtNtB7_5point7Point2DKj100_E15aggregate_groupB9_
FNDA:3,_RNvXs0_NtNtCs1I4G5KWFz5n_15embedded_charts4data11aggregationINtNtB7_6series16StaticDataSeriesNtNtB7_5point7Point2DKj100_ENtB5_15DataAggregation21calculate_group_statsB9_
FNF:20
FNH:12
DA:125,2
DA:126,2
DA:127,2
DA:128,2
DA:129,2
DA:130,2
DA:131,2
DA:132,2
DA:147,1
DA:148,1
DA:149,1
DA:150,1
DA:151,1
DA:152,1
DA:153,1
DA:250,2
DA:251,2
DA:252,2
DA:253,2
DA:254,2
DA:255,0
DA:256,2
DA:257,2
DA:258,2
DA:260,1
DA:261,2
DA:262,2
DA:264,1
DA:265,1
DA:266,1
DA:267,1
DA:268,1
DA:269,1
DA:270,1
DA:271,1
DA:272,1
DA:273,1
DA:274,1
DA:275,1
DA:276,1
DA:277,1
DA:278,1
DA:279,0
DA:280,0
DA:281,1
DA:284,3
DA:285,2
DA:286,2
DA:287,2
DA:288,2
DA:289,0
DA:290,2
DA:292,2
DA:293,2
DA:294,2
DA:295,2
DA:296,2
DA:297,0
DA:298,0
DA:300,2
DA:304,1
DA:305,0
DA:306,0
DA:307,0
DA:308,0
DA:309,0
DA:310,1
DA:312,1
DA:313,2
DA:315,0
DA:316,0
DA:317,0
DA:318,0
DA:319,0
DA:320,0
DA:321,0
DA:322,0
DA:323,0
DA:324,0
DA:325,0
DA:326,0
DA:327,0
DA:328,0
DA:329,0
DA:331,0
DA:332,0
DA:333,0
DA:334,0
DA:335,0
DA:336,0
DA:337,0
DA:338,0
DA:339,0
DA:341,0
DA:342,0
DA:343,0
DA:344,0
DA:345,0
DA:346,0
DA:347,0
DA:348,0
DA:350,0
DA:352,0
DA:353,0
DA:354,0
DA:355,0
DA:356,0
DA:357,0
DA:358,0
DA:359,0
DA:360,0
DA:363,0
DA:364,0
DA:365,0
DA:366,0
DA:367,0
DA:368,0
DA:369,0
DA:370,0
DA:371,0
DA:372,0
DA:373,0
DA:374,0
DA:375,0
DA:376,0
DA:377,0
DA:378,0
DA:379,0
DA:380,0
DA:381,0
DA:382,0
DA:383,0
DA:384,0
DA:385,0
DA:386,0
DA:390,0
DA:391,0
DA:393,0
DA:397,0
DA:398,0
DA:400,0
DA:401,0
DA:402,0
DA:403,0
DA:404,0
DA:405,0
DA:406,0
DA:407,0
DA:408,0
DA:409,0
DA:410,0
DA:413,0
DA:414,0
DA:418,0
DA:419,0
DA:420,0
DA:422,0
DA:423,0
DA:425,1
DA:426,1
DA:427,1
DA:428,1
DA:429,1
DA:430,0
DA:431,1
DA:432,1
DA:433,1
DA:434,1
DA:435,1
DA:436,0
DA:437,0
DA:438,0
DA:440,0
DA:441,1
DA:442,1
DA:443,1
DA:444,1
DA:445,1
DA:446,1
DA:447,1
DA:448,1
DA:449,1
DA:450,1
DA:452,5
DA:453,5
DA:454,5
DA:455,5
DA:456,5
DA:459,1
DA:460,1
DA:462,3
DA:463,3
DA:464,0
DA:465,3
DA:466,3
DA:467,3
DA:468,3
DA:469,3
DA:470,3
DA:471,3
DA:472,3
DA:473,3
DA:474,3
DA:475,3
DA:476,3
DA:478,4
DA:479,4
DA:480,4
DA:481,4
DA:482,4
DA:483,0
DA:484,4
DA:485,4
DA:486,4
DA:487,4
DA:488,4
DA:489,1
DA:490,3
DA:491,4
DA:492,3
DA:493,3
DA:495,4
DA:496,4
DA:499,3
DA:500,3
DA:501,3
DA:502,3
DA:503,3
DA:504,3
DA:505,3
DA:506,3
DA:507,3
DA:508,3
DA:509,3
DA:510,3
DA:511,3
DA:512,3
DA:513,3
DA:514,3
DA:534,2
DA:535,2
DA:536,0
DA:537,2
DA:538,2
DA:539,2
DA:541,2
DA:542,2
DA:546,0
DA:547,0
DA:549,0
DA:550,0
DA:551,0
DA:552,0
DA:555,0
DA:556,0
DA:558,0
DA:559,0
DA:560,0
DA:561,0
DA:563,0
DA:566,0
DA:567,0
DA:568,0
DA:569,0
DA:571,0
DA:574,0
DA:578,0
DA:579,0
DA:580,0
DA:581,0
DA:582,0
DA:583,0
DA:584,0
DA:585,0
DA:586,0
DA:588,0
DA:589,0
DA:591,0
DA:592,0
DA:593,0
DA:594,0
DA:595,0
DA:596,0
DA:597,0
DA:598,0
DA:599,0
DA:602,0
DA:603,0
DA:604,0
DA:605,0
DA:606,0
DA:607,0
DA:608,0
DA:609,0
DA:610,0
DA:613,2
DA:616,0
DA:617,0
DA:618,0
DA:619,0
DA:620,0
DA:621,0
DA:622,0
DA:623,0
DA:624,0
DA:625,0
DA:626,0
DA:628,0
DA:629,0
DA:630,0
DA:631,0
DA:633,0
DA:634,0
DA:635,0
DA:636,0
DA:637,0
DA:638,0
DA:641,0
DA:642,0
DA:643,0
DA:644,0
DA:645,0
DA:646,0
DA:647,0
DA:648,0
DA:649,0
DA:650,0
DA:651,0
DA:652,0
DA:653,0
DA:662,1
DA:663,1
DA:664,1
DA:665,1
DA:666,1
DA:667,1
DA:668,1
DA:671,1
DA:672,1
DA:673,1
DA:674,1
DA:675,1
DA:676,1
DA:679,1
DA:680,1
DA:681,1
DA:682,1
DA:683,1
DA:684,1
DA:685,1
DA:686,1
DA:687,1
DA:688,1
DA:689,1
DA:690,1
DA:691,1
DA:692,1
DA:693,1
DA:694,1
DA:697,1
DA:698,1
DA:699,1
DA:700,1
DA:701,1
DA:702,1
DA:703,1
DA:704,1
DA:705,1
DA:706,1
DA:707,1
DA:708,1
DA:709,1
DA:710,1
DA:711,1
DA:712,1
DA:715,1
DA:716,1
DA:717,1
DA:720,1
DA:721,1
DA:722,1
DA:723,1
DA:726,1
DA:727,1
DA:728,11
DA:729,10
DA:730,10
DA:731,10
DA:732,10
DA:734,1
DA:735,1
DA:736,1
DA:737,1
DA:738,1
DA:739,1
DA:740,1
DA:741,1
DA:742,1
DA:743,1
DA:746,1
DA:747,1
DA:748,1
DA:749,1
DA:750,1
DA:751,1
DA:752,1
DA:753,1
DA:754,1
DA:755,1
DA:756,1
DA:757,1
DA:758,1
DA:759,1
DA:760,1
BRF:0
BRH:0
LF:419
LH:224
end_of_record
SF:/home/tasuku/com/github/signal-slot/embedded-charts/src/data/bounds.rs
FN:71,_RINvMNtNtCs1I4G5KWFz5n_15embedded_charts4data6boundsINtB3_10DataBoundsffE17expand_to_includeNtNtB5_5point7Point2DEB7_
FN:60,_RINvMNtNtCs1I4G5KWFz5n_15embedded_charts4data6boundsINtB3_10DataBoundsffE8containsNtNtB5_5point7Point2DEB7_
FN:195,_RINvNtNtCs1I4G5KWFz5n_15embedded_charts4data6bounds16calculate_boundsNtNtB4_5point7Point2DINtNtB4_6series20StaticDataSeriesIterB15_Kj100_EEB6_
FN:195,_RINvNtNtCs1I4G5KWFz5n_15embedded_charts4data6bounds16calculate_boundsNtNtB4_5point7Point2DINtNtCskfOXI52s3xc_8heapless3vec8IntoIterB15_Kj8_EEB6_
FN:195,_RINvNtNtCs1I4G5KWFz5n_15embedded_charts4data6bounds16calculate_boundsNtNtB4_5point7Point2DINtNtNtNtCs3XRySYX51hI_4core4iter8adapters10filter_map9FilterMapINtNtNtB1z_3ops5range5RangejENCNvMs3_NtB6_6memoryINtB33_20ManagedSlidingWindowB15_Kj5_E4iter0EEB6_
FN:195,_RINvNtNtCs1I4G5KWFz5n_15embedded_charts4data6bounds16calculate_boundsNtNtB4_5point7Point2DINtNtNtNtCs3XRySYX51hI_4core4iter8adapters10filter_map9FilterMapINtNtNtB1z_3ops5range5RangejENCNvMs3_NtB6_6memoryINtB33_20ManagedSlidingWindowB15_Kja_E4iter0EEB6_
FN:30,_RNvMNtNtCs1I4G5KWFz5n_15embedded_charts4data6boundsINtB2_10DataBoundsddE3newB6_
FN:90,_RNvMNtNtCs1I4G5KWFz5n_15embedded_charts4data6boundsINtB2_10DataBoundsddE5mergeB6_
FN:30,_RNvMNtNtCs1I4G5KWFz5n_15embedded_charts4data6boundsINtB2_10DataBoundsffE3newB6_
FN:223,_RINvNtNtCs1I4G5KWFz5n_15embedded_charts4data6bounds29calculate_multi_series_boundspppEB6_
FN:44,_RNvMNtNtCs1I4G5KWFz5n_15embedded_charts4data6boundsINtB2_10DataBoundsppE5widthB6_
FN:52,_RNvMNtNtCs1I4G5KWFz5n_15embedded_charts4data6boundsINtB2_10DataBoundsppE6heightB6_
FN:137,_RNvMs_NtNtCs1I4G5KWFz5n_15embedded_charts4data6boundsINtB4_10DataBoundsffE11nice_bounds
FN:124,_RNvMs_NtNtCs1I4G5KWFz5n_15embedded_charts4data6boundsINtB4_10DataBoundsffE12with_padding
FN:138,_RNvNvMs_NtNtCs1I4G5KWFz5n_15embedded_charts4data6boundsINtB6_10DataBoundsffE11nice_bounds11nice_number
FN:301,_RNvNtNtNtCs1I4G5KWFz5n_15embedded_charts4data6bounds5testss_17test_bounds_merge
FN:261,_RNvNtNtNtCs1I4G5KWFz5n_15embedded_charts4data6bounds5testss_19test_invalid_bounds
FN:267,_RNvNtNtNtCs1I4G5KWFz5n_15embedded_charts4data6bounds5testss_20test_bounds_contains
FN:252,_RNvNtNtNtCs1I4G5KWFz5n_15embedded_charts4data6bounds5testss_20test_bounds_creation
FN:277,_RNvNtNtNtCs1I4G5KWFz5n_15embedded_charts4data6bounds5testss_21test_bounds_expansion
FN:287,_RNvNtNtNtCs1I4G5KWFz5n_15embedded_charts4data6bounds5testss_21test_calculate_bounds
FNDA:167,_RINvMNtNtCs1I4G5KWFz5n_15embedded_charts4data6boundsINtB3_10DataBoundsffE17expand_to_includeNtNtB5_5point7Point2DEB7_
FNDA:2,_RINvMNtNtCs1I4G5KWFz5n_15embedded_charts4data6boundsINtB3_10DataBoundsffE8containsNtNtB5_5point7Point2DEB7_
FNDA:19,_RINvNtNtCs1I4G5KWFz5n_15embedded_charts4data6bounds16calculate_boundsNtNtB4_5point7Point2DINtNtB4_6series20StaticDataSeriesIterB15_Kj100_EEB6_
FNDA:1,_RINvNtNtCs1I4G5KWFz5n_15embedded_charts4data6bounds16calculate_boundsNtNtB4_5point7Point2DINtNtCskfOXI52s3xc_8heapless3vec8IntoIterB15_Kj8_EEB6_
FNDA:1,_RINvNtNtCs1I4G5KWFz5n_15embedded_charts4data6bounds16calculate_boundsNtNtB4_5point7Point2DINtNtNtNtCs3XRySYX51hI_4core4iter8adapters10filter_map9FilterMapINtNtNtB1z_3ops5range5RangejENCNvMs3_NtB6_6memoryINtB33_20ManagedSlidingWindowB15_Kj5_E4iter0EEB6_
FNDA:7,_RINvNtNtCs1I4G5KWFz5n_15embedded_charts4data6bounds16calculate_boundsNtNtB4_5point7Point2DINtNtNtNtCs3XRySYX51hI_4core4iter8adapters10filter_map9FilterMapINtNtNtB1z_3ops5range5RangejENCNvMs3_NtB6_6memoryINtB33_20ManagedSlidingWindowB15_Kja_E4iter0EEB6_
FNDA:4,_RNvMNtNtCs1I4G5KWFz5n_15embedded_charts4data6boundsINtB2_10DataBoundsddE3newB6_
FNDA:1,_RNvMNtNtCs1I4G5KWFz5n_15embedded_charts4data6boundsINtB2_10DataBoundsddE5mergeB6_
FNDA:2,_RNvMNtNtCs1I4G5KWFz5n_15embedded_charts4data6boundsINtB2_10DataBoundsffE3newB6_
FNDA:0,_RINvNtNtCs1I4G5KWFz5n_15embedded_charts4data6bounds29calculate_multi_series_boundspppEB6_
FNDA:0,_RNvMNtNtCs1I4G5KWFz5n_15embedded_charts4data6boundsINtB2_10DataBoundsppE5widthB6_
FNDA:0,_RNvMNtNtCs1I4G5KWFz5n_15embedded_charts4data6boundsINtB2_10DataBoundsppE6heightB6_
FNDA:0,_RNvMs_NtNtCs1I4G5KWFz5n_15embedded_charts4data6boundsINtB4_10DataBoundsffE11nice_bounds
FNDA:0,_RNvMs_NtNtCs1I4G5KWFz5n_15embedded_charts4data6boundsINtB4_10DataBoundsffE12with_padding
FNDA:0,_RNvNvMs_NtNtCs1I4G5KWFz5n_15embedded_charts4data6boundsINtB6_10DataBoundsffE11nice_bounds11nice_number
FNDA:1,_RNvNtNtNtCs1I4G5KWFz5n_15embedded_charts4data6bounds5testss_17test_bounds_merge
FNDA:1,_RNvNtNtNtCs1I4G5KWFz5n_15embedded_charts4data6bounds5testss_19test_invalid_bounds
FNDA:1,_RNvNtNtNtCs1I4G5KWFz5n_15embedded_charts4data6bounds5testss_20test_bounds_contains
FNDA:1,_RNvNtNtNtCs1I4G5KWFz5n_15embedded_charts4data6bounds5testss_20test_bounds_creation
FNDA:1,_RNvNtNtNtCs1I4G5KWFz5n_15embedded_charts4data6bounds5testss_21test_bounds_expansion
FNDA:1,_RNvNtNtNtCs1I4G5KWFz5n_15embedded_charts4data6bounds5testss_21test_calculate_bounds
FNF:17
FNH:11
DA:30,6
DA:31,6
DA:32,1
DA:33,5
DA:34,5
DA:35,5
DA:36,5
DA:37,5
DA:38,5
DA:39,5
DA:40,5
DA:41,6
DA:44,0
DA:45,0
DA:46,0
DA:47,0
DA:48,0
DA:49,0
DA:52,0
DA:53,0
DA:54,0
DA:55,0
DA:56,0
DA:57,0
DA:60,2
DA:61,2
DA:62,2
DA:63,2
DA:64,2
DA:65,2
DA:66,1
DA:67,1
DA:68,2
DA:71,167
DA:72,167
DA:73,167
DA:74,167
DA:75,167
DA:76,0
DA:77,167
DA:78,167
DA:79,166
DA:80,166
DA:81,167
DA:82,0
DA:83,167
DA:84,167
DA:85,150
DA:86,150
DA:87,167
DA:90,1
DA:91,1
DA:92,1
DA:93,1
DA:95,0
DA:97,1
DA:98,0
DA:100,1
DA:102,1
DA:103,1
DA:105,0
DA:107,1
DA:108,0
DA:110,1
DA:113,1
DA:124,0
DA:125,0
DA:126,0
DA:127,0
DA:128,0
DA:129,0
DA:130,0
DA:131,0
DA:132,0
DA:133,0
DA:134,0
DA:137,0
DA:138,0
DA:139,0
DA:140,0
DA:141,0
DA:142,0
DA:143,0
DA:144,0
DA:145,0
DA:146,0
DA:147,0
DA:148,0
DA:149,0
DA:151,0
DA:152,0
DA:153,0
DA:154,0
DA:155,0
DA:156,0
DA:157,0
DA:159,0
DA:161,0
DA:162,0
DA:163,0
DA:164,0
DA:165,0
DA:166,0
DA:168,0
DA:171,0
DA:172,0
DA:173,0
DA:174,0
DA:176,0
DA:177,0
DA:178,0
DA:179,0
DA:180,0
DA:181,0
DA:182,0
DA:183,0
DA:184,0
DA:185,0
DA:186,0
DA:187,0
DA:188,0
DA:189,0
DA:190,0
DA:191,0
DA:195,28
DA:196,28
DA:197,28
DA:198,28
DA:199,28
DA:200,28
DA:201,28
DA:202,28
DA:205,28
DA:207,28
DA:208,28
DA:209,28
DA:210,28
DA:211,28
DA:212,28
DA:215,194
DA:216,166
DA:217,166
DA:219,28
DA:220,28
DA:223,0
DA:224,0
DA:225,0
DA:226,0
DA:227,0
DA:228,0
DA:229,0
DA:230,0
DA:231,0
DA:234,0
DA:235,0
DA:238,0
DA:239,0
DA:240,0
DA:243,0
DA:244,0
DA:252,1
DA:253,1
DA:254,1
DA:255,1
DA:256,1
DA:257,1
DA:258,1
DA:261,1
DA:262,1
DA:263,1
DA:264,1
DA:267,1
DA:268,1
DA:269,1
DA:270,1
DA:272,1
DA:273,1
DA:274,1
DA:277,1
DA:278,1
DA:279,1
DA:280,1
DA:281,1
DA:282,1
DA:283,1
DA:284,1
DA:287,1
DA:288,1
DA:289,1
DA:290,1
DA:291,1
DA:292,1
DA:293,1
DA:294,1
DA:295,1
DA:296,1
DA:297,1
DA:298,1
DA:301,1
DA:302,1
DA:303,1
DA:304,1
DA:305,1
DA:306,1
DA:307,1
DA:308,1
DA:309,1
DA:310,1
BRF:0
BRH:0
LF:208
LH:115
end_of_record
SF:/home/tasuku/com/github/signal-slot/embedded-charts/src/data/point.rs
FN:194,_RINvNtNtCs1I4G5KWFz5n_15embedded_charts4data5point14validate_pointpEB6_
FN:38,_RNvMNtNtCs1I4G5KWFz5n_15embedded_charts4data5pointNtB2_7Point2D11distance_to
FN:100,_RNvMs2_NtNtCs1I4G5KWFz5n_15embedded_charts4data5pointNtB5_8IntPoint6to_f32
FN:79,_RNvXs1_NtNtCs1I4G5KWFz5n_15embedded_charts4data5pointTffEINtNtCs3XRySYX51hI_4core7convert4FromNtB5_7Point2DE4from
FN:117,_RNvXs3_NtNtCs1I4G5KWFz5n_15embedded_charts4data5pointNtB5_8IntPointNtB5_9DataPoint3new
FN:123,_RNvXs4_NtNtCs1I4G5KWFz5n_15embedded_charts4data5pointNtB5_8IntPointINtNtCs3XRySYX51hI_4core7convert4FromTllEE4from
FN:129,_RNvXs5_NtNtCs1I4G5KWFz5n_15embedded_charts4data5pointTllEINtNtCs3XRySYX51hI_4core7convert4FromNtB5_8IntPointE4from
FN:162,_RNvXs7_NtNtCs1I4G5KWFz5n_15embedded_charts4data5pointNtB5_16TimestampedPointNtB5_9DataPoint3new
FN:168,_RNvXs8_NtNtCs1I4G5KWFz5n_15embedded_charts4data5pointNtB5_16TimestampedPointINtNtCs3XRySYX51hI_4core7convert4FromTffEE4from
FN:186,_RNvXs9_NtNtCs1I4G5KWFz5n_15embedded_charts4data5pointNtB5_16TimestampedPointNtB5_14Interpolatable11interpolate
FN:246,_RNvNtNtNtCs1I4G5KWFz5n_15embedded_charts4data5point5testss_18test_interpolation
FN:217,_RNvNtNtNtCs1I4G5KWFz5n_15embedded_charts4data5point5testss_21test_point2d_creation
FN:238,_RNvNtNtNtCs1I4G5KWFz5n_15embedded_charts4data5point5testss_22test_timestamped_point
FN:231,_RNvNtNtNtCs1I4G5KWFz5n_15embedded_charts4data5point5testss_23test_int_point_creation
FN:224,_RNvNtNtNtCs1I4G5KWFz5n_15embedded_charts4data5point5testss_23test_point2d_from_tuple
FN:33,_RNvMNtNtCs1I4G5KWFz5n_15embedded_charts4data5pointNtB2_7Point2D3new
FN:95,_RNvMs2_NtNtCs1I4G5KWFz5n_15embedded_charts4data5pointNtB5_8IntPoint3new
FN:145,_RNvMs6_NtNtCs1I4G5KWFz5n_15embedded_charts4data5pointNtB5_16TimestampedPoint3new
FN:73,_RNvXs0_NtNtCs1I4G5KWFz5n_15embedded_charts4data5pointNtB5_7Point2DINtNtCs3XRySYX51hI_4core7convert4FromTffEE4from
FN:109,_RNvXs3_NtNtCs1I4G5KWFz5n_15embedded_charts4data5pointNtB5_8IntPointNtB5_9DataPoint1x
FN:113,_RNvXs3_NtNtCs1I4G5KWFz5n_15embedded_charts4data5pointNtB5_8IntPointNtB5_9DataPoint1y
FN:154,_RNvXs7_NtNtCs1I4G5KWFz5n_15embedded_charts4data5pointNtB5_16TimestampedPointNtB5_9DataPoint1x
FN:158,_RNvXs7_NtNtCs1I4G5KWFz5n_15embedded_charts4data5pointNtB5_16TimestampedPointNtB5_9DataPoint1y
FN:59,_RNvXs_NtNtCs1I4G5KWFz5n_15embedded_charts4data5pointNtB4_7Point2DNtB4_9DataPoint1x
FN:63,_RNvXs_NtNtCs1I4G5KWFz5n_15embedded_charts4data5pointNtB4_7Point2DNtB4_9DataPoint1y
FN:67,_RNvXs_NtNtCs1I4G5KWFz5n_15embedded_charts4data5pointNtB4_7Point2DNtB4_9DataPoint3new
FNDA:0,_RINvNtNtCs1I4G5KWFz5n_15embedded_charts4data5point14validate_pointpEB6_
FNDA:0,_RNvMNtNtCs1I4G5KWFz5n_15embedded_charts4data5pointNtB2_7Point2D11distance_to
FNDA:0,_RNvMs2_NtNtCs1I4G5KWFz5n_15embedded_charts4data5pointNtB5_8IntPoint6to_f32
FNDA:0,_RNvXs1_NtNtCs1I4G5KWFz5n_15embedded_charts4data5pointTffEINtNtCs3XRySYX51hI_4core7convert4FromNtB5_7Point2DE4from
FNDA:0,_RNvXs3_NtNtCs1I4G5KWFz5n_15embedded_charts4data5pointNtB5_8IntPointNtB5_9DataPoint3new
FNDA:0,_RNvXs4_NtNtCs1I4G5KWFz5n_15embedded_charts4data5pointNtB5_8IntPointINtNtCs3XRySYX51hI_4core7convert4FromTllEE4from
FNDA:0,_RNvXs5_NtNtCs1I4G5KWFz5n_15embedded_charts4data5pointTllEINtNtCs3XRySYX51hI_4core7convert4FromNtB5_8IntPointE4from
FNDA:0,_RNvXs7_NtNtCs1I4G5KWFz5n_15embedded_charts4data5pointNtB5_16TimestampedPointNtB5_9DataPoint3new
FNDA:0,_RNvXs8_NtNtCs1I4G5KWFz5n_15embedded_charts4data5pointNtB5_16TimestampedPointINtNtCs3XRySYX51hI_4core7convert4FromTffEE4from
FNDA:0,_RNvXs9_NtNtCs1I4G5KWFz5n_15embedded_charts4data5pointNtB5_16TimestampedPointNtB5_14Interpolatable11interpolate
FNDA:1,_RNvNtNtNtCs1I4G5KWFz5n_15embedded_charts4data5point5testss_18test_interpolation
FNDA:1,_RNvNtNtNtCs1I4G5KWFz5n_15embedded_charts4data5point5testss_21test_point2d_creation
FNDA:1,_RNvNtNtNtCs1I4G5KWFz5n_15embedded_charts4data5point5testss_22test_timestamped_point
FNDA:1,_RNvNtNtNtCs1I4G5KWFz5n_15embedded_charts4data5point5testss_23test_int_point_creation
FNDA:1,_RNvNtNtNtCs1I4G5KWFz5n_15embedded_charts4data5point5testss_23test_point2d_from_tuple
FNDA:782,_RNvMNtNtCs1I4G5KWFz5n_15embedded_charts4data5pointNtB2_7Point2D3new
FNDA:1,_RNvMs2_NtNtCs1I4G5KWFz5n_15embedded_charts4data5pointNtB5_8IntPoint3new
FNDA:1,_RNvMs6_NtNtCs1I4G5KWFz5n_15embedded_charts4data5pointNtB5_16TimestampedPoint3new
FNDA:1,_RNvXs0_NtNtCs1I4G5KWFz5n_15embedded_charts4data5pointNtB5_7Point2DINtNtCs3XRySYX51hI_4core7convert4FromTffEE4from
FNDA:1,_RNvXs3_NtNtCs1I4G5KWFz5n_15embedded_charts4data5pointNtB5_8IntPointNtB5_9DataPoint1x
FNDA:1,_RNvXs3_NtNtCs1I4G5KWFz5n_15embedded_charts4data5pointNtB5_8IntPointNtB5_9DataPoint1y
FNDA:1,_RNvXs7_NtNtCs1I4G5KWFz5n_15embedded_charts4data5pointNtB5_16TimestampedPointNtB5_9DataPoint1x
FNDA:1,_RNvXs7_NtNtCs1I4G5KWFz5n_15embedded_charts4data5pointNtB5_16TimestampedPointNtB5_9DataPoint1y
FNDA:781,_RNvXs_NtNtCs1I4G5KWFz5n_15embedded_charts4data5pointNtB4_7Point2DNtB4_9DataPoint1x
FNDA:759,_RNvXs_NtNtCs1I4G5KWFz5n_15embedded_charts4data5pointNtB4_7Point2DNtB4_9DataPoint1y
FNDA:13,_RNvXs_NtNtCs1I4G5KWFz5n_15embedded_charts4data5pointNtB4_7Point2DNtB4_9DataPoint3new
FNF:26
FNH:16
DA:33,782
DA:34,782
DA:35,782
DA:38,0
DA:39,0
DA:40,0
DA:41,0
DA:42,0
DA:43,0
DA:44,0
DA:45,0
DA:46,0
DA:47,0
DA:48,0
DA:49,0
DA:50,0
DA:51,0
DA:52,0
DA:59,781
DA:60,781
DA:61,781
DA:63,759
DA:64,759
DA:65,759
DA:67,13
DA:68,13
DA:69,13
DA:73,1
DA:74,1
DA:75,1
DA:79,0
DA:80,0
DA:81,0
DA:95,1
DA:96,1
DA:97,1
DA:100,0
DA:101,0
DA:102,0
DA:109,1
DA:110,1
DA:111,1
DA:113,1
DA:114,1
DA:115,1
DA:117,0
DA:118,0
DA:119,0
DA:123,0
DA:124,0
DA:125,0
DA:129,0
DA:130,0
DA:131,0
DA:145,1
DA:146,1
DA:147,1
DA:154,1
DA:155,1
DA:156,1
DA:158,1
DA:159,1
DA:160,1
DA:162,0
DA:163,0
DA:164,0
DA:168,0
DA:169,0
DA:170,0
DA:186,0
DA:187,0
DA:188,0
DA:189,0
DA:190,0
DA:194,0
DA:195,0
DA:196,0
DA:197,0
DA:198,0
DA:199,0
DA:200,0
DA:201,0
DA:202,0
DA:203,0
DA:204,0
DA:205,0
DA:206,0
DA:207,0
DA:208,0
DA:209,0
DA:210,0
DA:217,1
DA:218,1
DA:219,1
DA:220,1
DA:221,1
DA:224,1
DA:225,1
DA:226,1
DA:227,1
DA:228,1
DA:231,1
DA:232,1
DA:233,1
DA:234,1
DA:235,1
DA:238,1
DA:239,1
DA:240,1
DA:241,1
DA:242,1
DA:246,1
DA:249,1
DA:250,1
DA:251,1
DA:252,1
DA:253,1
DA:254,1
DA:255,1
BRF:0
BRH:0
LF:119
LH:61
end_of_record
SF:/home/tasuku/com/github/signal-slot/embedded-charts/src/data/ring_buffer.rs
FN:473,_RNvNtNtNtCs1I4G5KWFz5n_15embedded_charts4data11ring_buffer5testss_22test_ring_buffer_basic
FN:494,_RNvNtNtNtCs1I4G5KWFz5n_15embedded_charts4data11ring_buffer5testss_25test_ring_buffer_overflow
FN:517,_RNvNtNtNtCs1I4G5KWFz5n_15embedded_charts4data11ring_buffer5testss_28test_ring_buffer_reject_mode
FN:535,_RNvNtNtNtCs1I4G5KWFz5n_15embedded_charts4data11ring_buffer5testss_31test_point_ring_buffer_features
FN:323,_RINvMs_NtNtCs1I4G5KWFz5n_15embedded_charts4data11ring_bufferINtB5_10RingBufferpKpE4findpEB9_
FN:193,_RINvMs_NtNtCs1I4G5KWFz5n_15embedded_charts4data11ring_bufferINtB5_10RingBufferpKpE6extendpEB9_
FN:313,_RINvMs_NtNtCs1I4G5KWFz5n_15embedded_charts4data11ring_bufferINtB5_10RingBufferpKpE8for_eachpEB9_
FN:327,_RNCINvMs_NtNtCs1I4G5KWFz5n_15embedded_charts4data11ring_bufferINtB7_10RingBufferpKpE4findpE0Bb_
FN:294,_RNCNvMs_NtNtCs1I4G5KWFz5n_15embedded_charts4data11ring_bufferINtB6_10RingBufferpKpE6bounds0Ba_
FN:381,_RNvMs1_NtNtCs1I4G5KWFz5n_15embedded_charts4data11ring_bufferINtB5_10RingBufferNtNtB7_5point7Point2DKpE10push_pointB9_
FN:351,_RNvMs1_NtNtCs1I4G5KWFz5n_15embedded_charts4data11ring_bufferINtB5_10RingBufferNtNtB7_5point7Point2DKpE23update_bounds_for_pointB9_
FN:308,_RNvMs_NtNtCs1I4G5KWFz5n_15embedded_charts4data11ring_bufferINtB4_10RingBufferpKpE11reset_statsB8_
FN:139,_RNvMs_NtNtCs1I4G5KWFz5n_15embedded_charts4data11ring_bufferINtB4_10RingBufferpKpE17set_event_handlerB8_
FN:244,_RNvMs_NtNtCs1I4G5KWFz5n_15embedded_charts4data11ring_bufferINtB4_10RingBufferpKpE18iter_chronologicalB8_
FN:288,_RNvMs_NtNtCs1I4G5KWFz5n_15embedded_charts4data11ring_bufferINtB4_10RingBufferpKpE18remaining_capacityB8_
FN:209,_RNvMs_NtNtCs1I4G5KWFz5n_15embedded_charts4data11ring_bufferINtB4_10RingBufferpKpE3popB8_
FN:259,_RNvMs_NtNtCs1I4G5KWFz5n_15embedded_charts4data11ring_bufferINtB4_10RingBufferpKpE5clearB8_
FN:303,_RNvMs_NtNtCs1I4G5KWFz5n_15embedded_charts4data11ring_bufferINtB4_10RingBufferpKpE5statsB8_
FN:293,_RNvMs_NtNtCs1I4G5KWFz5n_15embedded_charts4data11ring_bufferINtB4_10RingBufferpKpE6boundsB8_
FN:341,_RNvXININtNtCs1I4G5KWFz5n_15embedded_charts4data11ring_buffers0_0pKpEINtB5_10RingBufferpKpENtNtCs3XRySYX51hI_4core7default7Default7defaultB9_
FN:449,_RNvXININtNtCs1I4G5KWFz5n_15embedded_charts4data11ring_buffers2_0pKpEINtB5_17ChronologicalIterpKpENtNtNtNtCs3XRySYX51hI_4core4iter6traits8iterator8Iterator4nextB9_
FN:92,_RNvXNtNtCs1I4G5KWFz5n_15embedded_charts4data11ring_bufferNtB2_16RingBufferConfigNtNtCs3XRySYX51hI_4core7default7Default7default
FN:168,_RNCNvMs_NtNtCs1I4G5KWFz5n_15embedded_charts4data11ring_bufferINtB6_10RingBufferNtNtB8_5point7Point2DKj2_E4push0Ba_
FN:168,_RNCNvMs_NtNtCs1I4G5KWFz5n_15embedded_charts4data11ring_bufferINtB6_10RingBufferNtNtB8_5point7Point2DKj3_E4push0Ba_
FN:168,_RNCNvMs_NtNtCs1I4G5KWFz5n_15embedded_charts4data11ring_bufferINtB6_10RingBufferNtNtB8_5point7Point2DKj5_E4push0Ba_
FN:168,_RNCNvMs_NtNtCs1I4G5KWFz5n_15embedded_charts4data11ring_bufferINtB6_10RingBufferNtNtB8_5point7Point2DKja_E4push0Ba_
FN:414,_RNvMs1_NtNtCs1I4G5KWFz5n_15embedded_charts4data11ring_bufferINtB5_10RingBufferNtNtB7_5point7Point2DKja_E10downsampleB9_
FN:390,_RNvMs1_NtNtCs1I4G5KWFz5n_15embedded_charts4data11ring_bufferINtB5_10RingBufferNtNtB7_5point7Point2DKja_E14moving_averageB9_
FN:427,_RNvMs1_NtNtCs1I4G5KWFz5n_15embedded_charts4data11ring_bufferINtB5_10RingBufferNtNtB7_5point7Point2DKja_E14rate_of_changeB9_
FN:109,_RNvMs_NtNtCs1I4G5KWFz5n_15embedded_charts4data11ring_bufferINtB4_10RingBufferNtNtB6_5point7Point2DKj2_E11with_configB8_
FN:133,_RNvMs_NtNtCs1I4G5KWFz5n_15embedded_charts4data11ring_bufferINtB4_10RingBufferNtNtB6_5point7Point2DKj2_E13default_valueB8_
FN:331,_RNvMs_NtNtCs1I4G5KWFz5n_15embedded_charts4data11ring_bufferINtB4_10RingBufferNtNtB6_5point7Point2DKj2_E13trigger_eventB8_
FN:268,_RNvMs_NtNtCs1I4G5KWFz5n_15embedded_charts4data11ring_bufferINtB4_10RingBufferNtNtB6_5point7Point2DKj2_E3lenB8_
FN:144,_RNvMs_NtNtCs1I4G5KWFz5n_15embedded_charts4data11ring_bufferINtB4_10RingBufferNtNtB6_5point7Point2DKj2_E4pushB8_
FN:278,_RNvMs_NtNtCs1I4G5KWFz5n_15embedded_charts4data11ring_bufferINtB4_10RingBufferNtNtB6_5point7Point2DKj2_E7is_fullB8_
FN:273,_RNvMs_NtNtCs1I4G5KWFz5n_15embedded_charts4data11ring_bufferINtB4_10RingBufferNtNtB6_5point7Point2DKj2_E8is_emptyB8_
FN:109,_RNvMs_NtNtCs1I4G5KWFz5n_15embedded_charts4data11ring_bufferINtB4_10RingBufferNtNtB6_5point7Point2DKj3_E11with_configB8_
FN:133,_RNvMs_NtNtCs1I4G5KWFz5n_15embedded_charts4data11ring_bufferINtB4_10RingBufferNtNtB6_5point7Point2DKj3_E13default_valueB8_
FN:331,_RNvMs_NtNtCs1I4G5KWFz5n_15embedded_charts4data11ring_bufferINtB4_10RingBufferNtNtB6_5point7Point2DKj3_E13trigger_eventB8_
FN:268,_RNvMs_NtNtCs1I4G5KWFz5n_15embedded_charts4data11ring_bufferINtB4_10RingBufferNtNtB6_5point7Point2DKj3_E3lenB8_
FN:238,_RNvMs_NtNtCs1I4G5KWFz5n_15embedded_charts4data11ring_bufferINtB4_10RingBufferNtNtB6_5point7Point2DKj3_E4iterB8_
FN:144,_RNvMs_NtNtCs1I4G5KWFz5n_15embedded_charts4data11ring_bufferINtB4_10RingBufferNtNtB6_5point7Point2DKj3_E4pushB8_
FN:278,_RNvMs_NtNtCs1I4G5KWFz5n_15embedded_charts4data11ring_bufferINtB4_10RingBufferNtNtB6_5point7Point2DKj3_E7is_fullB8_
FN:273,_RNvMs_NtNtCs1I4G5KWFz5n_15embedded_charts4data11ring_bufferINtB4_10RingBufferNtNtB6_5point7Point2DKj3_E8is_emptyB8_
FN:233,_RNvMs_NtNtCs1I4G5KWFz5n_15embedded_charts4data11ring_bufferINtB4_10RingBufferNtNtB6_5point7Point2DKj5_E11peek_newestB8_
FN:109,_RNvMs_NtNtCs1I4G5KWFz5n_15embedded_charts4data11ring_bufferINtB4_10RingBufferNtNtB6_5point7Point2DKj5_E11with_configB8_
FN:133,_RNvMs_NtNtCs1I4G5KWFz5n_15embedded_charts4data11ring_bufferINtB4_10RingBufferNtNtB6_5point7Point2DKj5_E13default_valueB8_
FN:331,_RNvMs_NtNtCs1I4G5KWFz5n_15embedded_charts4data11ring_bufferINtB4_10RingBufferNtNtB6_5point7Point2DKj5_E13trigger_eventB8_
FN:268,_RNvMs_NtNtCs1I4G5KWFz5n_15embedded_charts4data11ring_bufferINtB4_10RingBufferNtNtB6_5point7Point2DKj5_E3lenB8_
FN:104,_RNvMs_NtNtCs1I4G5KWFz5n_15embedded_charts4data11ring_bufferINtB4_10RingBufferNtNtB6_5point7Point2DKj5_E3newB8_
FN:228,_RNvMs_NtNtCs1I4G5KWFz5n_15embedded_charts4data11ring_bufferINtB4_10RingBufferNtNtB6_5point7Point2DKj5_E4peekB8_
FN:144,_RNvMs_NtNtCs1I4G5KWFz5n_15embedded_charts4data11ring_bufferINtB4_10RingBufferNtNtB6_5point7Point2DKj5_E4pushB8_
FN:278,_RNvMs_NtNtCs1I4G5KWFz5n_15embedded_charts4data11ring_bufferINtB4_10RingBufferNtNtB6_5point7Point2DKj5_E7is_fullB8_
FN:283,_RNvMs_NtNtCs1I4G5KWFz5n_15embedded_charts4data11ring_bufferINtB4_10RingBufferNtNtB6_5point7Point2DKj5_E8capacityB8_
FN:273,_RNvMs_NtNtCs1I4G5KWFz5n_15embedded_charts4data11ring_bufferINtB4_10RingBufferNtNtB6_5point7Point2DKj5_E8is_emptyB8_
FN:233,_RNvMs_NtNtCs1I4G5KWFz5n_15embedded_charts4data11ring_bufferINtB4_10RingBufferNtNtB6_5point7Point2DKja_E11peek_newestB8_
FN:109,_RNvMs_NtNtCs1I4G5KWFz5n_15embedded_charts4data11ring_bufferINtB4_10RingBufferNtNtB6_5point7Point2DKja_E11with_configB8_
FN:133,_RNvMs_NtNtCs1I4G5KWFz5n_15embedded_charts4data11ring_bufferINtB4_10RingBufferNtNtB6_5point7Point2DKja_E13default_valueB8_
FN:331,_RNvMs_NtNtCs1I4G5KWFz5n_15embedded_charts4data11ring_bufferINtB4_10RingBufferNtNtB6_5point7Point2DKja_E13trigger_eventB8_
FN:268,_RNvMs_NtNtCs1I4G5KWFz5n_15embedded_charts4data11ring_bufferINtB4_10RingBufferNtNtB6_5point7Point2DKja_E3lenB8_
FN:104,_RNvMs_NtNtCs1I4G5KWFz5n_15embedded_charts4data11ring_bufferINtB4_10RingBufferNtNtB6_5point7Point2DKja_E3newB8_
FN:238,_RNvMs_NtNtCs1I4G5KWFz5n_15embedded_charts4data11ring_bufferINtB4_10RingBufferNtNtB6_5point7Point2DKja_E4iterB8_
FN:228,_RNvMs_NtNtCs1I4G5KWFz5n_15embedded_charts4data11ring_bufferINtB4_10RingBufferNtNtB6_5point7Point2DKja_E4peekB8_
FN:144,_RNvMs_NtNtCs1I4G5KWFz5n_15embedded_charts4data11ring_bufferINtB4_10RingBufferNtNtB6_5point7Point2DKja_E4pushB8_
FN:252,_RNvMs_NtNtCs1I4G5KWFz5n_15embedded_charts4data11ring_bufferINtB4_10RingBufferNtNtB6_5point7Point2DKja_E6recentB8_
FN:278,_RNvMs_NtNtCs1I4G5KWFz5n_15embedded_charts4data11ring_bufferINtB4_10RingBufferNtNtB6_5point7Point2DKja_E7is_fullB8_
FN:273,_RNvMs_NtNtCs1I4G5KWFz5n_15embedded_charts4data11ring_bufferINtB4_10RingBufferNtNtB6_5point7Point2DKja_E8is_emptyB8_
FNDA:1,_RNvNtNtNtCs1I4G5KWFz5n_15embedded_charts4data11ring_buffer5testss_22test_ring_buffer_basic
FNDA:1,_RNvNtNtNtCs1I4G5KWFz5n_15embedded_charts4data11ring_buffer5testss_25test_ring_buffer_overflow
FNDA:1,_RNvNtNtNtCs1I4G5KWFz5n_15embedded_charts4data11ring_buffer5testss_28test_ring_buffer_reject_mode
FNDA:1,_RNvNtNtNtCs1I4G5KWFz5n_15embedded_charts4data11ring_buffer5testss_31test_point_ring_buffer_features
FNDA:0,_RINvMs_NtNtCs1I4G5KWFz5n_15embedded_charts4data11ring_bufferINtB5_10RingBufferpKpE4findpEB9_
FNDA:0,_RINvMs_NtNtCs1I4G5KWFz5n_15embedded_charts4data11ring_bufferINtB5_10RingBufferpKpE6extendpEB9_
FNDA:0,_RINvMs_NtNtCs1I4G5KWFz5n_15embedded_charts4data11ring_bufferINtB5_10RingBufferpKpE8for_eachpEB9_
FNDA:0,_RNCINvMs_NtNtCs1I4G5KWFz5n_15embedded_charts4data11ring_bufferINtB7_10RingBufferpKpE4findpE0Bb_
FNDA:0,_RNCNvMs_NtNtCs1I4G5KWFz5n_15embedded_charts4data11ring_bufferINtB6_10RingBufferpKpE6bounds0Ba_
FNDA:0,_RNvMs1_NtNtCs1I4G5KWFz5n_15embedded_charts4data11ring_bufferINtB5_10RingBufferNtNtB7_5point7Point2DKpE10push_pointB9_
FNDA:0,_RNvMs1_NtNtCs1I4G5KWFz5n_15embedded_charts4data11ring_bufferINtB5_10RingBufferNtNtB7_5point7Point2DKpE23update_bounds_for_pointB9_
FNDA:0,_RNvMs_NtNtCs1I4G5KWFz5n_15embedded_charts4data11ring_bufferINtB4_10RingBufferpKpE11reset_statsB8_
FNDA:0,_RNvMs_NtNtCs1I4G5KWFz5n_15embedded_charts4data11ring_bufferINtB4_10RingBufferpKpE17set_event_handlerB8_
FNDA:0,_RNvMs_NtNtCs1I4G5KWFz5n_15embedded_charts4data11ring_bufferINtB4_10RingBufferpKpE18iter_chronologicalB8_
FNDA:0,_RNvMs_NtNtCs1I4G5KWFz5n_15embedded_charts4data11ring_bufferINtB4_10RingBufferpKpE18remaining_capacityB8_
FNDA:0,_RNvMs_NtNtCs1I4G5KWFz5n_15embedded_charts4data11ring_bufferINtB4_10RingBufferpKpE3popB8_
FNDA:0,_RNvMs_NtNtCs1I4G5KWFz5n_15embedded_charts4data11ring_bufferINtB4_10RingBufferpKpE5clearB8_
FNDA:0,_RNvMs_NtNtCs1I4G5KWFz5n_15embedded_charts4data11ring_bufferINtB4_10RingBufferpKpE5statsB8_
FNDA:0,_RNvMs_NtNtCs1I4G5KWFz5n_15embedded_charts4data11ring_bufferINtB4_10RingBufferpKpE6boundsB8_
FNDA:0,_RNvXININtNtCs1I4G5KWFz5n_15embedded_charts4data11ring_buffers0_0pKpEINtB5_10RingBufferpKpENtNtCs3XRySYX51hI_4core7default7Default7defaultB9_
FNDA:0,_RNvXININtNtCs1I4G5KWFz5n_15embedded_charts4data11ring_buffers2_0pKpEINtB5_17ChronologicalIterpKpENtNtNtNtCs3XRySYX51hI_4core4iter6traits8iterator8Iterator4nextB9_
FNDA:4,_RNvXNtNtCs1I4G5KWFz5n_15embedded_charts4data11ring_bufferNtB2_16RingBufferConfigNtNtCs3XRySYX51hI_4core7default7Default7default
FNDA:0,_RNCNvMs_NtNtCs1I4G5KWFz5n_15embedded_charts4data11ring_bufferINtB6_10RingBufferNtNtB8_5point7Point2DKj2_E4push0Ba_
FNDA:0,_RNCNvMs_NtNtCs1I4G5KWFz5n_15embedded_charts4data11ring_bufferINtB6_10RingBufferNtNtB8_5point7Point2DKj3_E4push0Ba_
FNDA:0,_RNCNvMs_NtNtCs1I4G5KWFz5n_15embedded_charts4data11ring_bufferINtB6_10RingBufferNtNtB8_5point7Point2DKj5_E4push0Ba_
FNDA:0,_RNCNvMs_NtNtCs1I4G5KWFz5n_15embedded_charts4data11ring_bufferINtB6_10RingBufferNtNtB8_5point7Point2DKja_E4push0Ba_
FNDA:1,_RNvMs1_NtNtCs1I4G5KWFz5n_15embedded_charts4data11ring_bufferINtB5_10RingBufferNtNtB7_5point7Point2DKja_E10downsampleB9_
FNDA:1,_RNvMs1_NtNtCs1I4G5KWFz5n_15embedded_charts4data11ring_bufferINtB5_10RingBufferNtNtB7_5point7Point2DKja_E14moving_averageB9_
FNDA:1,_RNvMs1_NtNtCs1I4G5KWFz5n_15embedded_charts4data11ring_bufferINtB5_10RingBufferNtNtB7_5point7Point2DKja_E14rate_of_changeB9_
FNDA:1,_RNvMs_NtNtCs1I4G5KWFz5n_15embedded_charts4data11ring_bufferINtB4_10RingBufferNtNtB6_5point7Point2DKj2_E11with_configB8_
FNDA:0,_RNvMs_NtNtCs1I4G5KWFz5n_15embedded_charts4data11ring_bufferINtB4_10RingBufferNtNtB6_5point7Point2DKj2_E13default_valueB8_
FNDA:2,_RNvMs_NtNtCs1I4G5KWFz5n_15embedded_charts4data11ring_bufferINtB4_10RingBufferNtNtB6_5point7Point2DKj2_E13trigger_eventB8_
FNDA:1,_RNvMs_NtNtCs1I4G5KWFz5n_15embedded_charts4data11ring_bufferINtB4_10RingBufferNtNtB6_5point7Point2DKj2_E3lenB8_
FNDA:3,_RNvMs_NtNtCs1I4G5KWFz5n_15embedded_charts4data11ring_bufferINtB4_10RingBufferNtNtB6_5point7Point2DKj2_E4pushB8_
FNDA:5,_RNvMs_NtNtCs1I4G5KWFz5n_15embedded_charts4data11ring_bufferINtB4_10RingBufferNtNtB6_5point7Point2DKj2_E7is_fullB8_
FNDA:2,_RNvMs_NtNtCs1I4G5KWFz5n_15embedded_charts4data11ring_bufferINtB4_10RingBufferNtNtB6_5point7Point2DKj2_E8is_emptyB8_
FNDA:1,_RNvMs_NtNtCs1I4G5KWFz5n_15embedded_charts4data11ring_bufferINtB4_10RingBufferNtNtB6_5point7Point2DKj3_E11with_configB8_
FNDA:0,_RNvMs_NtNtCs1I4G5KWFz5n_15embedded_charts4data11ring_bufferINtB4_10RingBufferNtNtB6_5point7Point2DKj3_E13default_valueB8_
FNDA:4,_RNvMs_NtNtCs1I4G5KWFz5n_15embedded_charts4data11ring_bufferINtB4_10RingBufferNtNtB6_5point7Point2DKj3_E13trigger_eventB8_
FNDA:1,_RNvMs_NtNtCs1I4G5KWFz5n_15embedded_charts4data11ring_bufferINtB4_10RingBufferNtNtB6_5point7Point2DKj3_E3lenB8_
FNDA:1,_RNvMs_NtNtCs1I4G5KWFz5n_15embedded_charts4data11ring_bufferINtB4_10RingBufferNtNtB6_5point7Point2DKj3_E4iterB8_
FNDA:5,_RNvMs_NtNtCs1I4G5KWFz5n_15embedded_charts4data11ring_bufferINtB4_10RingBufferNtNtB6_5point7Point2DKj3_E4pushB8_
FNDA:11,_RNvMs_NtNtCs1I4G5KWFz5n_15embedded_charts4data11ring_bufferINtB4_10RingBufferNtNtB6_5point7Point2DKj3_E7is_fullB8_
FNDA:5,_RNvMs_NtNtCs1I4G5KWFz5n_15embedded_charts4data11ring_bufferINtB4_10RingBufferNtNtB6_5point7Point2DKj3_E8is_emptyB8_
FNDA:1,_RNvMs_NtNtCs1I4G5KWFz5n_15embedded_charts4data11ring_bufferINtB4_10RingBufferNtNtB6_5point7Point2DKj5_E11peek_newestB8_
FNDA:1,_RNvMs_NtNtCs1I4G5KWFz5n_15embedded_charts4data11ring_bufferINtB4_10RingBufferNtNtB6_5point7Point2DKj5_E11with_configB8_
FNDA:0,_RNvMs_NtNtCs1I4G5KWFz5n_15embedded_charts4data11ring_bufferINtB4_10RingBufferNtNtB6_5point7Point2DKj5_E13default_valueB8_
FNDA:1,_RNvMs_NtNtCs1I4G5KWFz5n_15embedded_charts4data11ring_bufferINtB4_10RingBufferNtNtB6_5point7Point2DKj5_E13trigger_eventB8_
FNDA:2,_RNvMs_NtNtCs1I4G5KWFz5n_15embedded_charts4data11ring_bufferINtB4_10RingBufferNtNtB6_5point7Point2DKj5_E3lenB8_
FNDA:1,_RNvMs_NtNtCs1I4G5KWFz5n_15embedded_charts4data11ring_bufferINtB4_10RingBufferNtNtB6_5point7Point2DKj5_E3newB8_
FNDA:1,_RNvMs_NtNtCs1I4G5KWFz5n_15embedded_charts4data11ring_bufferINtB4_10RingBufferNtNtB6_5point7Point2DKj5_E4peekB8_
FNDA:2,_RNvMs_NtNtCs1I4G5KWFz5n_15embedded_charts4data11ring_bufferINtB4_10RingBufferNtNtB6_5point7Point2DKj5_E4pushB8_
FNDA:5,_RNvMs_NtNtCs1I4G5KWFz5n_15embedded_charts4data11ring_bufferINtB4_10RingBufferNtNtB6_5point7Point2DKj5_E7is_fullB8_
FNDA:1,_RNvMs_NtNtCs1I4G5KWFz5n_15embedded_charts4data11ring_bufferINtB4_10RingBufferNtNtB6_5point7Point2DKj5_E8capacityB8_
FNDA:4,_RNvMs_NtNtCs1I4G5KWFz5n_15embedded_charts4data11ring_bufferINtB4_10RingBufferNtNtB6_5point7Point2DKj5_E8is_emptyB8_
FNDA:1,_RNvMs_NtNtCs1I4G5KWFz5n_15embedded_charts4data11ring_bufferINtB4_10RingBufferNtNtB6_5point7Point2DKja_E11peek_newestB8_
FNDA:1,_RNvMs_NtNtCs1I4G5KWFz5n_15embedded_charts4data11ring_bufferINtB4_10RingBufferNtNtB6_5point7Point2DKja_E11with_configB8_
FNDA:0,_RNvMs_NtNtCs1I4G5KWFz5n_15embedded_charts4data11ring_bufferINtB4_10RingBufferNtNtB6_5point7Point2DKja_E13default_valueB8_
FNDA:1,_RNvMs_NtNtCs1I4G5KWFz5n_15embedded_charts4data11ring_bufferINtB4_10RingBufferNtNtB6_5point7Point2DKja_E13trigger_eventB8_
FNDA:1,_RNvMs_NtNtCs1I4G5KWFz5n_15embedded_charts4data11ring_bufferINtB4_10RingBufferNtNtB6_5point7Point2DKja_E3lenB8_
FNDA:1,_RNvMs_NtNtCs1I4G5KWFz5n_15embedded_charts4data11ring_bufferINtB4_10RingBufferNtNtB6_5point7Point2DKja_E3newB8_
FNDA:1,_RNvMs_NtNtCs1I4G5KWFz5n_15embedded_charts4data11ring_bufferINtB4_10RingBufferNtNtB6_5point7Point2DKja_E4iterB8_
FNDA:1,_RNvMs_NtNtCs1I4G5KWFz5n_15embedded_charts4data11ring_bufferINtB4_10RingBufferNtNtB6_5point7Point2DKja_E4peekB8_
FNDA:5,_RNvMs_NtNtCs1I4G5KWFz5n_15embedded_charts4data11ring_bufferINtB4_10RingBufferNtNtB6_5point7Point2DKja_E4pushB8_
FNDA:1,_RNvMs_NtNtCs1I4G5KWFz5n_15embedded_charts4data11ring_bufferINtB4_10RingBufferNtNtB6_5point7Point2DKja_E6recentB8_
FNDA:10,_RNvMs_NtNtCs1I4G5KWFz5n_15embedded_charts4data11ring_bufferINtB4_10RingBufferNtNtB6_5point7Point2DKja_E7is_fullB8_
FNDA:5,_RNvMs_NtNtCs1I4G5KWFz5n_15embedded_charts4data11ring_bufferINtB4_10RingBufferNtNtB6_5point7Point2DKja_E8is_emptyB8_
FNF:39
FNH:20
DA:92,4
DA:93,4
DA:94,4
DA:95,4
DA:96,4
DA:97,4
DA:98,4
DA:99,4
DA:104,2
DA:105,2
DA:106,2
DA:109,4
DA:110,4
DA:111,4
DA:112,4
DA:114,0
DA:115,0
DA:116,0
DA:117,0
DA:119,0
DA:120,4
DA:122,4
DA:123,4
DA:124,4
DA:125,4
DA:126,4
DA:127,4
DA:128,4
DA:129,4
DA:130,4
DA:133,0
DA:134,0
DA:135,0
DA:136,0
DA:139,0
DA:140,0
DA:141,0
DA:144,15
DA:145,15
DA:146,15
DA:147,15
DA:148,3
DA:150,1
DA:152,0
DA:153,0
DA:154,0
DA:155,2
DA:156,2
DA:157,2
DA:159,12
DA:162,14
DA:163,14
DA:164,14
DA:166,12
DA:167,12
DA:168,12
DA:169,2
DA:170,2
DA:171,2
DA:172,2
DA:173,2
DA:174,2
DA:177,14
DA:178,12
DA:179,12
DA:182,14
DA:183,4
DA:184,10
DA:185,14
DA:186,4
DA:187,10
DA:189,14
DA:190,15
DA:193,0
DA:194,0
DA:195,0
DA:196,0
DA:197,0
DA:198,0
DA:199,0
DA:200,0
DA:201,0
DA:202,0
DA:205,0
DA:206,0
DA:209,0
DA:210,0
DA:211,0
DA:212,0
DA:213,0
DA:214,0
DA:215,0
DA:216,0
DA:217,0
DA:218,0
DA:219,0
DA:220,0
DA:221,0
DA:222,0
DA:224,0
DA:225,0
DA:228,2
DA:229,2
DA:230,2
DA:233,2
DA:234,2
DA:235,2
DA:238,2
DA:239,2
DA:240,2
DA:244,0
DA:245,0
DA:246,0
DA:247,0
DA:248,0
DA:249,0
DA:252,1
DA:253,1
DA:254,1
DA:255,1
DA:256,1
DA:259,0
DA:260,0
DA:261,0
DA:262,0
DA:263,0
DA:264,0
DA:265,0
DA:268,5
DA:269,5
DA:270,5
DA:273,16
DA:274,16
DA:275,16
DA:278,31
DA:279,31
DA:280,31
DA:283,1
DA:284,1
DA:285,1
DA:288,0
DA:289,0
DA:290,0
DA:293,0
DA:294,0
DA:295,0
DA:296,0
DA:297,0
DA:298,0
DA:299,0
DA:300,0
DA:303,0
DA:304,0
DA:305,0
DA:308,0
DA:309,0
DA:310,0
DA:313,0
DA:314,0
DA:315,0
DA:316,0
DA:317,0
DA:318,0
DA:319,0
DA:320,0
DA:323,0
DA:324,0
DA:325,0
DA:326,0
DA:327,0
DA:328,0
DA:331,8
DA:332,8
DA:333,0
DA:334,0
DA:335,0
DA:336,8
DA:337,8
DA:341,0
DA:342,0
DA:343,0
DA:351,0
DA:352,0
DA:353,0
DA:354,0
DA:355,0
DA:356,0
DA:357,0
DA:359,0
DA:360,0
DA:361,0
DA:362,0
DA:363,0
DA:364,0
DA:365,0
DA:366,0
DA:368,0
DA:369,0
DA:370,0
DA:371,0
DA:372,0
DA:373,0
DA:374,0
DA:375,0
DA:376,0
DA:378,0
DA:381,0
DA:382,0
DA:383,0
DA:384,0
DA:385,0
DA:386,0
DA:387,0
DA:390,1
DA:391,1
DA:392,1
DA:393,0
DA:394,1
DA:395,1
DA:396,1
DA:397,1
DA:398,1
DA:400,3
DA:401,3
DA:402,3
DA:403,3
DA:404,3
DA:406,1
DA:407,1
DA:409,0
DA:411,1
DA:414,1
DA:415,1
DA:417,5
DA:418,5
DA:419,3
DA:420,3
DA:423,1
DA:424,1
DA:427,1
DA:428,1
DA:429,1
DA:431,1
DA:432,1
DA:433,0
DA:435,1
DA:437,1
DA:449,0
DA:450,0
DA:451,0
DA:452,0
DA:454,0
DA:456,0
DA:459,0
DA:460,0
DA:463,0
DA:464,0
DA:465,0
DA:473,1
DA:474,1
DA:475,1
DA:476,1
DA:477,1
DA:478,1
DA:481,1
DA:482,1
DA:483,1
DA:484,1
DA:485,1
DA:486,1
DA:489,1
DA:490,1
DA:491,1
DA:494,1
DA:495,1
DA:496,1
DA:497,1
DA:498,1
DA:499,1
DA:502,6
DA:503,5
DA:504,5
DA:506,1
DA:507,1
DA:510,1
DA:511,1
DA:514,1
DA:517,1
DA:518,1
DA:519,1
DA:520,1
DA:521,1
DA:522,1
DA:523,1
DA:524,1
DA:525,1
DA:526,1
DA:527,1
DA:528,1
DA:529,1
DA:530,1
DA:531,1
DA:532,1
DA:535,1
DA:536,1
DA:539,6
DA:540,5
DA:541,5
DA:544,1
DA:545,1
DA:546,1
DA:549,1
DA:550,1
DA:553,1
DA:554,1
DA:555,1
BRF:0
BRH:0
LF:319
LH:176
end_of_record
SF:/home/tasuku/com/github/signal-slot/embedded-charts/src/data/series.rs
FN:141,_RINvMs2_NtNtCs1I4G5KWFz5n_15embedded_charts4data6seriesINtB6_16StaticDataSeriespKpE6extendpEBa_
FN:608,_RNCNvMs9_NtNtCs1I4G5KWFz5n_15embedded_charts4data6seriesINtB7_19SlidingWindowSeriespKpE5label0Bb_
FN:221,_RNvMs2_NtNtCs1I4G5KWFz5n_15embedded_charts4data6seriesINtB5_16StaticDataSeriespKpE15merge_sort_by_xB9_
FN:326,_RNvMs2_NtNtCs1I4G5KWFz5n_15embedded_charts4data6seriesINtB5_16StaticDataSeriespKpE15merge_sort_by_yB9_
FN:174,_RNvMs2_NtNtCs1I4G5KWFz5n_15embedded_charts4data6seriesINtB5_16StaticDataSeriespKpE18remaining_capacityB9_
FN:203,_RNvMs2_NtNtCs1I4G5KWFz5n_15embedded_charts4data6seriesINtB5_16StaticDataSeriespKpE19insertion_sort_by_xB9_
FN:308,_RNvMs2_NtNtCs1I4G5KWFz5n_15embedded_charts4data6seriesINtB5_16StaticDataSeriespKpE19insertion_sort_by_yB9_
FN:245,_RNvMs2_NtNtCs1I4G5KWFz5n_15embedded_charts4data6seriesINtB5_16StaticDataSeriespKpE20merge_sort_recursiveB9_
FN:350,_RNvMs2_NtNtCs1I4G5KWFz5n_15embedded_charts4data6seriesINtB5_16StaticDataSeriespKpE25merge_sort_by_y_recursiveB9_
FN:164,_RNvMs2_NtNtCs1I4G5KWFz5n_15embedded_charts4data6seriesINtB5_16StaticDataSeriespKpE5clearB9_
FN:179,_RNvMs2_NtNtCs1I4G5KWFz5n_15embedded_charts4data6seriesINtB5_16StaticDataSeriespKpE7is_fullB9_
FN:189,_RNvMs2_NtNtCs1I4G5KWFz5n_15embedded_charts4data6seriesINtB5_16StaticDataSeriespKpE9sort_by_xB9_
FN:294,_RNvMs2_NtNtCs1I4G5KWFz5n_15embedded_charts4data6seriesINtB5_16StaticDataSeriespKpE9sort_by_yB9_
FN:425,_RNvMs4_NtNtCs1I4G5KWFz5n_15embedded_charts4data6seriesINtB5_16StaticDataSeriespKpE4dataB9_
FN:417,_RNvMs4_NtNtCs1I4G5KWFz5n_15embedded_charts4data6seriesINtB5_16StaticDataSeriespKpE8iter_refB9_
FN:517,_RNvMs7_NtNtCs1I4G5KWFz5n_15embedded_charts4data6seriesINtB5_11MultiSeriespKpKpE11iter_seriesB9_
FN:502,_RNvMs7_NtNtCs1I4G5KWFz5n_15embedded_charts4data6seriesINtB5_11MultiSeriespKpKpE14get_series_mutB9_
FN:522,_RNvMs7_NtNtCs1I4G5KWFz5n_15embedded_charts4data6seriesINtB5_11MultiSeriespKpKpE15combined_boundsB9_
FN:547,_RNvMs7_NtNtCs1I4G5KWFz5n_15embedded_charts4data6seriesINtB5_11MultiSeriespKpKpE5clearB9_
FN:512,_RNvMs7_NtNtCs1I4G5KWFz5n_15embedded_charts4data6seriesINtB5_11MultiSeriespKpKpE8is_emptyB9_
FN:592,_RNvMs9_NtNtCs1I4G5KWFz5n_15embedded_charts4data6seriesINtB5_19SlidingWindowSeriespKpE10with_labelB9_
FN:642,_RNvMs9_NtNtCs1I4G5KWFz5n_15embedded_charts4data6seriesINtB5_19SlidingWindowSeriespKpE5clearB9_
FN:607,_RNvMs9_NtNtCs1I4G5KWFz5n_15embedded_charts4data6seriesINtB5_19SlidingWindowSeriespKpE5labelB9_
FN:637,_RNvMs9_NtNtCs1I4G5KWFz5n_15embedded_charts4data6seriesINtB5_19SlidingWindowSeriespKpE8capacityB9_
FN:599,_RNvMs9_NtNtCs1I4G5KWFz5n_15embedded_charts4data6seriesINtB5_19SlidingWindowSeriespKpE9set_labelB9_
FN:27,_RNvXININtNtCs1I4G5KWFz5n_15embedded_charts4data6series0pKpEINtB5_20StaticDataSeriesIterpKpENtNtNtNtCs3XRySYX51hI_4core4iter6traits8iterator8Iterator9size_hintB9_
FN:44,_RNvXININtNtCs1I4G5KWFz5n_15embedded_charts4data6seriess0_0pEINtB5_23StaticDataSeriesRefIterpENtNtNtNtCs3XRySYX51hI_4core4iter6traits8iterator8Iterator4nextB9_
FN:54,_RNvXININtNtCs1I4G5KWFz5n_15embedded_charts4data6seriess0_0pEINtB5_23StaticDataSeriesRefIterpENtNtNtNtCs3XRySYX51hI_4core4iter6traits8iterator8Iterator9size_hintB9_
FN:407,_RNvXININtNtCs1I4G5KWFz5n_15embedded_charts4data6seriess3_0pKpEINtB5_16StaticDataSeriespKpENtNtCs3XRySYX51hI_4core7default7Default7defaultB9_
FN:556,_RNvXININtNtCs1I4G5KWFz5n_15embedded_charts4data6seriess8_0pKpKpEINtB5_11MultiSeriespKpKpENtNtCs3XRySYX51hI_4core7default7Default7defaultB9_
FN:666,_RNvXININtNtCs1I4G5KWFz5n_15embedded_charts4data6seriessa_0pKpEINtB5_19SlidingWindowSeriespKpENtNtCs3XRySYX51hI_4core7default7Default7defaultB9_
FN:691,_RNvXININtNtCs1I4G5KWFz5n_15embedded_charts4data6seriessb_0pKpEINtB5_19SlidingWindowSeriespKpENtB5_10DataSeries3getB9_
FN:687,_RNvXININtNtCs1I4G5KWFz5n_15embedded_charts4data6seriessb_0pKpEINtB5_19SlidingWindowSeriespKpENtB5_10DataSeries3lenB9_
FN:81,_RNvYpNtNtNtCs1I4G5KWFz5n_15embedded_charts4data6series10DataSeries16calculate_boundsB9_
FN:137,_RNCNvMs2_NtNtCs1I4G5KWFz5n_15embedded_charts4data6seriesINtB7_16StaticDataSeriesNtNtB9_5point7Point2DKj100_E4push0Bb_
FN:137,_RNCNvMs2_NtNtCs1I4G5KWFz5n_15embedded_charts4data6seriesINtB7_16StaticDataSeriesNtNtB9_5point7Point2DKja_E4push0Bb_
FN:130,_RNCNvMs2_NtNtCs1I4G5KWFz5n_15embedded_charts4data6seriesINtB7_16StaticDataSeriesNtNtB9_5point7Point2DKja_E5label0Bb_
FN:492,_RNCNvMs7_NtNtCs1I4G5KWFz5n_15embedded_charts4data6seriesINtB7_11MultiSeriesNtNtB9_5point7Point2DKj5_Kja_E10add_series0Bb_
FN:492,_RNCNvMs7_NtNtCs1I4G5KWFz5n_15embedded_charts4data6seriesINtB7_11MultiSeriesNtNtB9_5point7Point2DKj8_Kj100_E10add_series0Bb_
FN:654,_RNCNvMs9_NtNtCs1I4G5KWFz5n_15embedded_charts4data6seriesINtB7_19SlidingWindowSeriesNtNtB9_5point7Point2DKj3_E18iter_chronological0Bb_
FN:114,_RNvMs2_NtNtCs1I4G5KWFz5n_15embedded_charts4data6seriesINtB5_16StaticDataSeriesNtNtB7_5point7Point2DKj100_E10with_labelB9_
FN:152,_RNvMs2_NtNtCs1I4G5KWFz5n_15embedded_charts4data6seriesINtB5_16StaticDataSeriesNtNtB7_5point7Point2DKj100_E11from_tuplesB9_
FN:106,_RNvMs2_NtNtCs1I4G5KWFz5n_15embedded_charts4data6seriesINtB5_16StaticDataSeriesNtNtB7_5point7Point2DKj100_E3newB9_
FN:134,_RNvMs2_NtNtCs1I4G5KWFz5n_15embedded_charts4data6seriesINtB5_16StaticDataSeriesNtNtB7_5point7Point2DKj100_E4pushB9_
FN:184,_RNvMs2_NtNtCs1I4G5KWFz5n_15embedded_charts4data6seriesINtB5_16StaticDataSeriesNtNtB7_5point7Point2DKj100_E8as_sliceB9_
FN:121,_RNvMs2_NtNtCs1I4G5KWFz5n_15embedded_charts4data6seriesINtB5_16StaticDataSeriesNtNtB7_5point7Point2DKj100_E9set_labelB9_
FN:114,_RNvMs2_NtNtCs1I4G5KWFz5n_15embedded_charts4data6seriesINtB5_16StaticDataSeriesNtNtB7_5point7Point2DKja_E10with_labelB9_
FN:152,_RNvMs2_NtNtCs1I4G5KWFz5n_15embedded_charts4data6seriesINtB5_16StaticDataSeriesNtNtB7_5point7Point2DKja_E11from_tuplesB9_
FN:106,_RNvMs2_NtNtCs1I4G5KWFz5n_15embedded_charts4data6seriesINtB5_16StaticDataSeriesNtNtB7_5point7Point2DKja_E3newB9_
FN:134,_RNvMs2_NtNtCs1I4G5KWFz5n_15embedded_charts4data6seriesINtB5_16StaticDataSeriesNtNtB7_5point7Point2DKja_E4pushB9_
FN:129,_RNvMs2_NtNtCs1I4G5KWFz5n_15embedded_charts4data6seriesINtB5_16StaticDataSeriesNtNtB7_5point7Point2DKja_E5labelB9_
FN:169,_RNvMs2_NtNtCs1I4G5KWFz5n_15embedded_charts4data6seriesINtB5_16StaticDataSeriesNtNtB7_5point7Point2DKja_E8capacityB9_
FN:121,_RNvMs2_NtNtCs1I4G5KWFz5n_15embedded_charts4data6seriesINtB5_16StaticDataSeriesNtNtB7_5point7Point2DKja_E9set_labelB9_
FN:463,_RNvMs6_NtNtCs1I4G5KWFz5n_15embedded_charts4data6seriesINtB5_16StaticDataSeriesNtNtB7_5point7Point2DKj100_E6boundsB9_
FN:488,_RNvMs7_NtNtCs1I4G5KWFz5n_15embedded_charts4data6seriesINtB5_11MultiSeriesNtNtB7_5point7Point2DKj5_Kja_E10add_seriesB9_
FN:497,_RNvMs7_NtNtCs1I4G5KWFz5n_15embedded_charts4data6seriesINtB5_11MultiSeriesNtNtB7_5point7Point2DKj5_Kja_E10get_seriesB9_
FN:507,_RNvMs7_NtNtCs1I4G5KWFz5n_15embedded_charts4data6seriesINtB5_11MultiSeriesNtNtB7_5point7Point2DKj5_Kja_E12series_countB9_
FN:483,_RNvMs7_NtNtCs1I4G5KWFz5n_15embedded_charts4data6seriesINtB5_11MultiSeriesNtNtB7_5point7Point2DKj5_Kja_E3newB9_
FN:488,_RNvMs7_NtNtCs1I4G5KWFz5n_15embedded_charts4data6seriesINtB5_11MultiSeriesNtNtB7_5point7Point2DKj8_Kj100_E10add_seriesB9_
FN:483,_RNvMs7_NtNtCs1I4G5KWFz5n_15embedded_charts4data6seriesINtB5_11MultiSeriesNtNtB7_5point7Point2DKj8_Kj100_E3newB9_
FN:627,_RNvMs9_NtNtCs1I4G5KWFz5n_15embedded_charts4data6seriesINtB5_19SlidingWindowSeriesNtNtB7_5point7Point2DKj3_E11current_lenB9_
FN:650,_RNvMs9_NtNtCs1I4G5KWFz5n_15embedded_charts4data6seriesINtB5_19SlidingWindowSeriesNtNtB7_5point7Point2DKj3_E18iter_chronologicalB9_
FN:581,_RNvMs9_NtNtCs1I4G5KWFz5n_15embedded_charts4data6seriesINtB5_19SlidingWindowSeriesNtNtB7_5point7Point2DKj3_E3newB9_
FN:612,_RNvMs9_NtNtCs1I4G5KWFz5n_15embedded_charts4data6seriesINtB5_19SlidingWindowSeriesNtNtB7_5point7Point2DKj3_E4pushB9_
FN:632,_RNvMs9_NtNtCs1I4G5KWFz5n_15embedded_charts4data6seriesINtB5_19SlidingWindowSeriesNtNtB7_5point7Point2DKj3_E7is_fullB9_
FN:17,_RNvXNtNtCs1I4G5KWFz5n_15embedded_charts4data6seriesINtB2_20StaticDataSeriesIterNtNtB4_5point7Point2DKj100_ENtNtNtNtCs3XRySYX51hI_4core4iter6traits8iterator8Iterator4nextB6_
FN:451,_RNvXs5_NtNtCs1I4G5KWFz5n_15embedded_charts4data6seriesINtB5_16StaticDataSeriesNtNtB7_5point7Point2DKj100_ENtB5_10DataSeries3getB9_
FN:447,_RNvXs5_NtNtCs1I4G5KWFz5n_15embedded_charts4data6seriesINtB5_16StaticDataSeriesNtNtB7_5point7Point2DKj100_ENtB5_10DataSeries3lenB9_
FN:437,_RNvXs5_NtNtCs1I4G5KWFz5n_15embedded_charts4data6seriesINtB5_16StaticDataSeriesNtNtB7_5point7Point2DKj100_ENtB5_10DataSeries4iterB9_
FN:451,_RNvXs5_NtNtCs1I4G5KWFz5n_15embedded_charts4data6seriesINtB5_16StaticDataSeriesNtNtB7_5point7Point2DKja_ENtB5_10DataSeries3getB9_
FN:447,_RNvXs5_NtNtCs1I4G5KWFz5n_15embedded_charts4data6seriesINtB5_16StaticDataSeriesNtNtB7_5point7Point2DKja_ENtB5_10DataSeries3lenB9_
FN:679,_RNvXsb_NtNtCs1I4G5KWFz5n_15embedded_charts4data6seriesINtB5_19SlidingWindowSeriesNtNtB7_5point7Point2DKj3_ENtB5_10DataSeries4iterB9_
FN:76,_RNvYINtNtNtCs1I4G5KWFz5n_15embedded_charts4data6series16StaticDataSeriesNtNtB7_5point7Point2DKj100_ENtB5_10DataSeries8is_emptyB9_
FN:76,_RNvYINtNtNtCs1I4G5KWFz5n_15embedded_charts4data6series16StaticDataSeriesNtNtB7_5point7Point2DKja_ENtB5_10DataSeries8is_emptyB9_
FN:737,_RNvNtNtNtCs1I4G5KWFz5n_15embedded_charts4data6series5testss_17test_multi_series
FN:716,_RNvNtNtNtCs1I4G5KWFz5n_15embedded_charts4data6series5testss_23test_static_series_push
FN:753,_RNvNtNtNtCs1I4G5KWFz5n_15embedded_charts4data6series5testss_26test_sliding_window_series
FN:708,_RNvNtNtNtCs1I4G5KWFz5n_15embedded_charts4data6series5testss_27test_static_series_creation
FN:726,_RNvNtNtNtCs1I4G5KWFz5n_15embedded_charts4data6series5testss_30test_static_series_from_tuples
FNDA:0,_RINvMs2_NtNtCs1I4G5KWFz5n_15embedded_charts4data6seriesINtB6_16StaticDataSeriespKpE6extendpEBa_
FNDA:0,_RNCNvMs9_NtNtCs1I4G5KWFz5n_15embedded_charts4data6seriesINtB7_19SlidingWindowSeriespKpE5label0Bb_
FNDA:0,_RNvMs2_NtNtCs1I4G5KWFz5n_15embedded_charts4data6seriesINtB5_16StaticDataSeriespKpE15merge_sort_by_xB9_
FNDA:0,_RNvMs2_NtNtCs1I4G5KWFz5n_15embedded_charts4data6seriesINtB5_16StaticDataSeriespKpE15merge_sort_by_yB9_
FNDA:0,_RNvMs2_NtNtCs1I4G5KWFz5n_15embedded_charts4data6seriesINtB5_16StaticDataSeriespKpE18remaining_capacityB9_
FNDA:0,_RNvMs2_NtNtCs1I4G5KWFz5n_15embedded_charts4data6seriesINtB5_16StaticDataSeriespKpE19insertion_sort_by_xB9_
FNDA:0,_RNvMs2_NtNtCs1I4G5KWFz5n_15embedded_charts4data6seriesINtB5_16StaticDataSeriespKpE19insertion_sort_by_yB9_
FNDA:0,_RNvMs2_NtNtCs1I4G5KWFz5n_15embedded_charts4data6seriesINtB5_16StaticDataSeriespKpE20merge_sort_recursiveB9_
FNDA:0,_RNvMs2_NtNtCs1I4G5KWFz5n_15embedded_charts4data6seriesINtB5_16StaticDataSeriespKpE25merge_sort_by_y_recursiveB9_
FNDA:0,_RNvMs2_NtNtCs1I4G5KWFz5n_15embedded_charts4data6seriesINtB5_16StaticDataSeriespKpE5clearB9_
FNDA:0,_RNvMs2_NtNtCs1I4G5KWFz5n_15embedded_charts4data6seriesINtB5_16StaticDataSeriespKpE7is_fullB9_
FNDA:0,_RNvMs2_NtNtCs1I4G5KWFz5n_15embedded_charts4data6seriesINtB5_16StaticDataSeriespKpE9sort_by_xB9_
FNDA:0,_RNvMs2_NtNtCs1I4G5KWFz5n_15embedded_charts4data6seriesINtB5_16StaticDataSeriespKpE9sort_by_yB9_
FNDA:0,_RNvMs4_NtNtCs1I4G5KWFz5n_15embedded_charts4data6seriesINtB5_16StaticDataSeriespKpE4dataB9_
FNDA:0,_RNvMs4_NtNtCs1I4G5KWFz5n_15embedded_charts4data6seriesINtB5_16StaticDataSeriespKpE8iter_refB9_
FNDA:0,_RNvMs7_NtNtCs1I4G5KWFz5n_15embedded_charts4data6seriesINtB5_11MultiSeriespKpKpE11iter_seriesB9_
FNDA:0,_RNvMs7_NtNtCs1I4G5KWFz5n_15embedded_charts4data6seriesINtB5_11MultiSeriespKpKpE14get_series_mutB9_
FNDA:0,_RNvMs7_NtNtCs1I4G5KWFz5n_15embedded_charts4data6seriesINtB5_11MultiSeriespKpKpE15combined_boundsB9_
FNDA:0,_RNvMs7_NtNtCs1I4G5KWFz5n_15embedded_charts4data6seriesINtB5_11MultiSeriespKpKpE5clearB9_
FNDA:0,_RNvMs7_NtNtCs1I4G5KWFz5n_15embedded_charts4data6seriesINtB5_11MultiSeriespKpKpE8is_emptyB9_
FNDA:0,_RNvMs9_NtNtCs1I4G5KWFz5n_15embedded_charts4data6seriesINtB5_19SlidingWindowSeriespKpE10with_labelB9_
FNDA:0,_RNvMs9_NtNtCs1I4G5KWFz5n_15embedded_charts4data6seriesINtB5_19SlidingWindowSeriespKpE5clearB9_
FNDA:0,_RNvMs9_NtNtCs1I4G5KWFz5n_15embedded_charts4data6seriesINtB5_19SlidingWindowSeriespKpE5labelB9_
FNDA:0,_RNvMs9_NtNtCs1I4G5KWFz5n_15embedded_charts4data6seriesINtB5_19SlidingWindowSeriespKpE8capacityB9_
FNDA:0,_RNvMs9_NtNtCs1I4G5KWFz5n_15embedded_charts4data6seriesINtB5_19SlidingWindowSeriespKpE9set_labelB9_
FNDA:0,_RNvXININtNtCs1I4G5KWFz5n_15embedded_charts4data6series0pKpEINtB5_20StaticDataSeriesIterpKpENtNtNtNtCs3XRySYX51hI_4core4iter6traits8iterator8Iterator9size_hintB9_
FNDA:0,_RNvXININtNtCs1I4G5KWFz5n_15embedded_charts4data6seriess0_0pEINtB5_23StaticDataSeriesRefIterpENtNtNtNtCs3XRySYX51hI_4core4iter6traits8iterator8Iterator4nextB9_
FNDA:0,_RNvXININtNtCs1I4G5KWFz5n_15embedded_charts4data6seriess0_0pEINtB5_23StaticDataSeriesRefIterpENtNtNtNtCs3XRySYX51hI_4core4iter6traits8iterator8Iterator9size_hintB9_
FNDA:0,_RNvXININtNtCs1I4G5KWFz5n_15embedded_charts4data6seriess3_0pKpEINtB5_16StaticDataSeriespKpENtNtCs3XRySYX51hI_4core7default7Default7defaultB9_
FNDA:0,_RNvXININtNtCs1I4G5KWFz5n_15embedded_charts4data6seriess8_0pKpKpEINtB5_11MultiSeriespKpKpENtNtCs3XRySYX51hI_4core7default7Default7defaultB9_
FNDA:0,_RNvXININtNtCs1I4G5KWFz5n_15embedded_charts4data6seriessa_0pKpEINtB5_19SlidingWindowSeriespKpENtNtCs3XRySYX51hI_4core7default7Default7defaultB9_
FNDA:0,_RNvXININtNtCs1I4G5KWFz5n_15embedded_charts4data6seriessb_0pKpEINtB5_19SlidingWindowSeriespKpENtB5_10DataSeries3getB9_
FNDA:0,_RNvXININtNtCs1I4G5KWFz5n_15embedded_charts4data6seriessb_0pKpEINtB5_19SlidingWindowSeriespKpENtB5_10DataSeries3lenB9_
FNDA:0,_RNvYpNtNtNtCs1I4G5KWFz5n_15embedded_charts4data6series10DataSeries16calculate_boundsB9_
FNDA:0,_RNCNvMs2_NtNtCs1I4G5KWFz5n_15embedded_charts4data6seriesINtB7_16StaticDataSeriesNtNtB9_5point7Point2DKj100_E4push0Bb_
FNDA:0,_RNCNvMs2_NtNtCs1I4G5KWFz5n_15embedded_charts4data6seriesINtB7_16StaticDataSeriesNtNtB9_5point7Point2DKja_E4push0Bb_
FNDA:1,_RNCNvMs2_NtNtCs1I4G5KWFz5n_15embedded_charts4data6seriesINtB7_16StaticDataSeriesNtNtB9_5point7Point2DKja_E5label0Bb_
FNDA:0,_RNCNvMs7_NtNtCs1I4G5KWFz5n_15embedded_charts4data6seriesINtB7_11MultiSeriesNtNtB9_5point7Point2DKj5_Kja_E10add_series0Bb_
FNDA:0,_RNCNvMs7_NtNtCs1I4G5KWFz5n_15embedded_charts4data6seriesINtB7_11MultiSeriesNtNtB9_5point7Point2DKj8_Kj100_E10add_series0Bb_
FNDA:3,_RNCNvMs9_NtNtCs1I4G5KWFz5n_15embedded_charts4data6seriesINtB7_19SlidingWindowSeriesNtNtB9_5point7Point2DKj3_E18iter_chronological0Bb_
FNDA:2,_RNvMs2_NtNtCs1I4G5KWFz5n_15embedded_charts4data6seriesINtB5_16StaticDataSeriesNtNtB7_5point7Point2DKj100_E10with_labelB9_
FNDA:3,_RNvMs2_NtNtCs1I4G5KWFz5n_15embedded_charts4data6seriesINtB5_16StaticDataSeriesNtNtB7_5point7Point2DKj100_E11from_tuplesB9_
FNDA:38,_RNvMs2_NtNtCs1I4G5KWFz5n_15embedded_charts4data6seriesINtB5_16StaticDataSeriesNtNtB7_5point7Point2DKj100_E3newB9_
FNDA:251,_RNvMs2_NtNtCs1I4G5KWFz5n_15embedded_charts4data6seriesINtB5_16StaticDataSeriesNtNtB7_5point7Point2DKj100_E4pushB9_
FNDA:3,_RNvMs2_NtNtCs1I4G5KWFz5n_15embedded_charts4data6seriesINtB5_16StaticDataSeriesNtNtB7_5point7Point2DKj100_E8as_sliceB9_
FNDA:2,_RNvMs2_NtNtCs1I4G5KWFz5n_15embedded_charts4data6seriesINtB5_16StaticDataSeriesNtNtB7_5point7Point2DKj100_E9set_labelB9_
FNDA:1,_RNvMs2_NtNtCs1I4G5KWFz5n_15embedded_charts4data6seriesINtB5_16StaticDataSeriesNtNtB7_5point7Point2DKja_E10with_labelB9_
FNDA:1,_RNvMs2_NtNtCs1I4G5KWFz5n_15embedded_charts4data6seriesINtB5_16StaticDataSeriesNtNtB7_5point7Point2DKja_E11from_tuplesB9_
FNDA:4,_RNvMs2_NtNtCs1I4G5KWFz5n_15embedded_charts4data6seriesINtB5_16StaticDataSeriesNtNtB7_5point7Point2DKja_E3newB9_
FNDA:5,_RNvMs2_NtNtCs1I4G5KWFz5n_15embedded_charts4data6seriesINtB5_16StaticDataSeriesNtNtB7_5point7Point2DKja_E4pushB9_
FNDA:1,_RNvMs2_NtNtCs1I4G5KWFz5n_15embedded_charts4data6seriesINtB5_16StaticDataSeriesNtNtB7_5point7Point2DKja_E5labelB9_
FNDA:1,_RNvMs2_NtNtCs1I4G5KWFz5n_15embedded_charts4data6seriesINtB5_16StaticDataSeriesNtNtB7_5point7Point2DKja_E8capacityB9_
FNDA:1,_RNvMs2_NtNtCs1I4G5KWFz5n_15embedded_charts4data6seriesINtB5_16StaticDataSeriesNtNtB7_5point7Point2DKja_E9set_labelB9_
FNDA:19,_RNvMs6_NtNtCs1I4G5KWFz5n_15embedded_charts4data6seriesINtB5_16StaticDataSeriesNtNtB7_5point7Point2DKj100_E6boundsB9_
FNDA:1,_RNvMs7_NtNtCs1I4G5KWFz5n_15embedded_charts4data6seriesINtB5_11MultiSeriesNtNtB7_5point7Point2DKj5_Kja_E10add_seriesB9_
FNDA:1,_RNvMs7_NtNtCs1I4G5KWFz5n_15embedded_charts4data6seriesINtB5_11MultiSeriesNtNtB7_5point7Point2DKj5_Kja_E10get_seriesB9_
FNDA:1,_RNvMs7_NtNtCs1I4G5KWFz5n_15embedded_charts4data6seriesINtB5_11MultiSeriesNtNtB7_5point7Point2DKj5_Kja_E12series_countB9_
FNDA:1,_RNvMs7_NtNtCs1I4G5KWFz5n_15embedded_charts4data6seriesINtB5_11MultiSeriesNtNtB7_5point7Point2DKj5_Kja_E3newB9_
FNDA:2,_RNvMs7_NtNtCs1I4G5KWFz5n_15embedded_charts4data6seriesINtB5_11MultiSeriesNtNtB7_5point7Point2DKj8_Kj100_E10add_seriesB9_
FNDA:1,_RNvMs7_NtNtCs1I4G5KWFz5n_15embedded_charts4data6seriesINtB5_11MultiSeriesNtNtB7_5point7Point2DKj8_Kj100_E3newB9_
FNDA:2,_RNvMs9_NtNtCs1I4G5KWFz5n_15embedded_charts4data6seriesINtB5_19SlidingWindowSeriesNtNtB7_5point7Point2DKj3_E11current_lenB9_
FNDA:1,_RNvMs9_NtNtCs1I4G5KWFz5n_15embedded_charts4data6seriesINtB5_19SlidingWindowSeriesNtNtB7_5point7Point2DKj3_E18iter_chronologicalB9_
FNDA:1,_RNvMs9_NtNtCs1I4G5KWFz5n_15embedded_charts4data6seriesINtB5_19SlidingWindowSeriesNtNtB7_5point7Point2DKj3_E3newB9_
FNDA:4,_RNvMs9_NtNtCs1I4G5KWFz5n_15embedded_charts4data6seriesINtB5_19SlidingWindowSeriesNtNtB7_5point7Point2DKj3_E4pushB9_
FNDA:1,_RNvMs9_NtNtCs1I4G5KWFz5n_15embedded_charts4data6seriesINtB5_19SlidingWindowSeriesNtNtB7_5point7Point2DKj3_E7is_fullB9_
FNDA:449,_RNvXNtNtCs1I4G5KWFz5n_15embedded_charts4data6seriesINtB2_20StaticDataSeriesIterNtNtB4_5point7Point2DKj100_ENtNtNtNtCs3XRySYX51hI_4core4iter6traits8iterator8Iterator4nextB6_
FNDA:4,_RNvXs5_NtNtCs1I4G5KWFz5n_15embedded_charts4data6seriesINtB5_16StaticDataSeriesNtNtB7_5point7Point2DKj100_ENtB5_10DataSeries3getB9_
FNDA:40,_RNvXs5_NtNtCs1I4G5KWFz5n_15embedded_charts4data6seriesINtB5_16StaticDataSeriesNtNtB7_5point7Point2DKj100_ENtB5_10DataSeries3lenB9_
FNDA:49,_RNvXs5_NtNtCs1I4G5KWFz5n_15embedded_charts4data6seriesINtB5_16StaticDataSeriesNtNtB7_5point7Point2DKj100_ENtB5_10DataSeries4iterB9_
FNDA:4,_RNvXs5_NtNtCs1I4G5KWFz5n_15embedded_charts4data6seriesINtB5_16StaticDataSeriesNtNtB7_5point7Point2DKja_ENtB5_10DataSeries3getB9_
FNDA:5,_RNvXs5_NtNtCs1I4G5KWFz5n_15embedded_charts4data6seriesINtB5_16StaticDataSeriesNtNtB7_5point7Point2DKja_ENtB5_10DataSeries3lenB9_
FNDA:1,_RNvXsb_NtNtCs1I4G5KWFz5n_15embedded_charts4data6seriesINtB5_19SlidingWindowSeriesNtNtB7_5point7Point2DKj3_ENtB5_10DataSeries4iterB9_
FNDA:27,_RNvYINtNtNtCs1I4G5KWFz5n_15embedded_charts4data6series16StaticDataSeriesNtNtB7_5point7Point2DKj100_ENtB5_10DataSeries8is_emptyB9_
FNDA:1,_RNvYINtNtNtCs1I4G5KWFz5n_15embedded_charts4data6series16StaticDataSeriesNtNtB7_5point7Point2DKja_ENtB5_10DataSeries8is_emptyB9_
FNDA:1,_RNvNtNtNtCs1I4G5KWFz5n_15embedded_charts4data6series5testss_17test_multi_series
FNDA:1,_RNvNtNtNtCs1I4G5KWFz5n_15embedded_charts4data6series5testss_23test_static_series_push
FNDA:1,_RNvNtNtNtCs1I4G5KWFz5n_15embedded_charts4data6series5testss_26test_sliding_window_series
FNDA:1,_RNvNtNtNtCs1I4G5KWFz5n_15embedded_charts4data6series5testss_27test_static_series_creation
FNDA:1,_RNvNtNtNtCs1I4G5KWFz5n_15embedded_charts4data6series5testss_30test_static_series_from_tuples
FNF:67
FNH:31
DA:17,449
DA:18,449
DA:19,400
DA:20,400
DA:21,400
DA:23,49
DA:25,449
DA:27,0
DA:28,0
DA:29,0
DA:30,0
DA:44,0
DA:45,0
DA:46,0
DA:47,0
DA:48,0
DA:50,0
DA:52,0
DA:54,0
DA:55,0
DA:56,0
DA:57,0
DA:76,28
DA:77,28
DA:78,28
DA:81,0
DA:82,0
DA:83,0
DA:84,0
DA:85,0
DA:106,42
DA:107,42
DA:108,42
DA:109,42
DA:110,42
DA:111,42
DA:114,3
DA:115,3
DA:116,3
DA:117,3
DA:118,3
DA:121,3
DA:122,3
DA:123,3
DA:124,3
DA:125,3
DA:126,3
DA:129,1
DA:130,1
DA:131,1
DA:134,256
DA:135,256
DA:136,256
DA:137,256
DA:138,256
DA:141,0
DA:142,0
DA:143,0
DA:144,0
DA:145,0
DA:146,0
DA:148,0
DA:149,0
DA:152,4
DA:153,4
DA:154,4
DA:155,4
DA:156,4
DA:157,15
DA:158,11
DA:160,4
DA:161,4
DA:164,0
DA:165,0
DA:166,0
DA:169,1
DA:170,1
DA:171,1
DA:174,0
DA:175,0
DA:176,0
DA:179,0
DA:180,0
DA:181,0
DA:184,3
DA:185,3
DA:186,3
DA:189,0
DA:190,0
DA:191,0
DA:192,0
DA:193,0
DA:194,0
DA:195,0
DA:196,0
DA:197,0
DA:198,0
DA:199,0
DA:200,0
DA:203,0
DA:204,0
DA:205,0
DA:206,0
DA:207,0
DA:208,0
DA:209,0
DA:210,0
DA:212,0
DA:213,0
DA:214,0
DA:215,0
DA:216,0
DA:218,0
DA:221,0
DA:222,0
DA:223,0
DA:224,0
DA:225,0
DA:226,0
DA:227,0
DA:228,0
DA:229,0
DA:230,0
DA:231,0
DA:232,0
DA:233,0
DA:234,0
DA:236,0
DA:237,0
DA:238,0
DA:241,0
DA:242,0
DA:245,0
DA:246,0
DA:247,0
DA:248,0
DA:249,0
DA:250,0
DA:251,0
DA:252,0
DA:253,0
DA:254,0
DA:255,0
DA:256,0
DA:257,0
DA:258,0
DA:259,0
DA:260,0
DA:261,0
DA:264,0
DA:265,0
DA:266,0
DA:268,0
DA:269,0
DA:270,0
DA:271,0
DA:272,0
DA:273,0
DA:274,0
DA:275,0
DA:276,0
DA:280,0
DA:281,0
DA:282,0
DA:283,0
DA:284,0
DA:286,0
DA:287,0
DA:288,0
DA:289,0
DA:290,0
DA:291,0
DA:294,0
DA:295,0
DA:296,0
DA:297,0
DA:298,0
DA:299,0
DA:300,0
DA:301,0
DA:302,0
DA:303,0
DA:304,0
DA:305,0
DA:308,0
DA:309,0
DA:310,0
DA:311,0
DA:312,0
DA:313,0
DA:314,0
DA:315,0
DA:317,0
DA:318,0
DA:319,0
DA:320,0
DA:321,0
DA:323,0
DA:326,0
DA:327,0
DA:328,0
DA:329,0
DA:330,0
DA:331,0
DA:332,0
DA:333,0
DA:334,0
DA:335,0
DA:336,0
DA:337,0
DA:338,0
DA:339,0
DA:341,0
DA:342,0
DA:343,0
DA:346,0
DA:347,0
DA:350,0
DA:351,0
DA:352,0
DA:353,0
DA:354,0
DA:355,0
DA:356,0
DA:357,0
DA:358,0
DA:359,0
DA:360,0
DA:361,0
DA:362,0
DA:363,0
DA:364,0
DA:365,0
DA:366,0
DA:367,0
DA:368,0
DA:369,0
DA:370,0
DA:373,0
DA:374,0
DA:375,0
DA:377,0
DA:378,0
DA:379,0
DA:380,0
DA:381,0
DA:382,0
DA:383,0
DA:384,0
DA:385,0
DA:389,0
DA:390,0
DA:391,0
DA:392,0
DA:393,0
DA:395,0
DA:396,0
DA:397,0
DA:398,0
DA:399,0
DA:400,0
DA:407,0
DA:408,0
DA:409,0
DA:417,0
DA:418,0
DA:419,0
DA:420,0
DA:421,0
DA:422,0
DA:425,0
DA:426,0
DA:427,0
DA:437,49
DA:438,49
DA:439,49
DA:440,49
DA:441,49
DA:442,49
DA:443,49
DA:444,49
DA:445,49
DA:447,45
DA:448,45
DA:449,45
DA:451,8
DA:452,8
DA:453,8
DA:463,19
DA:465,19
DA:466,19
DA:483,2
DA:484,2
DA:485,2
DA:488,3
DA:489,3
DA:490,3
DA:491,3
DA:492,3
DA:493,3
DA:494,3
DA:497,1
DA:498,1
DA:499,1
DA:502,0
DA:503,0
DA:504,0
DA:507,1
DA:508,1
DA:509,1
DA:512,0
DA:513,0
DA:514,0
DA:517,0
DA:518,0
DA:519,0
DA:522,0
DA:523,0
DA:524,0
DA:525,0
DA:526,0
DA:527,0
DA:528,0
DA:529,0
DA:530,0
DA:531,0
DA:532,0
DA:533,0
DA:534,0
DA:536,0
DA:538,0
DA:539,0
DA:540,0
DA:543,0
DA:544,0
DA:547,0
DA:548,0
DA:549,0
DA:556,0
DA:557,0
DA:558,0
DA:581,1
DA:582,1
DA:583,1
DA:584,1
DA:585,1
DA:586,1
DA:587,1
DA:588,1
DA:589,1
DA:592,0
DA:593,0
DA:594,0
DA:595,0
DA:596,0
DA:599,0
DA:600,0
DA:601,0
DA:602,0
DA:603,0
DA:604,0
DA:607,0
DA:608,0
DA:609,0
DA:612,4
DA:613,4
DA:614,4
DA:615,4
DA:616,4
DA:617,1
DA:618,1
DA:619,3
DA:620,3
DA:621,1
DA:622,2
DA:624,4
DA:627,2
DA:628,2
DA:629,2
DA:632,1
DA:633,1
DA:634,1
DA:637,0
DA:638,0
DA:639,0
DA:642,0
DA:643,0
DA:644,0
DA:645,0
DA:646,0
DA:647,0
DA:650,1
DA:651,1
DA:652,1
DA:654,3
DA:655,3
DA:656,3
DA:657,3
DA:658,1
DA:666,0
DA:667,0
DA:668,0
DA:679,1
DA:680,1
DA:681,3
DA:682,3
DA:683,3
DA:684,1
DA:685,1
DA:687,0
DA:688,0
DA:689,0
DA:691,0
DA:692,0
DA:693,0
DA:694,0
DA:696,0
DA:697,0
DA:698,0
DA:699,0
DA:708,1
DA:709,1
DA:710,1
DA:711,1
DA:712,1
DA:713,1
DA:716,1
DA:717,1
DA:718,1
DA:719,1
DA:720,1
DA:721,1
DA:722,1
DA:723,1
DA:726,1
DA:727,1
DA:728,1
DA:729,1
DA:730,1
DA:731,1
DA:732,1
DA:733,1
DA:734,1
DA:737,1
DA:738,1
DA:739,1
DA:740,1
DA:741,1
DA:742,1
DA:743,1
DA:744,1
DA:746,1
DA:747,1
DA:748,1
DA:749,1
DA:753,1
DA:754,1
DA:755,1
DA:756,1
DA:757,1
DA:758,1
DA:759,1
DA:760,1
DA:761,1
DA:764,1
DA:765,1
DA:768,1
DA:769,1
DA:770,1
DA:771,1
DA:772,1
DA:773,1
BRF:0
BRH:0
LF:477
LH:180
end_of_record
SF:/home/tasuku/com/github/signal-slot/embedded-charts/src/data/streaming.rs
FN:821,_RNvNtNtNtCs1I4G5KWFz5n_15embedded_charts4data9streaming5testss_21test_streaming_config
FN:836,_RNvNtNtNtCs1I4G5KWFz5n_15embedded_charts4data9streaming5testss_24test_performance_metrics
FN:784,_RNvNtNtNtCs1I4G5KWFz5n_15embedded_charts4data9streaming5testss_26test_streaming_data_source
FN:803,_RNvNtNtNtCs1I4G5KWFz5n_15embedded_charts4data9streaming5testss_28test_streaming_chart_manager
FN:766,_RNvNtNtNtCs1I4G5KWFz5n_15embedded_charts4data9streaming5testss_29test_unified_streaming_buffer
FN:334,_RNCNvMs2_NtNtCs1I4G5KWFz5n_15embedded_charts4data9streamingINtB7_21StreamingDataPipelinepKpE10add_source0Bb_
FN:326,_RNvMs2_NtNtCs1I4G5KWFz5n_15embedded_charts4data9streamingINtB5_21StreamingDataPipelinepKpE10add_sourceB9_
FN:316,_RNvMs2_NtNtCs1I4G5KWFz5n_15embedded_charts4data9streamingINtB5_21StreamingDataPipelinepKpE11with_configB9_
FN:359,_RNvMs2_NtNtCs1I4G5KWFz5n_15embedded_charts4data9streamingINtB5_21StreamingDataPipelinepKpE12current_dataB9_
FN:369,_RNvMs2_NtNtCs1I4G5KWFz5n_15embedded_charts4data9streamingINtB5_21StreamingDataPipelinepKpE12source_countB9_
FN:385,_RNvMs2_NtNtCs1I4G5KWFz5n_15embedded_charts4data9streamingINtB5_21StreamingDataPipelinepKpE19get_current_time_usB9_
FN:374,_RNvMs2_NtNtCs1I4G5KWFz5n_15embedded_charts4data9streamingINtB5_21StreamingDataPipelinepKpE23update_pipeline_metricsB9_
FN:311,_RNvMs2_NtNtCs1I4G5KWFz5n_15embedded_charts4data9streamingINtB5_21StreamingDataPipelinepKpE3newB9_
FN:340,_RNvMs2_NtNtCs1I4G5KWFz5n_15embedded_charts4data9streamingINtB5_21StreamingDataPipelinepKpE6updateB9_
FN:364,_RNvMs2_NtNtCs1I4G5KWFz5n_15embedded_charts4data9streamingINtB5_21StreamingDataPipelinepKpE7metricsB9_
FN:496,_RNvMs4_NtNtCs1I4G5KWFz5n_15embedded_charts4data9streamingINtB5_19StreamingDataSourceKpE6configB9_
FN:501,_RNvMs4_NtNtCs1I4G5KWFz5n_15embedded_charts4data9streamingINtB5_19StreamingDataSourceKpE7metricsB9_
FN:722,_RNvMs7_NtNtCs1I4G5KWFz5n_15embedded_charts4data9streamingINtB5_21StreamingChartManagerKpE10sync_stateB9_
FN:156,_RNvMs_NtNtCs1I4G5KWFz5n_15embedded_charts4data9streamingINtB4_22UnifiedStreamingBufferKpE12memory_statsB8_
FN:171,_RNvMs_NtNtCs1I4G5KWFz5n_15embedded_charts4data9streamingINtB4_22UnifiedStreamingBufferKpE13update_configB8_
FN:144,_RNvMs_NtNtCs1I4G5KWFz5n_15embedded_charts4data9streamingINtB4_22UnifiedStreamingBufferKpE5clearB8_
FN:166,_RNvMs_NtNtCs1I4G5KWFz5n_15embedded_charts4data9streamingINtB4_22UnifiedStreamingBufferKpE6boundsB8_
FN:231,_RNvXININtNtCs1I4G5KWFz5n_15embedded_charts4data9streamings0_0KpEINtB5_22UnifiedStreamingBufferKpENtNtCs3XRySYX51hI_4core7default7Default7defaultB9_
FN:756,_RNvXININtNtCs1I4G5KWFz5n_15embedded_charts4data9streamings8_0KpEINtB5_21StreamingChartManagerKpENtNtCs3XRySYX51hI_4core7default7Default7defaultB9_
FN:299,_RNvXs1_NtNtCs1I4G5KWFz5n_15embedded_charts4data9streamingNtB5_14PipelineConfigNtNtCs3XRySYX51hI_4core7default7Default7default
FN:29,_RNvXNtNtCs1I4G5KWFz5n_15embedded_charts4data9streamingNtB2_15StreamingConfigNtNtCs3XRySYX51hI_4core7default7Default7default
FN:430,_RNvXs3_NtNtCs1I4G5KWFz5n_15embedded_charts4data9streamingNtB5_12SourceConfigNtNtCs3XRySYX51hI_4core7default7Default7default
FN:625,_RNvXs5_NtNtCs1I4G5KWFz5n_15embedded_charts4data9streamingNtB5_13ManagerConfigNtNtCs3XRySYX51hI_4core7default7Default7default
FN:636,_RNvXs6_NtNtCs1I4G5KWFz5n_15embedded_charts4data9streamingNtB5_19ChartInstanceConfigNtNtCs3XRySYX51hI_4core7default7Default7default
FN:682,_RNCNvMs7_NtNtCs1I4G5KWFz5n_15embedded_charts4data9streamingINtB7_21StreamingChartManagerKj5_E9add_chart0Bb_
FN:447,_RNvMs4_NtNtCs1I4G5KWFz5n_15embedded_charts4data9streamingINtB5_19StreamingDataSourceKj5_E11with_configB9_
FN:506,_RNvMs4_NtNtCs1I4G5KWFz5n_15embedded_charts4data9streamingINtB5_19StreamingDataSourceKj5_E14is_valid_pointB9_
FN:481,_RNvMs4_NtNtCs1I4G5KWFz5n_15embedded_charts4data9streamingINtB5_19StreamingDataSourceKj5_E2idB9_
FN:442,_RNvMs4_NtNtCs1I4G5KWFz5n_15embedded_charts4data9streamingINtB5_19StreamingDataSourceKj5_E3newB9_
FN:476,_RNvMs4_NtNtCs1I4G5KWFz5n_15embedded_charts4data9streamingINtB5_19StreamingDataSourceKj5_E4dataB9_
FN:486,_RNvMs4_NtNtCs1I4G5KWFz5n_15embedded_charts4data9streamingINtB5_19StreamingDataSourceKj5_E5stateB9_
FN:462,_RNvMs4_NtNtCs1I4G5KWFz5n_15embedded_charts4data9streamingINtB5_19StreamingDataSourceKj5_E6updateB9_
FN:491,_RNvMs4_NtNtCs1I4G5KWFz5n_15embedded_charts4data9streamingINtB5_19StreamingDataSourceKj5_E9set_stateB9_
FN:652,_RNvMs7_NtNtCs1I4G5KWFz5n_15embedded_charts4data9streamingINtB5_21StreamingChartManagerKj5_E11with_configB9_
FN:727,_RNvMs7_NtNtCs1I4G5KWFz5n_15embedded_charts4data9streamingINtB5_21StreamingChartManagerKj5_E17update_sync_stateB9_
FN:717,_RNvMs7_NtNtCs1I4G5KWFz5n_15embedded_charts4data9streamingINtB5_21StreamingChartManagerKj5_E18active_chart_countB9_
FN:745,_RNvMs7_NtNtCs1I4G5KWFz5n_15embedded_charts4data9streamingINtB5_21StreamingChartManagerKj5_E19get_current_time_msB9_
FN:750,_RNvMs7_NtNtCs1I4G5KWFz5n_15embedded_charts4data9streamingINtB5_21StreamingChartManagerKj5_E19get_current_time_usB9_
FN:734,_RNvMs7_NtNtCs1I4G5KWFz5n_15embedded_charts4data9streamingINtB5_21StreamingChartManagerKj5_E22update_manager_metricsB9_
FN:647,_RNvMs7_NtNtCs1I4G5KWFz5n_15embedded_charts4data9streamingINtB5_21StreamingChartManagerKj5_E3newB9_
FN:691,_RNvMs7_NtNtCs1I4G5KWFz5n_15embedded_charts4data9streamingINtB5_21StreamingChartManagerKj5_E6updateB9_
FN:712,_RNvMs7_NtNtCs1I4G5KWFz5n_15embedded_charts4data9streamingINtB5_21StreamingChartManagerKj5_E7metricsB9_
FN:662,_RNvMs7_NtNtCs1I4G5KWFz5n_15embedded_charts4data9streamingINtB5_21StreamingChartManagerKj5_E9add_chartB9_
FN:80,_RNvMs_NtNtCs1I4G5KWFz5n_15embedded_charts4data9streamingINtB4_22UnifiedStreamingBufferKj32_E11with_configB8_
FN:176,_RNvMs_NtNtCs1I4G5KWFz5n_15embedded_charts4data9streamingINtB4_22UnifiedStreamingBufferKj32_E6configB8_
FN:80,_RNvMs_NtNtCs1I4G5KWFz5n_15embedded_charts4data9streamingINtB4_22UnifiedStreamingBufferKj5_E11with_configB8_
FN:192,_RNvMs_NtNtCs1I4G5KWFz5n_15embedded_charts4data9streamingINtB4_22UnifiedStreamingBufferKj5_E13update_boundsB8_
FN:181,_RNvMs_NtNtCs1I4G5KWFz5n_15embedded_charts4data9streamingINtB4_22UnifiedStreamingBufferKj5_E14prune_old_dataB8_
FN:217,_RNvMs_NtNtCs1I4G5KWFz5n_15embedded_charts4data9streamingINtB4_22UnifiedStreamingBufferKj5_E19get_current_time_msB8_
FN:224,_RNvMs_NtNtCs1I4G5KWFz5n_15embedded_charts4data9streamingINtB4_22UnifiedStreamingBufferKj5_E19get_current_time_usB8_
FN:91,_RNvMs_NtNtCs1I4G5KWFz5n_15embedded_charts4data9streamingINtB4_22UnifiedStreamingBufferKj5_E19push_with_timestampB8_
FN:209,_RNvMs_NtNtCs1I4G5KWFz5n_15embedded_charts4data9streamingINtB4_22UnifiedStreamingBufferKj5_E21update_memory_metricsB8_
FN:199,_RNvMs_NtNtCs1I4G5KWFz5n_15embedded_charts4data9streamingINtB4_22UnifiedStreamingBufferKj5_E22update_latency_metricsB8_
FN:129,_RNvMs_NtNtCs1I4G5KWFz5n_15embedded_charts4data9streamingINtB4_22UnifiedStreamingBufferKj5_E4dataB8_
FN:123,_RNvMs_NtNtCs1I4G5KWFz5n_15embedded_charts4data9streamingINtB4_22UnifiedStreamingBufferKj5_E4pushB8_
FN:80,_RNvMs_NtNtCs1I4G5KWFz5n_15embedded_charts4data9streamingINtB4_22UnifiedStreamingBufferKja_E11with_configB8_
FN:192,_RNvMs_NtNtCs1I4G5KWFz5n_15embedded_charts4data9streamingINtB4_22UnifiedStreamingBufferKja_E13update_boundsB8_
FN:181,_RNvMs_NtNtCs1I4G5KWFz5n_15embedded_charts4data9streamingINtB4_22UnifiedStreamingBufferKja_E14prune_old_dataB8_
FN:217,_RNvMs_NtNtCs1I4G5KWFz5n_15embedded_charts4data9streamingINtB4_22UnifiedStreamingBufferKja_E19get_current_time_msB8_
FN:224,_RNvMs_NtNtCs1I4G5KWFz5n_15embedded_charts4data9streamingINtB4_22UnifiedStreamingBufferKja_E19get_current_time_usB8_
FN:91,_RNvMs_NtNtCs1I4G5KWFz5n_15embedded_charts4data9streamingINtB4_22UnifiedStreamingBufferKja_E19push_with_timestampB8_
FN:209,_RNvMs_NtNtCs1I4G5KWFz5n_15embedded_charts4data9streamingINtB4_22UnifiedStreamingBufferKja_E21update_memory_metricsB8_
FN:199,_RNvMs_NtNtCs1I4G5KWFz5n_15embedded_charts4data9streamingINtB4_22UnifiedStreamingBufferKja_E22update_latency_metricsB8_
FN:134,_RNvMs_NtNtCs1I4G5KWFz5n_15embedded_charts4data9streamingINtB4_22UnifiedStreamingBufferKja_E3lenB8_
FN:75,_RNvMs_NtNtCs1I4G5KWFz5n_15embedded_charts4data9streamingINtB4_22UnifiedStreamingBufferKja_E3newB8_
FN:129,_RNvMs_NtNtCs1I4G5KWFz5n_15embedded_charts4data9streamingINtB4_22UnifiedStreamingBufferKja_E4dataB8_
FN:123,_RNvMs_NtNtCs1I4G5KWFz5n_15embedded_charts4data9streamingINtB4_22UnifiedStreamingBufferKja_E4pushB8_
FN:161,_RNvMs_NtNtCs1I4G5KWFz5n_15embedded_charts4data9streamingINtB4_22UnifiedStreamingBufferKja_E7metricsB8_
FN:151,_RNvMs_NtNtCs1I4G5KWFz5n_15embedded_charts4data9streamingINtB4_22UnifiedStreamingBufferKja_E8capacityB8_
FN:139,_RNvMs_NtNtCs1I4G5KWFz5n_15embedded_charts4data9streamingINtB4_22UnifiedStreamingBufferKja_E8is_emptyB8_
FNDA:1,_RNvNtNtNtCs1I4G5KWFz5n_15embedded_charts4data9streaming5testss_21test_streaming_config
FNDA:1,_RNvNtNtNtCs1I4G5KWFz5n_15embedded_charts4data9streaming5testss_24test_performance_metrics
FNDA:1,_RNvNtNtNtCs1I4G5KWFz5n_15embedded_charts4data9streaming5testss_26test_streaming_data_source
FNDA:1,_RNvNtNtNtCs1I4G5KWFz5n_15embedded_charts4data9streaming5testss_28test_streaming_chart_manager
FNDA:1,_RNvNtNtNtCs1I4G5KWFz5n_15embedded_charts4data9streaming5testss_29test_unified_streaming_buffer
FNDA:0,_RNCNvMs2_NtNtCs1I4G5KWFz5n_15embedded_charts4data9streamingINtB7_21StreamingDataPipelinepKpE10add_source0Bb_
FNDA:0,_RNvMs2_NtNtCs1I4G5KWFz5n_15embedded_charts4data9streamingINtB5_21StreamingDataPipelinepKpE10add_sourceB9_
FNDA:0,_RNvMs2_NtNtCs1I4G5KWFz5n_15embedded_charts4data9streamingINtB5_21StreamingDataPipelinepKpE11with_configB9_
FNDA:0,_RNvMs2_NtNtCs1I4G5KWFz5n_15embedded_charts4data9streamingINtB5_21StreamingDataPipelinepKpE12current_dataB9_
FNDA:0,_RNvMs2_NtNtCs1I4G5KWFz5n_15embedded_charts4data9streamingINtB5_21StreamingDataPipelinepKpE12source_countB9_
FNDA:0,_RNvMs2_NtNtCs1I4G5KWFz5n_15embedded_charts4data9streamingINtB5_21StreamingDataPipelinepKpE19get_current_time_usB9_
FNDA:0,_RNvMs2_NtNtCs1I4G5KWFz5n_15embedded_charts4data9streamingINtB5_21StreamingDataPipelinepKpE23update_pipeline_metricsB9_
FNDA:0,_RNvMs2_NtNtCs1I4G5KWFz5n_15embedded_charts4data9streamingINtB5_21StreamingDataPipelinepKpE3newB9_
FNDA:0,_RNvMs2_NtNtCs1I4G5KWFz5n_15embedded_charts4data9streamingINtB5_21StreamingDataPipelinepKpE6updateB9_
FNDA:0,_RNvMs2_NtNtCs1I4G5KWFz5n_15embedded_charts4data9streamingINtB5_21StreamingDataPipelinepKpE7metricsB9_
FNDA:0,_RNvMs4_NtNtCs1I4G5KWFz5n_15embedded_charts4data9streamingINtB5_19StreamingDataSourceKpE6configB9_
FNDA:0,_RNvMs4_NtNtCs1I4G5KWFz5n_15embedded_charts4data9streamingINtB5_19StreamingDataSourceKpE7metricsB9_
FNDA:0,_RNvMs7_NtNtCs1I4G5KWFz5n_15embedded_charts4data9streamingINtB5_21StreamingChartManagerKpE10sync_stateB9_
FNDA:0,_RNvMs_NtNtCs1I4G5KWFz5n_15embedded_charts4data9streamingINtB4_22UnifiedStreamingBufferKpE12memory_statsB8_
FNDA:0,_RNvMs_NtNtCs1I4G5KWFz5n_15embedded_charts4data9streamingINtB4_22UnifiedStreamingBufferKpE13update_configB8_
FNDA:0,_RNvMs_NtNtCs1I4G5KWFz5n_15embedded_charts4data9streamingINtB4_22UnifiedStreamingBufferKpE5clearB8_
FNDA:0,_RNvMs_NtNtCs1I4G5KWFz5n_15embedded_charts4data9streamingINtB4_22UnifiedStreamingBufferKpE6boundsB8_
FNDA:0,_RNvXININtNtCs1I4G5KWFz5n_15embedded_charts4data9streamings0_0KpEINtB5_22UnifiedStreamingBufferKpENtNtCs3XRySYX51hI_4core7default7Default7defaultB9_
FNDA:0,_RNvXININtNtCs1I4G5KWFz5n_15embedded_charts4data9streamings8_0KpEINtB5_21StreamingChartManagerKpENtNtCs3XRySYX51hI_4core7default7Default7defaultB9_
FNDA:0,_RNvXs1_NtNtCs1I4G5KWFz5n_15embedded_charts4data9streamingNtB5_14PipelineConfigNtNtCs3XRySYX51hI_4core7default7Default7default
FNDA:4,_RNvXNtNtCs1I4G5KWFz5n_15embedded_charts4data9streamingNtB2_15StreamingConfigNtNtCs3XRySYX51hI_4core7default7Default7default
FNDA:1,_RNvXs3_NtNtCs1I4G5KWFz5n_15embedded_charts4data9streamingNtB5_12SourceConfigNtNtCs3XRySYX51hI_4core7default7Default7default
FNDA:1,_RNvXs5_NtNtCs1I4G5KWFz5n_15embedded_charts4data9streamingNtB5_13ManagerConfigNtNtCs3XRySYX51hI_4core7default7Default7default
FNDA:1,_RNvXs6_NtNtCs1I4G5KWFz5n_15embedded_charts4data9streamingNtB5_19ChartInstanceConfigNtNtCs3XRySYX51hI_4core7default7Default7default
FNDA:0,_RNCNvMs7_NtNtCs1I4G5KWFz5n_15embedded_charts4data9streamingINtB7_21StreamingChartManagerKj5_E9add_chart0Bb_
FNDA:1,_RNvMs4_NtNtCs1I4G5KWFz5n_15embedded_charts4data9streamingINtB5_19StreamingDataSourceKj5_E11with_configB9_
FNDA:1,_RNvMs4_NtNtCs1I4G5KWFz5n_15embedded_charts4data9streamingINtB5_19StreamingDataSourceKj5_E14is_valid_pointB9_
FNDA:1,_RNvMs4_NtNtCs1I4G5KWFz5n_15embedded_charts4data9streamingINtB5_19StreamingDataSourceKj5_E2idB9_
FNDA:1,_RNvMs4_NtNtCs1I4G5KWFz5n_15embedded_charts4data9streamingINtB5_19StreamingDataSourceKj5_E3newB9_
FNDA:1,_RNvMs4_NtNtCs1I4G5KWFz5n_15embedded_charts4data9streamingINtB5_19StreamingDataSourceKj5_E4dataB9_
FNDA:2,_RNvMs4_NtNtCs1I4G5KWFz5n_15embedded_charts4data9streamingINtB5_19StreamingDataSourceKj5_E5stateB9_
FNDA:2,_RNvMs4_NtNtCs1I4G5KWFz5n_15embedded_charts4data9streamingINtB5_19StreamingDataSourceKj5_E6updateB9_
FNDA:1,_RNvMs4_NtNtCs1I4G5KWFz5n_15embedded_charts4data9streamingINtB5_19StreamingDataSourceKj5_E9set_stateB9_
FNDA:1,_RNvMs7_NtNtCs1I4G5KWFz5n_15embedded_charts4data9streamingINtB5_21StreamingChartManagerKj5_E11with_configB9_
FNDA:1,_RNvMs7_NtNtCs1I4G5KWFz5n_15embedded_charts4data9streamingINtB5_21StreamingChartManagerKj5_E17update_sync_stateB9_
FNDA:2,_RNvMs7_NtNtCs1I4G5KWFz5n_15embedded_charts4data9streamingINtB5_21StreamingChartManagerKj5_E18active_chart_countB9_
FNDA:3,_RNvMs7_NtNtCs1I4G5KWFz5n_15embedded_charts4data9streamingINtB5_21StreamingChartManagerKj5_E19get_current_time_msB9_
FNDA:2,_RNvMs7_NtNtCs1I4G5KWFz5n_15embedded_charts4data9streamingINtB5_21StreamingChartManagerKj5_E19get_current_time_usB9_
FNDA:1,_RNvMs7_NtNtCs1I4G5KWFz5n_15embedded_charts4data9streamingINtB5_21StreamingChartManagerKj5_E22update_manager_metricsB9_
FNDA:1,_RNvMs7_NtNtCs1I4G5KWFz5n_15embedded_charts4data9streamingINtB5_21StreamingChartManagerKj5_E3newB9_
FNDA:1,_RNvMs7_NtNtCs1I4G5KWFz5n_15embedded_charts4data9streamingINtB5_21StreamingChartManagerKj5_E6updateB9_
FNDA:1,_RNvMs7_NtNtCs1I4G5KWFz5n_15embedded_charts4data9streamingINtB5_21StreamingChartManagerKj5_E7metricsB9_
FNDA:1,_RNvMs7_NtNtCs1I4G5KWFz5n_15embedded_charts4data9streamingINtB5_21StreamingChartManagerKj5_E9add_chartB9_
FNDA:1,_RNvMs_NtNtCs1I4G5KWFz5n_15embedded_charts4data9streamingINtB4_22UnifiedStreamingBufferKj32_E11with_configB8_
FNDA:3,_RNvMs_NtNtCs1I4G5KWFz5n_15embedded_charts4data9streamingINtB4_22UnifiedStreamingBufferKj32_E6configB8_
FNDA:1,_RNvMs_NtNtCs1I4G5KWFz5n_15embedded_charts4data9streamingINtB4_22UnifiedStreamingBufferKj5_E11with_configB8_
FNDA:1,_RNvMs_NtNtCs1I4G5KWFz5n_15embedded_charts4data9streamingINtB4_22UnifiedStreamingBufferKj5_E13update_boundsB8_
FNDA:0,_RNvMs_NtNtCs1I4G5KWFz5n_15embedded_charts4data9streamingINtB4_22UnifiedStreamingBufferKj5_E14prune_old_dataB8_
FNDA:3,_RNvMs_NtNtCs1I4G5KWFz5n_15embedded_charts4data9streamingINtB4_22UnifiedStreamingBufferKj5_E19get_current_time_msB8_
FNDA:2,_RNvMs_NtNtCs1I4G5KWFz5n_15embedded_charts4data9streamingINtB4_22UnifiedStreamingBufferKj5_E19get_current_time_usB8_
FNDA:1,_RNvMs_NtNtCs1I4G5KWFz5n_15embedded_charts4data9streamingINtB4_22UnifiedStreamingBufferKj5_E19push_with_timestampB8_
FNDA:1,_RNvMs_NtNtCs1I4G5KWFz5n_15embedded_charts4data9streamingINtB4_22UnifiedStreamingBufferKj5_E21update_memory_metricsB8_
FNDA:1,_RNvMs_NtNtCs1I4G5KWFz5n_15embedded_charts4data9streamingINtB4_22UnifiedStreamingBufferKj5_E22update_latency_metricsB8_
FNDA:1,_RNvMs_NtNtCs1I4G5KWFz5n_15embedded_charts4data9streamingINtB4_22UnifiedStreamingBufferKj5_E4dataB8_
FNDA:1,_RNvMs_NtNtCs1I4G5KWFz5n_15embedded_charts4data9streamingINtB4_22UnifiedStreamingBufferKj5_E4pushB8_
FNDA:2,_RNvMs_NtNtCs1I4G5KWFz5n_15embedded_charts4data9streamingINtB4_22UnifiedStreamingBufferKja_E11with_configB8_
FNDA:7,_RNvMs_NtNtCs1I4G5KWFz5n_15embedded_charts4data9streamingINtB4_22UnifiedStreamingBufferKja_E13update_boundsB8_
FNDA:0,_RNvMs_NtNtCs1I4G5KWFz5n_15embedded_charts4data9streamingINtB4_22UnifiedStreamingBufferKja_E14prune_old_dataB8_
FNDA:21,_RNvMs_NtNtCs1I4G5KWFz5n_15embedded_charts4data9streamingINtB4_22UnifiedStreamingBufferKja_E19get_current_time_msB8_
FNDA:14,_RNvMs_NtNtCs1I4G5KWFz5n_15embedded_charts4data9streamingINtB4_22UnifiedStreamingBufferKja_E19get_current_time_usB8_
FNDA:7,_RNvMs_NtNtCs1I4G5KWFz5n_15embedded_charts4data9streamingINtB4_22UnifiedStreamingBufferKja_E19push_with_timestampB8_
FNDA:7,_RNvMs_NtNtCs1I4G5KWFz5n_15embedded_charts4data9streamingINtB4_22UnifiedStreamingBufferKja_E21update_memory_metricsB8_
FNDA:7,_RNvMs_NtNtCs1I4G5KWFz5n_15embedded_charts4data9streamingINtB4_22UnifiedStreamingBufferKja_E22update_latency_metricsB8_
FNDA:1,_RNvMs_NtNtCs1I4G5KWFz5n_15embedded_charts4data9streamingINtB4_22UnifiedStreamingBufferKja_E3lenB8_
FNDA:2,_RNvMs_NtNtCs1I4G5KWFz5n_15embedded_charts4data9streamingINtB4_22UnifiedStreamingBufferKja_E3newB8_
FNDA:1,_RNvMs_NtNtCs1I4G5KWFz5n_15embedded_charts4data9streamingINtB4_22UnifiedStreamingBufferKja_E4dataB8_
FNDA:7,_RNvMs_NtNtCs1I4G5KWFz5n_15embedded_charts4data9streamingINtB4_22UnifiedStreamingBufferKja_E4pushB8_
FNDA:1,_RNvMs_NtNtCs1I4G5KWFz5n_15embedded_charts4data9streamingINtB4_22UnifiedStreamingBufferKja_E7metricsB8_
FNDA:1,_RNvMs_NtNtCs1I4G5KWFz5n_15embedded_charts4data9streamingINtB4_22UnifiedStreamingBufferKja_E8capacityB8_
FNDA:2,_RNvMs_NtNtCs1I4G5KWFz5n_15embedded_charts4data9streamingINtB4_22UnifiedStreamingBufferKja_E8is_emptyB8_
FNF:64
FNH:42
DA:29,4
DA:30,4
DA:31,4
DA:32,4
DA:33,4
DA:34,4
DA:35,4
DA:36,4
DA:37,4
DA:38,4
DA:75,2
DA:76,2
DA:77,2
DA:80,4
DA:81,4
DA:82,4
DA:83,4
DA:84,4
DA:85,4
DA:86,4
DA:87,4
DA:88,4
DA:91,8
DA:92,8
DA:93,8
DA:94,8
DA:95,8
DA:96,0
DA:97,8
DA:100,8
DA:101,0
DA:102,8
DA:103,8
DA:104,8
DA:105,8
DA:106,8
DA:107,8
DA:108,8
DA:109,8
DA:110,8
DA:111,8
DA:114,8
DA:115,8
DA:116,8
DA:117,8
DA:118,8
DA:119,8
DA:120,8
DA:123,8
DA:124,8
DA:125,8
DA:126,8
DA:129,2
DA:130,2
DA:131,2
DA:134,1
DA:135,1
DA:136,1
DA:139,2
DA:140,2
DA:141,2
DA:144,0
DA:145,0
DA:146,0
DA:147,0
DA:148,0
DA:151,1
DA:152,1
DA:153,1
DA:156,0
DA:157,0
DA:158,0
DA:161,1
DA:162,1
DA:163,1
DA:166,0
DA:167,0
DA:168,0
DA:171,0
DA:172,0
DA:173,0
DA:176,3
DA:177,3
DA:178,3
DA:181,0
DA:182,0
DA:183,0
DA:184,0
DA:185,0
DA:186,0
DA:187,0
DA:188,0
DA:189,0
DA:192,8
DA:193,8
DA:194,8
DA:195,8
DA:196,8
DA:199,8
DA:200,8
DA:201,8
DA:202,3
DA:203,5
DA:204,5
DA:205,5
DA:206,8
DA:209,8
DA:210,8
DA:211,8
DA:212,8
DA:213,8
DA:214,8
DA:217,24
DA:218,24
DA:219,24
DA:220,24
DA:221,24
DA:224,16
DA:225,16
DA:226,16
DA:227,16
DA:231,0
DA:232,0
DA:233,0
DA:299,0
DA:300,0
DA:301,0
DA:302,0
DA:303,0
DA:304,0
DA:305,0
DA:306,0
DA:311,0
DA:312,0
DA:313,0
DA:316,0
DA:317,0
DA:318,0
DA:319,0
DA:320,0
DA:321,0
DA:322,0
DA:323,0
DA:326,0
DA:327,0
DA:328,0
DA:329,0
DA:330,0
DA:331,0
DA:332,0
DA:333,0
DA:334,0
DA:336,0
DA:337,0
DA:340,0
DA:341,0
DA:342,0
DA:343,0
DA:344,0
DA:345,0
DA:346,0
DA:347,0
DA:350,0
DA:351,0
DA:352,0
DA:353,0
DA:355,0
DA:356,0
DA:359,0
DA:360,0
DA:361,0
DA:364,0
DA:365,0
DA:366,0
DA:369,0
DA:370,0
DA:371,0
DA:374,0
DA:375,0
DA:376,0
DA:377,0
DA:378,0
DA:379,0
DA:380,0
DA:381,0
DA:382,0
DA:385,0
DA:386,0
DA:387,0
DA:388,0
DA:430,1
DA:431,1
DA:432,1
DA:433,1
DA:434,1
DA:435,1
DA:436,1
DA:437,1
DA:442,1
DA:443,1
DA:444,1
DA:447,1
DA:448,1
DA:449,1
DA:450,1
DA:451,1
DA:452,1
DA:453,1
DA:454,1
DA:455,1
DA:456,1
DA:457,1
DA:458,1
DA:459,1
DA:462,2
DA:463,2
DA:464,1
DA:465,1
DA:466,1
DA:467,1
DA:468,1
DA:469,0
DA:470,1
DA:471,1
DA:472,1
DA:473,2
DA:476,1
DA:477,1
DA:478,1
DA:481,1
DA:482,1
DA:483,1
DA:486,2
DA:487,2
DA:488,2
DA:491,1
DA:492,1
DA:493,1
DA:496,0
DA:497,0
DA:498,0
DA:501,0
DA:502,0
DA:503,0
DA:506,1
DA:507,1
DA:508,1
DA:509,1
DA:625,1
DA:626,1
DA:627,1
DA:628,1
DA:629,1
DA:630,1
DA:631,1
DA:632,1
DA:636,1
DA:637,1
DA:638,1
DA:639,1
DA:640,1
DA:641,1
DA:642,1
DA:647,1
DA:648,1
DA:649,1
DA:652,1
DA:653,1
DA:654,1
DA:655,1
DA:656,1
DA:657,1
DA:658,1
DA:659,1
DA:662,1
DA:663,1
DA:664,1
DA:665,1
DA:666,1
DA:667,1
DA:668,1
DA:669,0
DA:670,1
DA:671,1
DA:672,1
DA:673,1
DA:674,1
DA:675,1
DA:676,1
DA:677,1
DA:678,1
DA:679,1
DA:680,1
DA:681,1
DA:682,1
DA:684,1
DA:685,1
DA:686,1
DA:687,1
DA:688,1
DA:691,1
DA:692,1
DA:693,1
DA:694,1
DA:695,1
DA:696,1
DA:697,0
DA:700,1
DA:701,1
DA:702,1
DA:703,1
DA:704,1
DA:705,1
DA:706,1
DA:708,1
DA:709,1
DA:712,1
DA:713,1
DA:714,1
DA:717,2
DA:718,2
DA:719,2
DA:722,0
DA:723,0
DA:724,0
DA:727,1
DA:728,1
DA:729,1
DA:730,1
DA:731,1
DA:734,1
DA:735,1
DA:736,1
DA:737,1
DA:738,1
DA:739,0
DA:740,0
DA:741,0
DA:742,1
DA:745,3
DA:746,3
DA:747,3
DA:750,2
DA:751,2
DA:752,2
DA:756,0
DA:757,0
DA:758,0
DA:766,1
DA:767,1
DA:768,1
DA:769,1
DA:772,1
DA:773,1
DA:774,1
DA:775,1
DA:776,1
DA:779,1
DA:780,1
DA:781,1
DA:784,1
DA:785,1
DA:786,1
DA:787,1
DA:790,1
DA:791,1
DA:794,1
DA:795,1
DA:798,1
DA:799,1
DA:800,1
DA:803,1
DA:804,1
DA:805,1
DA:808,1
DA:809,1
DA:810,1
DA:811,1
DA:812,1
DA:813,1
DA:816,1
DA:817,1
DA:818,1
DA:821,1
DA:822,1
DA:823,1
DA:824,1
DA:825,1
DA:826,1
DA:827,1
DA:828,1
DA:829,1
DA:830,1
DA:831,1
DA:832,1
DA:833,1
DA:836,1
DA:837,1
DA:840,6
DA:841,5
DA:842,5
DA:844,1
DA:845,1
DA:846,1
DA:847,1
BRF:0
BRH:0
LF:407
LH:293
end_of_record
SF:/home/tasuku/com/github/signal-slot/embedded-charts/src/error.rs
FN:93,_RNvMNtCs1I4G5KWFz5n_15embedded_charts5errorNtB2_12ErrorContext3new
FN:323,_RNvMs_NtCs1I4G5KWFz5n_15embedded_charts5errorNtB4_9DataError18invalid_data_point
FN:308,_RNvMs_NtCs1I4G5KWFz5n_15embedded_charts5errorNtB4_9DataError19index_out_of_bounds
FN:333,_RNvMs_NtCs1I4G5KWFz5n_15embedded_charts5errorNtB4_9DataError6simple
FN:554,_RNvXs1_NtCs1I4G5KWFz5n_15embedded_charts5errorNtB5_9DataErrorINtNtCs3XRySYX51hI_4core7convert4FromReE4from
FN:569,_RNvXs3_NtCs1I4G5KWFz5n_15embedded_charts5errorNtB5_10ChartErrorINtNtCs3XRySYX51hI_4core7convert4FromNtB5_14AnimationErrorE4from
FN:575,_RNvXs4_NtCs1I4G5KWFz5n_15embedded_charts5errorNtB5_10ChartErrorINtNtCs3XRySYX51hI_4core7convert4FromNtB5_11LayoutErrorE4from
FN:581,_RNvXs5_NtCs1I4G5KWFz5n_15embedded_charts5errorNtB5_10ChartErrorINtNtCs3XRySYX51hI_4core7convert4FromNtB5_11RenderErrorE4from
FN:605,_RNvXs6_NtCs1I4G5KWFz5n_15embedded_charts5errorNtB5_10ChartErrorNtNtCs3XRySYX51hI_4core5error5Error6source
FN:632,_RNvXsb_NtCs1I4G5KWFz5n_15embedded_charts5errorNtB5_10ChartErrorNtNtCs3XRySYX51hI_4core3fmt7Display3fmt
FN:651,_RNvXsc_NtCs1I4G5KWFz5n_15embedded_charts5errorNtB5_9DataErrorNtNtCs3XRySYX51hI_4core3fmt7Display3fmt
FN:710,_RNvXsd_NtCs1I4G5KWFz5n_15embedded_charts5errorNtB5_14AnimationErrorNtNtCs3XRySYX51hI_4core3fmt7Display3fmt
FN:724,_RNvXse_NtCs1I4G5KWFz5n_15embedded_charts5errorNtB5_11LayoutErrorNtNtCs3XRySYX51hI_4core3fmt7Display3fmt
FN:734,_RNvXsf_NtCs1I4G5KWFz5n_15embedded_charts5errorNtB5_11RenderErrorNtNtCs3XRySYX51hI_4core3fmt7Display3fmt
FN:102,_RNvMNtCs1I4G5KWFz5n_15embedded_charts5errorNtB2_12ErrorContext12with_numeric
FN:282,_RNvMs_NtCs1I4G5KWFz5n_15embedded_charts5errorNtB4_9DataError11buffer_full
FN:293,_RNvMs_NtCs1I4G5KWFz5n_15embedded_charts5errorNtB4_9DataError17insufficient_data
FN:562,_RNvXs2_NtCs1I4G5KWFz5n_15embedded_charts5errorNtB5_10ChartErrorINtNtCs3XRySYX51hI_4core7convert4FromNtB5_9DataErrorE4from
FNDA:0,_RNvMNtCs1I4G5KWFz5n_15embedded_charts5errorNtB2_12ErrorContext3new
FNDA:0,_RNvMs_NtCs1I4G5KWFz5n_15embedded_charts5errorNtB4_9DataError18invalid_data_point
FNDA:0,_RNvMs_NtCs1I4G5KWFz5n_15embedded_charts5errorNtB4_9DataError19index_out_of_bounds
FNDA:0,_RNvMs_NtCs1I4G5KWFz5n_15embedded_charts5errorNtB4_9DataError6simple
FNDA:0,_RNvXs1_NtCs1I4G5KWFz5n_15embedded_charts5errorNtB5_9DataErrorINtNtCs3XRySYX51hI_4core7convert4FromReE4from
FNDA:0,_RNvXs3_NtCs1I4G5KWFz5n_15embedded_charts5errorNtB5_10ChartErrorINtNtCs3XRySYX51hI_4core7convert4FromNtB5_14AnimationErrorE4from
FNDA:0,_RNvXs4_NtCs1I4G5KWFz5n_15embedded_charts5errorNtB5_10ChartErrorINtNtCs3XRySYX51hI_4core7convert4FromNtB5_11LayoutErrorE4from
FNDA:0,_RNvXs5_NtCs1I4G5KWFz5n_15embedded_charts5errorNtB5_10ChartErrorINtNtCs3XRySYX51hI_4core7convert4FromNtB5_11RenderErrorE4from
FNDA:0,_RNvXs6_NtCs1I4G5KWFz5n_15embedded_charts5errorNtB5_10ChartErrorNtNtCs3XRySYX51hI_4core5error5Error6source
FNDA:0,_RNvXsb_NtCs1I4G5KWFz5n_15embedded_charts5errorNtB5_10ChartErrorNtNtCs3XRySYX51hI_4core3fmt7Display3fmt
FNDA:0,_RNvXsc_NtCs1I4G5KWFz5n_15embedded_charts5errorNtB5_9DataErrorNtNtCs3XRySYX51hI_4core3fmt7Display3fmt
FNDA:0,_RNvXsd_NtCs1I4G5KWFz5n_15embedded_charts5errorNtB5_14AnimationErrorNtNtCs3XRySYX51hI_4core3fmt7Display3fmt
FNDA:0,_RNvXse_NtCs1I4G5KWFz5n_15embedded_charts5errorNtB5_11LayoutErrorNtNtCs3XRySYX51hI_4core3fmt7Display3fmt
FNDA:0,_RNvXsf_NtCs1I4G5KWFz5n_15embedded_charts5errorNtB5_11RenderErrorNtNtCs3XRySYX51hI_4core3fmt7Display3fmt
FNDA:1,_RNvMNtCs1I4G5KWFz5n_15embedded_charts5errorNtB2_12ErrorContext12with_numeric
FNDA:1,_RNvMs_NtCs1I4G5KWFz5n_15embedded_charts5errorNtB4_9DataError11buffer_full
FNDA:0,_RNvMs_NtCs1I4G5KWFz5n_15embedded_charts5errorNtB4_9DataError17insufficient_data
FNDA:0,_RNvXs2_NtCs1I4G5KWFz5n_15embedded_charts5errorNtB5_10ChartErrorINtNtCs3XRySYX51hI_4core7convert4FromNtB5_9DataErrorE4from
FNF:18
FNH:2
DA:93,0
DA:94,0
DA:95,0
DA:96,0
DA:97,0
DA:98,0
DA:99,0
DA:102,1
DA:103,1
DA:104,1
DA:105,1
DA:106,1
DA:107,1
DA:108,1
DA:282,1
DA:283,1
DA:284,1
DA:285,1
DA:286,1
DA:287,1
DA:288,1
DA:289,1
DA:290,1
DA:293,0
DA:294,0
DA:295,0
DA:296,0
DA:297,0
DA:298,0
DA:299,0
DA:300,0
DA:301,0
DA:302,0
DA:303,0
DA:304,0
DA:305,0
DA:308,0
DA:309,0
DA:310,0
DA:311,0
DA:312,0
DA:313,0
DA:314,0
DA:315,0
DA:316,0
DA:317,0
DA:318,0
DA:319,0
DA:320,0
DA:323,0
DA:324,0
DA:325,0
DA:326,0
DA:327,0
DA:328,0
DA:329,0
DA:330,0
DA:333,0
DA:334,0
DA:335,0
DA:336,0
DA:337,0
DA:338,0
DA:339,0
DA:340,0
DA:342,0
DA:554,0
DA:555,0
DA:556,0
DA:557,0
DA:558,0
DA:562,0
DA:563,0
DA:564,0
DA:569,0
DA:570,0
DA:571,0
DA:575,0
DA:576,0
DA:577,0
DA:581,0
DA:582,0
DA:583,0
DA:605,0
DA:606,0
DA:607,0
DA:608,0
DA:609,0
DA:611,0
DA:612,0
DA:614,0
DA:632,0
DA:633,0
DA:634,0
DA:635,0
DA:636,0
DA:637,0
DA:638,0
DA:639,0
DA:640,0
DA:641,0
DA:642,0
DA:643,0
DA:645,0
DA:647,0
DA:651,0
DA:652,0
DA:653,0
DA:654,0
DA:655,0
DA:656,0
DA:657,0
DA:658,0
DA:660,0
DA:661,0
DA:662,0
DA:663,0
DA:664,0
DA:665,0
DA:666,0
DA:667,0
DA:668,0
DA:670,0
DA:671,0
DA:672,0
DA:673,0
DA:674,0
DA:675,0
DA:677,0
DA:678,0
DA:679,0
DA:680,0
DA:681,0
DA:682,0
DA:684,0
DA:685,0
DA:686,0
DA:687,0
DA:688,0
DA:689,0
DA:690,0
DA:691,0
DA:692,0
DA:694,0
DA:695,0
DA:696,0
DA:697,0
DA:698,0
DA:699,0
DA:700,0
DA:701,0
DA:702,0
DA:705,0
DA:710,0
DA:711,0
DA:712,0
DA:714,0
DA:716,0
DA:717,0
DA:718,0
DA:720,0
DA:724,0
DA:725,0
DA:726,0
DA:727,0
DA:728,0
DA:730,0
DA:734,0
DA:735,0
DA:736,0
DA:737,0
DA:738,0
DA:739,0
DA:741,0
BRF:0
BRH:0
LF:174
LH:16
end_of_record
SF:/home/tasuku/com/github/signal-slot/embedded-charts/src/fluent.rs
FN:111,_RINvMNtCs1I4G5KWFz5n_15embedded_charts6fluentNtB3_5Chart3barpEB5_
FN:464,_RINvNtNtCs1I4G5KWFz5n_15embedded_charts6fluent5quick19embedded_line_chartpEB6_
FN:440,_RINvNtNtCs1I4G5KWFz5n_15embedded_charts6fluent5quick23professional_line_chartpEB6_
FN:455,_RINvNtNtCs1I4G5KWFz5n_15embedded_charts6fluent5quick9bar_chartpEB6_
FN:323,_RNCNvMs0_NtCs1I4G5KWFz5n_15embedded_charts6fluentINtB7_21FluentBarChartBuilderpE16data_from_tuples0B9_
FN:321,_RNvMs0_NtCs1I4G5KWFz5n_15embedded_charts6fluentINtB5_21FluentBarChartBuilderpE16data_from_tuplesB7_
FN:375,_RNvMs0_NtCs1I4G5KWFz5n_15embedded_charts6fluentINtB5_21FluentBarChartBuilderpE27apply_preset_to_bar_builderB7_
FN:310,_RNvMs0_NtCs1I4G5KWFz5n_15embedded_charts6fluentINtB5_21FluentBarChartBuilderpE3newB7_
FN:355,_RNvMs0_NtCs1I4G5KWFz5n_15embedded_charts6fluentINtB5_21FluentBarChartBuilderpE5buildB7_
FN:329,_RNvMs0_NtCs1I4G5KWFz5n_15embedded_charts6fluentINtB5_21FluentBarChartBuilderpE5colorB7_
FN:335,_RNvMs0_NtCs1I4G5KWFz5n_15embedded_charts6fluentINtB5_21FluentBarChartBuilderpE5titleB7_
FN:343,_RNvMs0_NtCs1I4G5KWFz5n_15embedded_charts6fluentINtB5_21FluentBarChartBuilderpE6presetB7_
FN:349,_RNvMs0_NtCs1I4G5KWFz5n_15embedded_charts6fluentINtB5_21FluentBarChartBuilderpE9bar_widthB7_
FN:197,_RNvMs_NtCs1I4G5KWFz5n_15embedded_charts6fluentINtB4_22FluentLineChartBuilderpE10line_widthB6_
FN:209,_RNvMs_NtCs1I4G5KWFz5n_15embedded_charts6fluentINtB4_22FluentLineChartBuilderpE11marker_sizeB6_
FN:518,_RNvNtNtCs1I4G5KWFz5n_15embedded_charts6fluent5testss_17test_multi_series
FN:498,_RNvNtNtCs1I4G5KWFz5n_15embedded_charts6fluent5testss_21test_quick_line_chart
FN:484,_RNvNtNtCs1I4G5KWFz5n_15embedded_charts6fluent5testss_22test_fluent_line_chart
FN:506,_RNvNtNtCs1I4G5KWFz5n_15embedded_charts6fluent5testss_24test_professional_preset
FN:431,_RINvNtNtCs1I4G5KWFz5n_15embedded_charts6fluent5quick10line_chartNtNtNtCshH4H1wHMe2V_22embedded_graphics_core10pixelcolor9rgb_color6Rgb565EB6_
FN:102,_RINvMNtCs1I4G5KWFz5n_15embedded_charts6fluentNtB3_5Chart4lineNtNtNtCshH4H1wHMe2V_22embedded_graphics_core10pixelcolor9rgb_color6Rgb565EB5_
FN:153,_RNCNvMs_NtCs1I4G5KWFz5n_15embedded_charts6fluentINtB6_22FluentLineChartBuilderNtNtNtCshH4H1wHMe2V_22embedded_graphics_core10pixelcolor9rgb_color6Rgb565E16data_from_tuples0B8_
FN:239,_RNCNvMs_NtCs1I4G5KWFz5n_15embedded_charts6fluentINtB6_22FluentLineChartBuilderNtNtNtCshH4H1wHMe2V_22embedded_graphics_core10pixelcolor9rgb_color6Rgb565E5build0B8_
FN:203,_RNvMs_NtCs1I4G5KWFz5n_15embedded_charts6fluentINtB4_22FluentLineChartBuilderNtNtNtCshH4H1wHMe2V_22embedded_graphics_core10pixelcolor9rgb_color6Rgb565E12with_markersB6_
FN:151,_RNvMs_NtCs1I4G5KWFz5n_15embedded_charts6fluentINtB4_22FluentLineChartBuilderNtNtNtCshH4H1wHMe2V_22embedded_graphics_core10pixelcolor9rgb_color6Rgb565E16data_from_tuplesB6_
FN:248,_RNvMs_NtCs1I4G5KWFz5n_15embedded_charts6fluentINtB4_22FluentLineChartBuilderNtNtNtCshH4H1wHMe2V_22embedded_graphics_core10pixelcolor9rgb_color6Rgb565E28apply_preset_to_line_builderB6_
FN:137,_RNvMs_NtCs1I4G5KWFz5n_15embedded_charts6fluentINtB4_22FluentLineChartBuilderNtNtNtCshH4H1wHMe2V_22embedded_graphics_core10pixelcolor9rgb_color6Rgb565E3newB6_
FN:216,_RNvMs_NtCs1I4G5KWFz5n_15embedded_charts6fluentINtB4_22FluentLineChartBuilderNtNtNtCshH4H1wHMe2V_22embedded_graphics_core10pixelcolor9rgb_color6Rgb565E5buildB6_
FN:177,_RNvMs_NtCs1I4G5KWFz5n_15embedded_charts6fluentINtB4_22FluentLineChartBuilderNtNtNtCshH4H1wHMe2V_22embedded_graphics_core10pixelcolor9rgb_color6Rgb565E5colorB6_
FN:183,_RNvMs_NtCs1I4G5KWFz5n_15embedded_charts6fluentINtB4_22FluentLineChartBuilderNtNtNtCshH4H1wHMe2V_22embedded_graphics_core10pixelcolor9rgb_color6Rgb565E5titleB6_
FN:191,_RNvMs_NtCs1I4G5KWFz5n_15embedded_charts6fluentINtB4_22FluentLineChartBuilderNtNtNtCshH4H1wHMe2V_22embedded_graphics_core10pixelcolor9rgb_color6Rgb565E6presetB6_
FN:159,_RNvMs_NtCs1I4G5KWFz5n_15embedded_charts6fluentINtB4_22FluentLineChartBuilderNtNtNtCshH4H1wHMe2V_22embedded_graphics_core10pixelcolor9rgb_color6Rgb565E6seriesB6_
FNDA:0,_RINvMNtCs1I4G5KWFz5n_15embedded_charts6fluentNtB3_5Chart3barpEB5_
FNDA:0,_RINvNtNtCs1I4G5KWFz5n_15embedded_charts6fluent5quick19embedded_line_chartpEB6_
FNDA:0,_RINvNtNtCs1I4G5KWFz5n_15embedded_charts6fluent5quick23professional_line_chartpEB6_
FNDA:0,_RINvNtNtCs1I4G5KWFz5n_15embedded_charts6fluent5quick9bar_chartpEB6_
FNDA:0,_RNCNvMs0_NtCs1I4G5KWFz5n_15embedded_charts6fluentINtB7_21FluentBarChartBuilderpE16data_from_tuples0B9_
FNDA:0,_RNvMs0_NtCs1I4G5KWFz5n_15embedded_charts6fluentINtB5_21FluentBarChartBuilderpE16data_from_tuplesB7_
FNDA:0,_RNvMs0_NtCs1I4G5KWFz5n_15embedded_charts6fluentINtB5_21FluentBarChartBuilderpE27apply_preset_to_bar_builderB7_
FNDA:0,_RNvMs0_NtCs1I4G5KWFz5n_15embedded_charts6fluentINtB5_21FluentBarChartBuilderpE3newB7_
FNDA:0,_RNvMs0_NtCs1I4G5KWFz5n_15embedded_charts6fluentINtB5_21FluentBarChartBuilderpE5buildB7_
FNDA:0,_RNvMs0_NtCs1I4G5KWFz5n_15embedded_charts6fluentINtB5_21FluentBarChartBuilderpE5colorB7_
FNDA:0,_RNvMs0_NtCs1I4G5KWFz5n_15embedded_charts6fluentINtB5_21FluentBarChartBuilderpE5titleB7_
FNDA:0,_RNvMs0_NtCs1I4G5KWFz5n_15embedded_charts6fluentINtB5_21FluentBarChartBuilderpE6presetB7_
FNDA:0,_RNvMs0_NtCs1I4G5KWFz5n_15embedded_charts6fluentINtB5_21FluentBarChartBuilderpE9bar_widthB7_
FNDA:0,_RNvMs_NtCs1I4G5KWFz5n_15embedded_charts6fluentINtB4_22FluentLineChartBuilderpE10line_widthB6_
FNDA:0,_RNvMs_NtCs1I4G5KWFz5n_15embedded_charts6fluentINtB4_22FluentLineChartBuilderpE11marker_sizeB6_
FNDA:1,_RNvNtNtCs1I4G5KWFz5n_15embedded_charts6fluent5testss_17test_multi_series
FNDA:1,_RNvNtNtCs1I4G5KWFz5n_15embedded_charts6fluent5testss_21test_quick_line_chart
FNDA:1,_RNvNtNtCs1I4G5KWFz5n_15embedded_charts6fluent5testss_22test_fluent_line_chart
FNDA:1,_RNvNtNtCs1I4G5KWFz5n_15embedded_charts6fluent5testss_24test_professional_preset
FNDA:1,_RINvNtNtCs1I4G5KWFz5n_15embedded_charts6fluent5quick10line_chartNtNtNtCshH4H1wHMe2V_22embedded_graphics_core10pixelcolor9rgb_color6Rgb565EB6_
FNDA:4,_RINvMNtCs1I4G5KWFz5n_15embedded_charts6fluentNtB3_5Chart4lineNtNtNtCshH4H1wHMe2V_22embedded_graphics_core10pixelcolor9rgb_color6Rgb565EB5_
FNDA:0,_RNCNvMs_NtCs1I4G5KWFz5n_15embedded_charts6fluentINtB6_22FluentLineChartBuilderNtNtNtCshH4H1wHMe2V_22embedded_graphics_core10pixelcolor9rgb_color6Rgb565E16data_from_tuples0B8_
FNDA:0,_RNCNvMs_NtCs1I4G5KWFz5n_15embedded_charts6fluentINtB6_22FluentLineChartBuilderNtNtNtCshH4H1wHMe2V_22embedded_graphics_core10pixelcolor9rgb_color6Rgb565E5build0B8_
FNDA:1,_RNvMs_NtCs1I4G5KWFz5n_15embedded_charts6fluentINtB4_22FluentLineChartBuilderNtNtNtCshH4H1wHMe2V_22embedded_graphics_core10pixelcolor9rgb_color6Rgb565E12with_markersB6_
FNDA:3,_RNvMs_NtCs1I4G5KWFz5n_15embedded_charts6fluentINtB4_22FluentLineChartBuilderNtNtNtCshH4H1wHMe2V_22embedded_graphics_core10pixelcolor9rgb_color6Rgb565E16data_from_tuplesB6_
FNDA:2,_RNvMs_NtCs1I4G5KWFz5n_15embedded_charts6fluentINtB4_22FluentLineChartBuilderNtNtNtCshH4H1wHMe2V_22embedded_graphics_core10pixelcolor9rgb_color6Rgb565E28apply_preset_to_line_builderB6_
FNDA:4,_RNvMs_NtCs1I4G5KWFz5n_15embedded_charts6fluentINtB4_22FluentLineChartBuilderNtNtNtCshH4H1wHMe2V_22embedded_graphics_core10pixelcolor9rgb_color6Rgb565E3newB6_
FNDA:4,_RNvMs_NtCs1I4G5KWFz5n_15embedded_charts6fluentINtB4_22FluentLineChartBuilderNtNtNtCshH4H1wHMe2V_22embedded_graphics_core10pixelcolor9rgb_color6Rgb565E5buildB6_
FNDA:1,_RNvMs_NtCs1I4G5KWFz5n_15embedded_charts6fluentINtB4_22FluentLineChartBuilderNtNtNtCshH4H1wHMe2V_22embedded_graphics_core10pixelcolor9rgb_color6Rgb565E5colorB6_
FNDA:1,_RNvMs_NtCs1I4G5KWFz5n_15embedded_charts6fluentINtB4_22FluentLineChartBuilderNtNtNtCshH4H1wHMe2V_22embedded_graphics_core10pixelcolor9rgb_color6Rgb565E5titleB6_
FNDA:2,_RNvMs_NtCs1I4G5KWFz5n_15embedded_charts6fluentINtB4_22FluentLineChartBuilderNtNtNtCshH4H1wHMe2V_22embedded_graphics_core10pixelcolor9rgb_color6Rgb565E6presetB6_
FNDA:2,_RNvMs_NtCs1I4G5KWFz5n_15embedded_charts6fluentINtB4_22FluentLineChartBuilderNtNtNtCshH4H1wHMe2V_22embedded_graphics_core10pixelcolor9rgb_color6Rgb565E6seriesB6_
FNF:32
FNH:15
DA:102,4
DA:103,4
DA:104,4
DA:105,4
DA:106,4
DA:107,4
DA:111,0
DA:112,0
DA:113,0
DA:114,0
DA:115,0
DA:116,0
DA:137,4
DA:138,4
DA:139,4
DA:140,4
DA:141,4
DA:142,4
DA:143,4
DA:144,4
DA:145,4
DA:146,4
DA:147,4
DA:148,4
DA:151,3
DA:152,3
DA:153,3
DA:154,3
DA:155,3
DA:156,3
DA:159,2
DA:160,2
DA:161,1
DA:162,1
DA:164,2
DA:165,2
DA:166,6
DA:167,4
DA:168,0
DA:169,4
DA:171,2
DA:172,0
DA:173,2
DA:174,2
DA:177,1
DA:178,1
DA:179,1
DA:180,1
DA:183,1
DA:184,1
DA:185,1
DA:186,1
DA:187,1
DA:188,1
DA:191,2
DA:192,2
DA:193,2
DA:194,2
DA:197,0
DA:198,0
DA:199,0
DA:200,0
DA:203,1
DA:204,1
DA:205,1
DA:206,1
DA:209,0
DA:210,0
DA:211,0
DA:212,0
DA:213,0
DA:216,4
DA:217,4
DA:220,4
DA:221,2
DA:222,2
DA:225,4
DA:226,1
DA:227,3
DA:229,4
DA:230,0
DA:231,4
DA:233,4
DA:234,1
DA:235,1
DA:236,1
DA:237,1
DA:238,1
DA:239,1
DA:242,1
DA:243,3
DA:245,4
DA:246,4
DA:248,2
DA:249,2
DA:250,2
DA:251,2
DA:252,2
DA:253,2
DA:254,1
DA:255,1
DA:256,1
DA:257,1
DA:258,1
DA:259,1
DA:260,1
DA:261,1
DA:262,0
DA:263,0
DA:264,0
DA:265,0
DA:266,1
DA:267,1
DA:268,1
DA:269,1
DA:270,1
DA:271,1
DA:272,1
DA:273,1
DA:274,0
DA:275,0
DA:276,0
DA:277,0
DA:278,0
DA:279,0
DA:280,0
DA:281,0
DA:282,0
DA:283,0
DA:284,0
DA:285,0
DA:286,0
DA:287,0
DA:288,0
DA:289,0
DA:291,2
DA:292,2
DA:310,0
DA:311,0
DA:312,0
DA:313,0
DA:314,0
DA:315,0
DA:316,0
DA:317,0
DA:318,0
DA:321,0
DA:322,0
DA:323,0
DA:324,0
DA:325,0
DA:326,0
DA:329,0
DA:330,0
DA:331,0
DA:332,0
DA:335,0
DA:336,0
DA:337,0
DA:338,0
DA:339,0
DA:340,0
DA:343,0
DA:344,0
DA:345,0
DA:346,0
DA:349,0
DA:350,0
DA:351,0
DA:352,0
DA:355,0
DA:356,0
DA:359,0
DA:360,0
DA:361,0
DA:364,0
DA:365,0
DA:366,0
DA:368,0
DA:369,0
DA:370,0
DA:372,0
DA:373,0
DA:375,0
DA:376,0
DA:377,0
DA:378,0
DA:379,0
DA:380,0
DA:381,0
DA:382,0
DA:383,0
DA:384,0
DA:385,0
DA:386,0
DA:387,0
DA:388,0
DA:389,0
DA:390,0
DA:391,0
DA:392,0
DA:393,0
DA:394,0
DA:395,0
DA:396,0
DA:397,0
DA:398,0
DA:399,0
DA:400,0
DA:401,0
DA:402,0
DA:403,0
DA:404,0
DA:405,0
DA:406,0
DA:407,0
DA:408,0
DA:409,0
DA:410,0
DA:411,0
DA:412,0
DA:413,0
DA:414,0
DA:415,0
DA:416,0
DA:418,0
DA:419,0
DA:431,1
DA:432,1
DA:433,1
DA:434,1
DA:435,1
DA:436,1
DA:440,0
DA:441,0
DA:442,0
DA:443,0
DA:444,0
DA:445,0
DA:446,0
DA:447,0
DA:448,0
DA:449,0
DA:450,0
DA:451,0
DA:455,0
DA:456,0
DA:457,0
DA:458,0
DA:459,0
DA:460,0
DA:464,0
DA:465,0
DA:466,0
DA:467,0
DA:468,0
DA:469,0
DA:470,0
DA:471,0
DA:472,0
DA:484,1
DA:485,1
DA:486,1
DA:487,1
DA:488,1
DA:489,1
DA:490,1
DA:491,1
DA:492,1
DA:493,1
DA:494,1
DA:498,1
DA:499,1
DA:500,1
DA:501,1
DA:502,1
DA:506,1
DA:507,1
DA:508,1
DA:509,1
DA:510,1
DA:511,1
DA:512,1
DA:513,1
DA:514,1
DA:518,1
DA:519,1
DA:520,1
DA:521,1
DA:522,1
DA:523,1
DA:524,1
DA:525,1
DA:526,1
BRF:0
BRH:0
LF:297
LH:139
end_of_record
SF:/home/tasuku/com/github/signal-slot/embedded-charts/src/grid/builder.rs
FN:498,_RNvNtNtNtCs1I4G5KWFz5n_15embedded_charts4grid7builder5testss_17test_grid_builder
FN:548,_RNvNtNtNtCs1I4G5KWFz5n_15embedded_charts4grid7builder5testss_17test_preset_grids
FN:532,_RNvNtNtNtCs1I4G5KWFz5n_15embedded_charts4grid7builder5testss_24test_custom_grid_builder
FN:511,_RNvNtNtNtCs1I4G5KWFz5n_15embedded_charts4grid7builder5testss_24test_linear_grid_builder
FN:522,_RNvNtNtNtCs1I4G5KWFz5n_15embedded_charts4grid7builder5testss_28test_tick_based_grid_builder
FN:146,_RNvMNtNtCs1I4G5KWFz5n_15embedded_charts4grid7builderINtB2_11GridBuilderpE10major_gridB6_
FN:152,_RNvMNtNtCs1I4G5KWFz5n_15embedded_charts4grid7builderINtB2_11GridBuilderpE10minor_gridB6_
FN:128,_RNvMNtNtCs1I4G5KWFz5n_15embedded_charts4grid7builderINtB2_11GridBuilderpE10visibilityB6_
FN:96,_RNvMNtNtCs1I4G5KWFz5n_15embedded_charts4grid7builderINtB2_11GridBuilderpE15vertical_customB6_
FN:88,_RNvMNtNtCs1I4G5KWFz5n_15embedded_charts4grid7builderINtB2_11GridBuilderpE17horizontal_customB6_
FN:64,_RNvMNtNtCs1I4G5KWFz5n_15embedded_charts4grid7builderINtB2_11GridBuilderpE23vertical_tick_based_f32B6_
FN:80,_RNvMNtNtCs1I4G5KWFz5n_15embedded_charts4grid7builderINtB2_11GridBuilderpE23vertical_tick_based_i32B6_
FN:56,_RNvMNtNtCs1I4G5KWFz5n_15embedded_charts4grid7builderINtB2_11GridBuilderpE25horizontal_tick_based_f32B6_
FN:72,_RNvMNtNtCs1I4G5KWFz5n_15embedded_charts4grid7builderINtB2_11GridBuilderpE25horizontal_tick_based_i32B6_
FN:104,_RNvMNtNtCs1I4G5KWFz5n_15embedded_charts4grid7builderINtB2_11GridBuilderpE5styleB6_
FN:134,_RNvMNtNtCs1I4G5KWFz5n_15embedded_charts4grid7builderINtB2_11GridBuilderpE7enabledB6_
FN:140,_RNvMNtNtCs1I4G5KWFz5n_15embedded_charts4grid7builderINtB2_11GridBuilderpE7opacityB6_
FN:236,_RNvMs0_NtNtCs1I4G5KWFz5n_15embedded_charts4grid7builderINtB5_17LinearGridBuilderpE12spacing_autoB9_
FN:230,_RNvMs0_NtNtCs1I4G5KWFz5n_15embedded_charts4grid7builderINtB5_17LinearGridBuilderpE18spacing_data_unitsB9_
FN:242,_RNvMs0_NtNtCs1I4G5KWFz5n_15embedded_charts4grid7builderINtB5_17LinearGridBuilderpE5styleB9_
FN:218,_RNvMs0_NtNtCs1I4G5KWFz5n_15embedded_charts4grid7builderINtB5_17LinearGridBuilderpE7spacingB9_
FN:213,_RNvMs0_NtNtCs1I4G5KWFz5n_15embedded_charts4grid7builderINtB5_17LinearGridBuilderpE8verticalB9_
FN:295,_RNvMs1_NtNtCs1I4G5KWFz5n_15embedded_charts4grid7builderINtB5_20TickBasedGridBuilderppE10horizontalB9_
FN:311,_RNvMs1_NtNtCs1I4G5KWFz5n_15embedded_charts4grid7builderINtB5_20TickBasedGridBuilderppE5styleB9_
FN:317,_RNvMs1_NtNtCs1I4G5KWFz5n_15embedded_charts4grid7builderINtB5_20TickBasedGridBuilderppE7visibleB9_
FN:387,_RNvMs2_NtNtCs1I4G5KWFz5n_15embedded_charts4grid7builderINtB5_17CustomGridBuilderpE13evenly_spacedB9_
FN:399,_RNvMs2_NtNtCs1I4G5KWFz5n_15embedded_charts4grid7builderINtB5_17CustomGridBuilderpE5styleB9_
FN:405,_RNvMs2_NtNtCs1I4G5KWFz5n_15embedded_charts4grid7builderINtB5_17CustomGridBuilderpE7visibleB9_
FN:368,_RNvMs2_NtNtCs1I4G5KWFz5n_15embedded_charts4grid7builderINtB5_17CustomGridBuilderpE8verticalB9_
FN:379,_RNvMs2_NtNtCs1I4G5KWFz5n_15embedded_charts4grid7builderINtB5_17CustomGridBuilderpE9add_linesB9_
FN:483,_RNvNtNtNtCs1I4G5KWFz5n_15embedded_charts4grid7builder7presets18vertical_only_grid
FN:474,_RNvNtNtNtCs1I4G5KWFz5n_15embedded_charts4grid7builder7presets20horizontal_only_grid
FN:456,_RNvNtNtNtCs1I4G5KWFz5n_15embedded_charts4grid7builder7presets21tick_aligned_grid_f32
FN:465,_RNvNtNtNtCs1I4G5KWFz5n_15embedded_charts4grid7builder7presets21tick_aligned_grid_i32
FN:179,_RNvXININtNtCs1I4G5KWFz5n_15embedded_charts4grid7builders_0pEINtB5_11GridBuilderpENtNtCs3XRySYX51hI_4core7default7Default7defaultB9_
FN:110,_RNvMNtNtCs1I4G5KWFz5n_15embedded_charts4grid7builderINtB2_11GridBuilderNtNtNtCshH4H1wHMe2V_22embedded_graphics_core10pixelcolor9rgb_color6Rgb565E12professionalB6_
FN:50,_RNvMNtNtCs1I4G5KWFz5n_15embedded_charts4grid7builderINtB2_11GridBuilderNtNtNtCshH4H1wHMe2V_22embedded_graphics_core10pixelcolor9rgb_color6Rgb565E15vertical_linearB6_
FN:44,_RNvMNtNtCs1I4G5KWFz5n_15embedded_charts4grid7builderINtB2_11GridBuilderNtNtNtCshH4H1wHMe2V_22embedded_graphics_core10pixelcolor9rgb_color6Rgb565E17horizontal_linearB6_
FN:34,_RNvMNtNtCs1I4G5KWFz5n_15embedded_charts4grid7builderINtB2_11GridBuilderNtNtNtCshH4H1wHMe2V_22embedded_graphics_core10pixelcolor9rgb_color6Rgb565E3newB6_
FN:158,_RNvMNtNtCs1I4G5KWFz5n_15embedded_charts4grid7builderINtB2_11GridBuilderNtNtNtCshH4H1wHMe2V_22embedded_graphics_core10pixelcolor9rgb_color6Rgb565E5buildB6_
FN:122,_RNvMNtNtCs1I4G5KWFz5n_15embedded_charts4grid7builderINtB2_11GridBuilderNtNtNtCshH4H1wHMe2V_22embedded_graphics_core10pixelcolor9rgb_color6Rgb565E6dashedB6_
FN:116,_RNvMNtNtCs1I4G5KWFz5n_15embedded_charts4grid7builderINtB2_11GridBuilderNtNtNtCshH4H1wHMe2V_22embedded_graphics_core10pixelcolor9rgb_color6Rgb565E7minimalB6_
FN:208,_RNvMs0_NtNtCs1I4G5KWFz5n_15embedded_charts4grid7builderINtB5_17LinearGridBuilderNtNtNtCshH4H1wHMe2V_22embedded_graphics_core10pixelcolor9rgb_color6Rgb565E10horizontalB9_
FN:224,_RNvMs0_NtNtCs1I4G5KWFz5n_15embedded_charts4grid7builderINtB5_17LinearGridBuilderNtNtNtCshH4H1wHMe2V_22embedded_graphics_core10pixelcolor9rgb_color6Rgb565E14spacing_pixelsB9_
FN:198,_RNvMs0_NtNtCs1I4G5KWFz5n_15embedded_charts4grid7builderINtB5_17LinearGridBuilderNtNtNtCshH4H1wHMe2V_22embedded_graphics_core10pixelcolor9rgb_color6Rgb565E3newB9_
FN:254,_RNvMs0_NtNtCs1I4G5KWFz5n_15embedded_charts4grid7builderINtB5_17LinearGridBuilderNtNtNtCshH4H1wHMe2V_22embedded_graphics_core10pixelcolor9rgb_color6Rgb565E5buildB9_
FN:248,_RNvMs0_NtNtCs1I4G5KWFz5n_15embedded_charts4grid7builderINtB5_17LinearGridBuilderNtNtNtCshH4H1wHMe2V_22embedded_graphics_core10pixelcolor9rgb_color6Rgb565E7visibleB9_
FN:323,_RNvMs1_NtNtCs1I4G5KWFz5n_15embedded_charts4grid7builderINtB5_20TickBasedGridBuilderfNtNtNtCshH4H1wHMe2V_22embedded_graphics_core10pixelcolor9rgb_color6Rgb565E16major_ticks_onlyB9_
FN:281,_RNvMs1_NtNtCs1I4G5KWFz5n_15embedded_charts4grid7builderINtB5_20TickBasedGridBuilderfNtNtNtCshH4H1wHMe2V_22embedded_graphics_core10pixelcolor9rgb_color6Rgb565E3newB9_
FN:329,_RNvMs1_NtNtCs1I4G5KWFz5n_15embedded_charts4grid7builderINtB5_20TickBasedGridBuilderfNtNtNtCshH4H1wHMe2V_22embedded_graphics_core10pixelcolor9rgb_color6Rgb565E5buildB9_
FN:303,_RNvMs1_NtNtCs1I4G5KWFz5n_15embedded_charts4grid7builderINtB5_20TickBasedGridBuilderfNtNtNtCshH4H1wHMe2V_22embedded_graphics_core10pixelcolor9rgb_color6Rgb565E8verticalB9_
FN:363,_RNvMs2_NtNtCs1I4G5KWFz5n_15embedded_charts4grid7builderINtB5_17CustomGridBuilderNtNtNtCshH4H1wHMe2V_22embedded_graphics_core10pixelcolor9rgb_color6Rgb565E10horizontalB9_
FN:353,_RNvMs2_NtNtCs1I4G5KWFz5n_15embedded_charts4grid7builderINtB5_17CustomGridBuilderNtNtNtCshH4H1wHMe2V_22embedded_graphics_core10pixelcolor9rgb_color6Rgb565E3newB9_
FN:411,_RNvMs2_NtNtCs1I4G5KWFz5n_15embedded_charts4grid7builderINtB5_17CustomGridBuilderNtNtNtCshH4H1wHMe2V_22embedded_graphics_core10pixelcolor9rgb_color6Rgb565E5buildB9_
FN:373,_RNvMs2_NtNtCs1I4G5KWFz5n_15embedded_charts4grid7builderINtB5_17CustomGridBuilderNtNtNtCshH4H1wHMe2V_22embedded_graphics_core10pixelcolor9rgb_color6Rgb565E8add_lineB9_
FN:447,_RNvNtNtNtCs1I4G5KWFz5n_15embedded_charts4grid7builder7presets11dashed_grid
FN:438,_RNvNtNtNtCs1I4G5KWFz5n_15embedded_charts4grid7builder7presets12minimal_grid
FN:429,_RNvNtNtNtCs1I4G5KWFz5n_15embedded_charts4grid7builder7presets17professional_grid
FNDA:1,_RNvNtNtNtCs1I4G5KWFz5n_15embedded_charts4grid7builder5testss_17test_grid_builder
FNDA:1,_RNvNtNtNtCs1I4G5KWFz5n_15embedded_charts4grid7builder5testss_17test_preset_grids
FNDA:1,_RNvNtNtNtCs1I4G5KWFz5n_15embedded_charts4grid7builder5testss_24test_custom_grid_builder
FNDA:1,_RNvNtNtNtCs1I4G5KWFz5n_15embedded_charts4grid7builder5testss_24test_linear_grid_builder
FNDA:1,_RNvNtNtNtCs1I4G5KWFz5n_15embedded_charts4grid7builder5testss_28test_tick_based_grid_builder
FNDA:0,_RNvMNtNtCs1I4G5KWFz5n_15embedded_charts4grid7builderINtB2_11GridBuilderpE10major_gridB6_
FNDA:0,_RNvMNtNtCs1I4G5KWFz5n_15embedded_charts4grid7builderINtB2_11GridBuilderpE10minor_gridB6_
FNDA:0,_RNvMNtNtCs1I4G5KWFz5n_15embedded_charts4grid7builderINtB2_11GridBuilderpE10visibilityB6_
FNDA:0,_RNvMNtNtCs1I4G5KWFz5n_15embedded_charts4grid7builderINtB2_11GridBuilderpE15vertical_customB6_
FNDA:0,_RNvMNtNtCs1I4G5KWFz5n_15embedded_charts4grid7builderINtB2_11GridBuilderpE17horizontal_customB6_
FNDA:0,_RNvMNtNtCs1I4G5KWFz5n_15embedded_charts4grid7builderINtB2_11GridBuilderpE23vertical_tick_based_f32B6_
FNDA:0,_RNvMNtNtCs1I4G5KWFz5n_15embedded_charts4grid7builderINtB2_11GridBuilderpE23vertical_tick_based_i32B6_
FNDA:0,_RNvMNtNtCs1I4G5KWFz5n_15embedded_charts4grid7builderINtB2_11GridBuilderpE25horizontal_tick_based_f32B6_
FNDA:0,_RNvMNtNtCs1I4G5KWFz5n_15embedded_charts4grid7builderINtB2_11GridBuilderpE25horizontal_tick_based_i32B6_
FNDA:0,_RNvMNtNtCs1I4G5KWFz5n_15embedded_charts4grid7builderINtB2_11GridBuilderpE5styleB6_
FNDA:0,_RNvMNtNtCs1I4G5KWFz5n_15embedded_charts4grid7builderINtB2_11GridBuilderpE7enabledB6_
FNDA:0,_RNvMNtNtCs1I4G5KWFz5n_15embedded_charts4grid7builderINtB2_11GridBuilderpE7opacityB6_
FNDA:0,_RNvMs0_NtNtCs1I4G5KWFz5n_15embedded_charts4grid7builderINtB5_17LinearGridBuilderpE12spacing_autoB9_
FNDA:0,_RNvMs0_NtNtCs1I4G5KWFz5n_15embedded_charts4grid7builderINtB5_17LinearGridBuilderpE18spacing_data_unitsB9_
FNDA:0,_RNvMs0_NtNtCs1I4G5KWFz5n_15embedded_charts4grid7builderINtB5_17LinearGridBuilderpE5styleB9_
FNDA:0,_RNvMs0_NtNtCs1I4G5KWFz5n_15embedded_charts4grid7builderINtB5_17LinearGridBuilderpE7spacingB9_
FNDA:0,_RNvMs0_NtNtCs1I4G5KWFz5n_15embedded_charts4grid7builderINtB5_17LinearGridBuilderpE8verticalB9_
FNDA:0,_RNvMs1_NtNtCs1I4G5KWFz5n_15embedded_charts4grid7builderINtB5_20TickBasedGridBuilderppE10horizontalB9_
FNDA:0,_RNvMs1_NtNtCs1I4G5KWFz5n_15embedded_charts4grid7builderINtB5_20TickBasedGridBuilderppE5styleB9_
FNDA:0,_RNvMs1_NtNtCs1I4G5KWFz5n_15embedded_charts4grid7builderINtB5_20TickBasedGridBuilderppE7visibleB9_
FNDA:0,_RNvMs2_NtNtCs1I4G5KWFz5n_15embedded_charts4grid7builderINtB5_17CustomGridBuilderpE13evenly_spacedB9_
FNDA:0,_RNvMs2_NtNtCs1I4G5KWFz5n_15embedded_charts4grid7builderINtB5_17CustomGridBuilderpE5styleB9_
FNDA:0,_RNvMs2_NtNtCs1I4G5KWFz5n_15embedded_charts4grid7builderINtB5_17CustomGridBuilderpE7visibleB9_
FNDA:0,_RNvMs2_NtNtCs1I4G5KWFz5n_15embedded_charts4grid7builderINtB5_17CustomGridBuilderpE8verticalB9_
FNDA:0,_RNvMs2_NtNtCs1I4G5KWFz5n_15embedded_charts4grid7builderINtB5_17CustomGridBuilderpE9add_linesB9_
FNDA:0,_RNvNtNtNtCs1I4G5KWFz5n_15embedded_charts4grid7builder7presets18vertical_only_grid
FNDA:0,_RNvNtNtNtCs1I4G5KWFz5n_15embedded_charts4grid7builder7presets20horizontal_only_grid
FNDA:0,_RNvNtNtNtCs1I4G5KWFz5n_15embedded_charts4grid7builder7presets21tick_aligned_grid_f32
FNDA:0,_RNvNtNtNtCs1I4G5KWFz5n_15embedded_charts4grid7builder7presets21tick_aligned_grid_i32
FNDA:0,_RNvXININtNtCs1I4G5KWFz5n_15embedded_charts4grid7builders_0pEINtB5_11GridBuilderpENtNtCs3XRySYX51hI_4core7default7Default7defaultB9_
FNDA:2,_RNvMNtNtCs1I4G5KWFz5n_15embedded_charts4grid7builderINtB2_11GridBuilderNtNtNtCshH4H1wHMe2V_22embedded_graphics_core10pixelcolor9rgb_color6Rgb565E12professionalB6_
FNDA:4,_RNvMNtNtCs1I4G5KWFz5n_15embedded_charts4grid7builderINtB2_11GridBuilderNtNtNtCshH4H1wHMe2V_22embedded_graphics_core10pixelcolor9rgb_color6Rgb565E15vertical_linearB6_
FNDA:4,_RNvMNtNtCs1I4G5KWFz5n_15embedded_charts4grid7builderINtB2_11GridBuilderNtNtNtCshH4H1wHMe2V_22embedded_graphics_core10pixelcolor9rgb_color6Rgb565E17horizontal_linearB6_
FNDA:4,_RNvMNtNtCs1I4G5KWFz5n_15embedded_charts4grid7builderINtB2_11GridBuilderNtNtNtCshH4H1wHMe2V_22embedded_graphics_core10pixelcolor9rgb_color6Rgb565E3newB6_
FNDA:4,_RNvMNtNtCs1I4G5KWFz5n_15embedded_charts4grid7builderINtB2_11GridBuilderNtNtNtCshH4H1wHMe2V_22embedded_graphics_core10pixelcolor9rgb_color6Rgb565E5buildB6_
FNDA:1,_RNvMNtNtCs1I4G5KWFz5n_15embedded_charts4grid7builderINtB2_11GridBuilderNtNtNtCshH4H1wHMe2V_22embedded_graphics_core10pixelcolor9rgb_color6Rgb565E6dashedB6_
FNDA:1,_RNvMNtNtCs1I4G5KWFz5n_15embedded_charts4grid7builderINtB2_11GridBuilderNtNtNtCshH4H1wHMe2V_22embedded_graphics_core10pixelcolor9rgb_color6Rgb565E7minimalB6_
FNDA:1,_RNvMs0_NtNtCs1I4G5KWFz5n_15embedded_charts4grid7builderINtB5_17LinearGridBuilderNtNtNtCshH4H1wHMe2V_22embedded_graphics_core10pixelcolor9rgb_color6Rgb565E10horizontalB9_
FNDA:1,_RNvMs0_NtNtCs1I4G5KWFz5n_15embedded_charts4grid7builderINtB5_17LinearGridBuilderNtNtNtCshH4H1wHMe2V_22embedded_graphics_core10pixelcolor9rgb_color6Rgb565E14spacing_pixelsB9_
FNDA:1,_RNvMs0_NtNtCs1I4G5KWFz5n_15embedded_charts4grid7builderINtB5_17LinearGridBuilderNtNtNtCshH4H1wHMe2V_22embedded_graphics_core10pixelcolor9rgb_color6Rgb565E3newB9_
FNDA:1,_RNvMs0_NtNtCs1I4G5KWFz5n_15embedded_charts4grid7builderINtB5_17LinearGridBuilderNtNtNtCshH4H1wHMe2V_22embedded_graphics_core10pixelcolor9rgb_color6Rgb565E5buildB9_
FNDA:1,_RNvMs0_NtNtCs1I4G5KWFz5n_15embedded_charts4grid7builderINtB5_17LinearGridBuilderNtNtNtCshH4H1wHMe2V_22embedded_graphics_core10pixelcolor9rgb_color6Rgb565E7visibleB9_
FNDA:1,_RNvMs1_NtNtCs1I4G5KWFz5n_15embedded_charts4grid7builderINtB5_20TickBasedGridBuilderfNtNtNtCshH4H1wHMe2V_22embedded_graphics_core10pixelcolor9rgb_color6Rgb565E16major_ticks_onlyB9_
FNDA:1,_RNvMs1_NtNtCs1I4G5KWFz5n_15embedded_charts4grid7builderINtB5_20TickBasedGridBuilderfNtNtNtCshH4H1wHMe2V_22embedded_graphics_core10pixelcolor9rgb_color6Rgb565E3newB9_
FNDA:1,_RNvMs1_NtNtCs1I4G5KWFz5n_15embedded_charts4grid7builderINtB5_20TickBasedGridBuilderfNtNtNtCshH4H1wHMe2V_22embedded_graphics_core10pixelcolor9rgb_color6Rgb565E5buildB9_
FNDA:1,_RNvMs1_NtNtCs1I4G5KWFz5n_15embedded_charts4grid7builderINtB5_20TickBasedGridBuilderfNtNtNtCshH4H1wHMe2V_22embedded_graphics_core10pixelcolor9rgb_color6Rgb565E8verticalB9_
FNDA:1,_RNvMs2_NtNtCs1I4G5KWFz5n_15embedded_charts4grid7builderINtB5_17CustomGridBuilderNtNtNtCshH4H1wHMe2V_22embedded_graphics_core10pixelcolor9rgb_color6Rgb565E10horizontalB9_
FNDA:1,_RNvMs2_NtNtCs1I4G5KWFz5n_15embedded_charts4grid7builderINtB5_17CustomGridBuilderNtNtNtCshH4H1wHMe2V_22embedded_graphics_core10pixelcolor9rgb_color6Rgb565E3newB9_
FNDA:1,_RNvMs2_NtNtCs1I4G5KWFz5n_15embedded_charts4grid7builderINtB5_17CustomGridBuilderNtNtNtCshH4H1wHMe2V_22embedded_graphics_core10pixelcolor9rgb_color6Rgb565E5buildB9_
FNDA:3,_RNvMs2_NtNtCs1I4G5KWFz5n_15embedded_charts4grid7builderINtB5_17CustomGridBuilderNtNtNtCshH4H1wHMe2V_22embedded_graphics_core10pixelcolor9rgb_color6Rgb565E8add_lineB9_
FNDA:1,_RNvNtNtNtCs1I4G5KWFz5n_15embedded_charts4grid7builder7presets11dashed_grid
FNDA:1,_RNvNtNtNtCs1I4G5KWFz5n_15embedded_charts4grid7builder7presets12minimal_grid
FNDA:1,_RNvNtNtNtCs1I4G5KWFz5n_15embedded_charts4grid7builder7presets17professional_grid
FNF:58
FNH:28
DA:34,4
DA:35,4
DA:36,4
DA:37,4
DA:38,4
DA:39,4
DA:40,4
DA:41,4
DA:44,4
DA:45,4
DA:46,4
DA:47,4
DA:50,4
DA:51,4
DA:52,4
DA:53,4
DA:56,0
DA:57,0
DA:58,0
DA:59,0
DA:60,0
DA:61,0
DA:64,0
DA:65,0
DA:66,0
DA:67,0
DA:68,0
DA:69,0
DA:72,0
DA:73,0
DA:74,0
DA:75,0
DA:76,0
DA:77,0
DA:80,0
DA:81,0
DA:82,0
DA:83,0
DA:84,0
DA:85,0
DA:88,0
DA:89,0
DA:90,0
DA:91,0
DA:92,0
DA:93,0
DA:96,0
DA:97,0
DA:98,0
DA:99,0
DA:100,0
DA:101,0
DA:104,0
DA:105,0
DA:106,0
DA:107,0
DA:110,2
DA:111,2
DA:112,2
DA:113,2
DA:116,1
DA:117,1
DA:118,1
DA:119,1
DA:122,1
DA:123,1
DA:124,1
DA:125,1
DA:128,0
DA:129,0
DA:130,0
DA:131,0
DA:134,0
DA:135,0
DA:136,0
DA:137,0
DA:140,0
DA:141,0
DA:142,0
DA:143,0
DA:146,0
DA:147,0
DA:148,0
DA:149,0
DA:152,0
DA:153,0
DA:154,0
DA:155,0
DA:158,4
DA:159,4
DA:160,4
DA:161,4
DA:163,4
DA:164,4
DA:165,4
DA:167,4
DA:168,4
DA:169,4
DA:171,4
DA:172,4
DA:179,0
DA:180,0
DA:181,0
DA:198,1
DA:199,1
DA:200,1
DA:201,1
DA:202,1
DA:203,1
DA:204,1
DA:205,1
DA:208,1
DA:209,1
DA:210,1
DA:213,0
DA:214,0
DA:215,0
DA:218,0
DA:219,0
DA:220,0
DA:221,0
DA:224,1
DA:225,1
DA:226,1
DA:227,1
DA:230,0
DA:231,0
DA:232,0
DA:233,0
DA:236,0
DA:237,0
DA:238,0
DA:239,0
DA:242,0
DA:243,0
DA:244,0
DA:245,0
DA:248,1
DA:249,1
DA:250,1
DA:251,1
DA:254,1
DA:255,1
DA:256,1
DA:257,1
DA:258,1
DA:281,1
DA:282,1
DA:283,1
DA:284,1
DA:285,1
DA:286,1
DA:287,1
DA:288,1
DA:289,1
DA:290,1
DA:291,1
DA:292,1
DA:295,0
DA:296,0
DA:297,0
DA:298,0
DA:299,0
DA:300,0
DA:303,1
DA:304,1
DA:305,1
DA:306,1
DA:307,1
DA:308,1
DA:311,0
DA:312,0
DA:313,0
DA:314,0
DA:317,0
DA:318,0
DA:319,0
DA:320,0
DA:323,1
DA:324,1
DA:325,1
DA:326,1
DA:329,1
DA:330,1
DA:331,1
DA:332,1
DA:333,1
DA:334,1
DA:335,1
DA:336,1
DA:353,1
DA:354,1
DA:355,1
DA:356,1
DA:357,1
DA:358,1
DA:359,1
DA:360,1
DA:363,1
DA:364,1
DA:365,1
DA:368,0
DA:369,0
DA:370,0
DA:373,3
DA:374,3
DA:375,3
DA:376,3
DA:379,0
DA:380,0
DA:381,0
DA:382,0
DA:383,0
DA:384,0
DA:387,0
DA:388,0
DA:389,0
DA:390,0
DA:391,0
DA:392,0
DA:393,0
DA:394,0
DA:395,0
DA:396,0
DA:399,0
DA:400,0
DA:401,0
DA:402,0
DA:405,0
DA:406,0
DA:407,0
DA:408,0
DA:411,1
DA:412,1
DA:413,1
DA:415,3
DA:416,3
DA:417,3
DA:419,1
DA:420,1
DA:429,1
DA:430,1
DA:431,1
DA:432,1
DA:433,1
DA:434,1
DA:435,1
DA:438,1
DA:439,1
DA:440,1
DA:441,1
DA:442,1
DA:443,1
DA:444,1
DA:447,1
DA:448,1
DA:449,1
DA:450,1
DA:451,1
DA:452,1
DA:453,1
DA:456,0
DA:457,0
DA:458,0
DA:459,0
DA:460,0
DA:461,0
DA:462,0
DA:465,0
DA:466,0
DA:467,0
DA:468,0
DA:469,0
DA:470,0
DA:471,0
DA:474,0
DA:475,0
DA:476,0
DA:477,0
DA:478,0
DA:479,0
DA:480,0
DA:483,0
DA:484,0
DA:485,0
DA:486,0
DA:487,0
DA:488,0
DA:489,0
DA:498,1
DA:499,1
DA:500,1
DA:501,1
DA:502,1
DA:503,1
DA:504,1
DA:505,1
DA:506,1
DA:507,1
DA:508,1
DA:511,1
DA:512,1
DA:513,1
DA:514,1
DA:515,1
DA:516,1
DA:517,1
DA:518,1
DA:519,1
DA:522,1
DA:523,1
DA:524,1
DA:525,1
DA:526,1
DA:527,1
DA:528,1
DA:529,1
DA:532,1
DA:533,1
DA:534,1
DA:535,1
DA:536,1
DA:537,1
DA:538,1
DA:539,1
DA:540,1
DA:541,1
DA:542,1
DA:543,1
DA:544,1
DA:545,1
DA:548,1
DA:549,1
DA:550,1
DA:552,1
DA:553,1
DA:555,1
DA:556,1
DA:557,1
BRF:0
BRH:0
LF:339
LH:188
end_of_record
SF:/home/tasuku/com/github/signal-slot/embedded-charts/src/grid/mod.rs
FN:158,_RINvMs_NtCs1I4G5KWFz5n_15embedded_charts4gridINtB5_10GridSystempE14draw_with_axesppppEB7_
FN:199,_RNCINvMs_NtCs1I4G5KWFz5n_15embedded_charts4gridINtB7_10GridSystempE14draw_with_axesppppE0B9_
FN:227,_RNCINvMs_NtCs1I4G5KWFz5n_15embedded_charts4gridINtB7_10GridSystempE14draw_with_axesppppEs_0B9_
FN:86,_RNvMNtCs1I4G5KWFz5n_15embedded_charts4gridINtB2_13GridContainerpE10is_visibleB4_
FN:76,_RNvMNtCs1I4G5KWFz5n_15embedded_charts4gridINtB2_13GridContainerpE11orientationB4_
FN:121,_RNvMs_NtCs1I4G5KWFz5n_15embedded_charts4gridINtB4_10GridSystempE17set_vertical_gridB6_
FN:116,_RNvMs_NtCs1I4G5KWFz5n_15embedded_charts4gridINtB4_10GridSystempE19set_horizontal_gridB6_
FN:111,_RNvMs_NtCs1I4G5KWFz5n_15embedded_charts4gridINtB4_10GridSystempE7builderB6_
FN:240,_RNvXININtCs1I4G5KWFz5n_15embedded_charts4grids0_0pEINtB5_10GridSystempENtNtCs3XRySYX51hI_4core7default7Default7defaultB7_
FN:63,_RINvMNtCs1I4G5KWFz5n_15embedded_charts4gridINtB3_13GridContainerNtNtNtCshH4H1wHMe2V_22embedded_graphics_core10pixelcolor9rgb_color6Rgb565E4drawINtNtCs5C7UwTAEl8q_17embedded_graphics12mock_display11MockDisplayB10_EEB5_
FN:136,_RINvMs_NtCs1I4G5KWFz5n_15embedded_charts4gridINtB5_10GridSystemNtNtNtCshH4H1wHMe2V_22embedded_graphics_core10pixelcolor9rgb_color6Rgb565E4drawINtNtCs5C7UwTAEl8q_17embedded_graphics12mock_display11MockDisplayBZ_EEB7_
FN:131,_RNvMs_NtCs1I4G5KWFz5n_15embedded_charts4gridINtB4_10GridSystemNtNtNtCshH4H1wHMe2V_22embedded_graphics_core10pixelcolor9rgb_color6Rgb565E10is_enabledB6_
FN:126,_RNvMs_NtCs1I4G5KWFz5n_15embedded_charts4gridINtB4_10GridSystemNtNtNtCshH4H1wHMe2V_22embedded_graphics_core10pixelcolor9rgb_color6Rgb565E11set_enabledB6_
FN:101,_RNvMs_NtCs1I4G5KWFz5n_15embedded_charts4gridINtB4_10GridSystemNtNtNtCshH4H1wHMe2V_22embedded_graphics_core10pixelcolor9rgb_color6Rgb565E3newB6_
FN:251,_RNvNtNtCs1I4G5KWFz5n_15embedded_charts4grid5testss_25test_grid_system_creation
FN:259,_RNvNtNtCs1I4G5KWFz5n_15embedded_charts4grid5testss_31test_grid_system_enable_disable
FNDA:0,_RINvMs_NtCs1I4G5KWFz5n_15embedded_charts4gridINtB5_10GridSystempE14draw_with_axesppppEB7_
FNDA:0,_RNCINvMs_NtCs1I4G5KWFz5n_15embedded_charts4gridINtB7_10GridSystempE14draw_with_axesppppE0B9_
FNDA:0,_RNCINvMs_NtCs1I4G5KWFz5n_15embedded_charts4gridINtB7_10GridSystempE14draw_with_axesppppEs_0B9_
FNDA:0,_RNvMNtCs1I4G5KWFz5n_15embedded_charts4gridINtB2_13GridContainerpE10is_visibleB4_
FNDA:0,_RNvMNtCs1I4G5KWFz5n_15embedded_charts4gridINtB2_13GridContainerpE11orientationB4_
FNDA:0,_RNvMs_NtCs1I4G5KWFz5n_15embedded_charts4gridINtB4_10GridSystempE17set_vertical_gridB6_
FNDA:0,_RNvMs_NtCs1I4G5KWFz5n_15embedded_charts4gridINtB4_10GridSystempE19set_horizontal_gridB6_
FNDA:0,_RNvMs_NtCs1I4G5KWFz5n_15embedded_charts4gridINtB4_10GridSystempE7builderB6_
FNDA:0,_RNvXININtCs1I4G5KWFz5n_15embedded_charts4grids0_0pEINtB5_10GridSystempENtNtCs3XRySYX51hI_4core7default7Default7defaultB7_
FNDA:0,_RINvMNtCs1I4G5KWFz5n_15embedded_charts4gridINtB3_13GridContainerNtNtNtCshH4H1wHMe2V_22embedded_graphics_core10pixelcolor9rgb_color6Rgb565E4drawINtNtCs5C7UwTAEl8q_17embedded_graphics12mock_display11MockDisplayB10_EEB5_
FNDA:0,_RINvMs_NtCs1I4G5KWFz5n_15embedded_charts4gridINtB5_10GridSystemNtNtNtCshH4H1wHMe2V_22embedded_graphics_core10pixelcolor9rgb_color6Rgb565E4drawINtNtCs5C7UwTAEl8q_17embedded_graphics12mock_display11MockDisplayBZ_EEB7_
FNDA:8,_RNvMs_NtCs1I4G5KWFz5n_15embedded_charts4gridINtB4_10GridSystemNtNtNtCshH4H1wHMe2V_22embedded_graphics_core10pixelcolor9rgb_color6Rgb565E10is_enabledB6_
FNDA:2,_RNvMs_NtCs1I4G5KWFz5n_15embedded_charts4gridINtB4_10GridSystemNtNtNtCshH4H1wHMe2V_22embedded_graphics_core10pixelcolor9rgb_color6Rgb565E11set_enabledB6_
FNDA:10,_RNvMs_NtCs1I4G5KWFz5n_15embedded_charts4gridINtB4_10GridSystemNtNtNtCshH4H1wHMe2V_22embedded_graphics_core10pixelcolor9rgb_color6Rgb565E3newB6_
FNDA:1,_RNvNtNtCs1I4G5KWFz5n_15embedded_charts4grid5testss_25test_grid_system_creation
FNDA:1,_RNvNtNtCs1I4G5KWFz5n_15embedded_charts4grid5testss_31test_grid_system_enable_disable
FNF:16
FNH:5
DA:63,0
DA:64,0
DA:65,0
DA:66,0
DA:67,0
DA:68,0
DA:69,0
DA:70,0
DA:71,0
DA:73,0
DA:76,0
DA:77,0
DA:78,0
DA:79,0
DA:80,0
DA:81,0
DA:83,0
DA:86,0
DA:87,0
DA:88,0
DA:89,0
DA:90,0
DA:91,0
DA:93,0
DA:101,10
DA:102,10
DA:103,10
DA:104,10
DA:105,10
DA:106,10
DA:107,10
DA:108,10
DA:111,0
DA:112,0
DA:113,0
DA:116,0
DA:117,0
DA:118,0
DA:121,0
DA:122,0
DA:123,0
DA:126,2
DA:127,2
DA:128,2
DA:131,8
DA:132,8
DA:133,8
DA:136,0
DA:137,0
DA:138,0
DA:139,0
DA:140,0
DA:141,0
DA:142,0
DA:145,0
DA:146,0
DA:147,0
DA:150,0
DA:151,0
DA:152,0
DA:154,0
DA:155,0
DA:158,0
DA:159,0
DA:160,0
DA:161,0
DA:162,0
DA:163,0
DA:164,0
DA:165,0
DA:166,0
DA:167,0
DA:168,0
DA:169,0
DA:170,0
DA:171,0
DA:172,0
DA:173,0
DA:176,0
DA:178,0
DA:179,0
DA:180,0
DA:181,0
DA:185,0
DA:186,0
DA:187,0
DA:188,0
DA:190,0
DA:191,0
DA:192,0
DA:193,0
DA:194,0
DA:195,0
DA:196,0
DA:197,0
DA:198,0
DA:199,0
DA:200,0
DA:202,0
DA:204,0
DA:206,0
DA:207,0
DA:208,0
DA:209,0
DA:213,0
DA:214,0
DA:215,0
DA:216,0
DA:218,0
DA:219,0
DA:220,0
DA:221,0
DA:222,0
DA:223,0
DA:224,0
DA:225,0
DA:226,0
DA:227,0
DA:228,0
DA:230,0
DA:232,0
DA:233,0
DA:240,0
DA:241,0
DA:242,0
DA:251,1
DA:252,1
DA:253,1
DA:254,1
DA:255,1
DA:256,1
DA:259,1
DA:260,1
DA:261,1
DA:263,1
DA:264,1
DA:266,1
DA:267,1
DA:268,1
BRF:0
BRH:0
LF:141
LH:28
end_of_record
SF:/home/tasuku/com/github/signal-slot/embedded-charts/src/grid/style.rs
FN:185,_RNvMNtNtCs1I4G5KWFz5n_15embedded_charts4grid5styleINtB2_9GridStylepE12with_opacityB6_
FN:191,_RNvMNtNtCs1I4G5KWFz5n_15embedded_charts4grid5styleINtB2_9GridStylepE15with_visibilityB6_
FN:197,_RNvMNtNtCs1I4G5KWFz5n_15embedded_charts4grid5styleINtB2_9GridStylepE18with_major_enabledB6_
FN:209,_RNvMNtNtCs1I4G5KWFz5n_15embedded_charts4grid5styleINtB2_9GridStylepE18with_major_spacingB6_
FN:203,_RNvMNtNtCs1I4G5KWFz5n_15embedded_charts4grid5styleINtB2_9GridStylepE18with_minor_enabledB6_
FN:215,_RNvMNtNtCs1I4G5KWFz5n_15embedded_charts4grid5styleINtB2_9GridStylepE18with_minor_spacingB6_
FN:245,_RNvMs0_NtNtCs1I4G5KWFz5n_15embedded_charts4grid5styleINtB5_14MajorGridStylepE10with_colorB9_
FN:257,_RNvMs0_NtNtCs1I4G5KWFz5n_15embedded_charts4grid5styleINtB5_14MajorGridStylepE12with_patternB9_
FN:301,_RNvMs2_NtNtCs1I4G5KWFz5n_15embedded_charts4grid5styleINtB5_14MinorGridStylepE10with_colorB9_
FN:307,_RNvMs2_NtNtCs1I4G5KWFz5n_15embedded_charts4grid5styleINtB5_14MinorGridStylepE10with_widthB9_
FN:319,_RNvMs2_NtNtCs1I4G5KWFz5n_15embedded_charts4grid5styleINtB5_14MinorGridStylepE12with_opacityB9_
FN:313,_RNvMs2_NtNtCs1I4G5KWFz5n_15embedded_charts4grid5styleINtB5_14MinorGridStylepE12with_patternB9_
FN:364,_RNvMs4_NtNtCs1I4G5KWFz5n_15embedded_charts4grid5styleINtB5_13GridLineStylepE12with_opacityB9_
FN:358,_RNvMs4_NtNtCs1I4G5KWFz5n_15embedded_charts4grid5styleINtB5_13GridLineStylepE15with_anti_aliasB9_
FN:349,_RNvMs4_NtNtCs1I4G5KWFz5n_15embedded_charts4grid5styleINtB5_13GridLineStylepE3newB9_
FN:412,_RNvMs5_NtNtCs1I4G5KWFz5n_15embedded_charts4grid5styleNtB5_14GridVisibility13vertical_only
FN:402,_RNvMs5_NtNtCs1I4G5KWFz5n_15embedded_charts4grid5styleNtB5_14GridVisibility15horizontal_only
FN:82,_RNvMNtNtCs1I4G5KWFz5n_15embedded_charts4grid5styleINtB2_9GridStyleNtNtNtCshH4H1wHMe2V_22embedded_graphics_core10pixelcolor9rgb_color6Rgb565E12professionalB6_
FN:69,_RNvMNtNtCs1I4G5KWFz5n_15embedded_charts4grid5styleINtB2_9GridStyleNtNtNtCshH4H1wHMe2V_22embedded_graphics_core10pixelcolor9rgb_color6Rgb565E3newB6_
FN:152,_RNvMNtNtCs1I4G5KWFz5n_15embedded_charts4grid5styleINtB2_9GridStyleNtNtNtCshH4H1wHMe2V_22embedded_graphics_core10pixelcolor9rgb_color6Rgb565E6dashedB6_
FN:115,_RNvMNtNtCs1I4G5KWFz5n_15embedded_charts4grid5styleINtB2_9GridStyleNtNtNtCshH4H1wHMe2V_22embedded_graphics_core10pixelcolor9rgb_color6Rgb565E7minimalB6_
FN:251,_RNvMs0_NtNtCs1I4G5KWFz5n_15embedded_charts4grid5styleINtB5_14MajorGridStyleNtNtNtCshH4H1wHMe2V_22embedded_graphics_core10pixelcolor9rgb_color6Rgb565E10with_widthB9_
FN:263,_RNvMs0_NtNtCs1I4G5KWFz5n_15embedded_charts4grid5styleINtB5_14MajorGridStyleNtNtNtCshH4H1wHMe2V_22embedded_graphics_core10pixelcolor9rgb_color6Rgb565E12with_opacityB9_
FN:269,_RNvMs0_NtNtCs1I4G5KWFz5n_15embedded_charts4grid5styleINtB5_14MajorGridStyleNtNtNtCshH4H1wHMe2V_22embedded_graphics_core10pixelcolor9rgb_color6Rgb565E12with_spacingB9_
FN:232,_RNvMs0_NtNtCs1I4G5KWFz5n_15embedded_charts4grid5styleINtB5_14MajorGridStyleNtNtNtCshH4H1wHMe2V_22embedded_graphics_core10pixelcolor9rgb_color6Rgb565E3newB9_
FN:325,_RNvMs2_NtNtCs1I4G5KWFz5n_15embedded_charts4grid5styleINtB5_14MinorGridStyleNtNtNtCshH4H1wHMe2V_22embedded_graphics_core10pixelcolor9rgb_color6Rgb565E12with_spacingB9_
FN:331,_RNvMs2_NtNtCs1I4G5KWFz5n_15embedded_charts4grid5styleINtB5_14MinorGridStyleNtNtNtCshH4H1wHMe2V_22embedded_graphics_core10pixelcolor9rgb_color6Rgb565E17with_subdivisionsB9_
FN:287,_RNvMs2_NtNtCs1I4G5KWFz5n_15embedded_charts4grid5styleINtB5_14MinorGridStyleNtNtNtCshH4H1wHMe2V_22embedded_graphics_core10pixelcolor9rgb_color6Rgb565E3newB9_
FN:279,_RNvXs1_NtNtCs1I4G5KWFz5n_15embedded_charts4grid5styleINtB5_14MajorGridStyleNtNtNtCshH4H1wHMe2V_22embedded_graphics_core10pixelcolor9rgb_color6Rgb565ENtNtCs3XRySYX51hI_4core7default7Default7defaultB9_
FN:341,_RNvXs3_NtNtCs1I4G5KWFz5n_15embedded_charts4grid5styleINtB5_14MinorGridStyleNtNtNtCshH4H1wHMe2V_22embedded_graphics_core10pixelcolor9rgb_color6Rgb565ENtNtCs3XRySYX51hI_4core7default7Default7defaultB9_
FN:225,_RNvXs_NtNtCs1I4G5KWFz5n_15embedded_charts4grid5styleINtB4_9GridStyleNtNtNtCshH4H1wHMe2V_22embedded_graphics_core10pixelcolor9rgb_color6Rgb565ENtNtCs3XRySYX51hI_4core7default7Default7defaultB8_
FN:471,_RNvNtNtNtCs1I4G5KWFz5n_15embedded_charts4grid5style5testss_20test_grid_visibility
FN:464,_RNvNtNtNtCs1I4G5KWFz5n_15embedded_charts4grid5style5testss_23test_grid_style_minimal
FN:449,_RNvNtNtNtCs1I4G5KWFz5n_15embedded_charts4grid5style5testss_24test_grid_style_creation
FN:456,_RNvNtNtNtCs1I4G5KWFz5n_15embedded_charts4grid5style5testss_28test_grid_style_professional
FN:486,_RNvNtNtNtCs1I4G5KWFz5n_15embedded_charts4grid5style5testss_29test_major_grid_style_builder
FN:498,_RNvNtNtNtCs1I4G5KWFz5n_15embedded_charts4grid5style5testss_29test_minor_grid_style_builder
FN:392,_RNvMs5_NtNtCs1I4G5KWFz5n_15embedded_charts4grid5styleNtB5_14GridVisibility10major_only
FN:422,_RNvMs5_NtNtCs1I4G5KWFz5n_15embedded_charts4grid5styleNtB5_14GridVisibility11any_visible
FN:427,_RNvMs5_NtNtCs1I4G5KWFz5n_15embedded_charts4grid5styleNtB5_14GridVisibility13major_visible
FN:432,_RNvMs5_NtNtCs1I4G5KWFz5n_15embedded_charts4grid5styleNtB5_14GridVisibility13minor_visible
FN:372,_RNvMs5_NtNtCs1I4G5KWFz5n_15embedded_charts4grid5styleNtB5_14GridVisibility3all
FN:382,_RNvMs5_NtNtCs1I4G5KWFz5n_15embedded_charts4grid5styleNtB5_14GridVisibility4none
FN:438,_RNvXs6_NtNtCs1I4G5KWFz5n_15embedded_charts4grid5styleNtB5_14GridVisibilityNtNtCs3XRySYX51hI_4core7default7Default7default
FNDA:0,_RNvMNtNtCs1I4G5KWFz5n_15embedded_charts4grid5styleINtB2_9GridStylepE12with_opacityB6_
FNDA:0,_RNvMNtNtCs1I4G5KWFz5n_15embedded_charts4grid5styleINtB2_9GridStylepE15with_visibilityB6_
FNDA:0,_RNvMNtNtCs1I4G5KWFz5n_15embedded_charts4grid5styleINtB2_9GridStylepE18with_major_enabledB6_
FNDA:0,_RNvMNtNtCs1I4G5KWFz5n_15embedded_charts4grid5styleINtB2_9GridStylepE18with_major_spacingB6_
FNDA:0,_RNvMNtNtCs1I4G5KWFz5n_15embedded_charts4grid5styleINtB2_9GridStylepE18with_minor_enabledB6_
FNDA:0,_RNvMNtNtCs1I4G5KWFz5n_15embedded_charts4grid5styleINtB2_9GridStylepE18with_minor_spacingB6_
FNDA:0,_RNvMs0_NtNtCs1I4G5KWFz5n_15embedded_charts4grid5styleINtB5_14MajorGridStylepE10with_colorB9_
FNDA:0,_RNvMs0_NtNtCs1I4G5KWFz5n_15embedded_charts4grid5styleINtB5_14MajorGridStylepE12with_patternB9_
FNDA:0,_RNvMs2_NtNtCs1I4G5KWFz5n_15embedded_charts4grid5styleINtB5_14MinorGridStylepE10with_colorB9_
FNDA:0,_RNvMs2_NtNtCs1I4G5KWFz5n_15embedded_charts4grid5styleINtB5_14MinorGridStylepE10with_widthB9_
FNDA:0,_RNvMs2_NtNtCs1I4G5KWFz5n_15embedded_charts4grid5styleINtB5_14MinorGridStylepE12with_opacityB9_
FNDA:0,_RNvMs2_NtNtCs1I4G5KWFz5n_15embedded_charts4grid5styleINtB5_14MinorGridStylepE12with_patternB9_
FNDA:0,_RNvMs4_NtNtCs1I4G5KWFz5n_15embedded_charts4grid5styleINtB5_13GridLineStylepE12with_opacityB9_
FNDA:0,_RNvMs4_NtNtCs1I4G5KWFz5n_15embedded_charts4grid5styleINtB5_13GridLineStylepE15with_anti_aliasB9_
FNDA:0,_RNvMs4_NtNtCs1I4G5KWFz5n_15embedded_charts4grid5styleINtB5_13GridLineStylepE3newB9_
FNDA:0,_RNvMs5_NtNtCs1I4G5KWFz5n_15embedded_charts4grid5styleNtB5_14GridVisibility13vertical_only
FNDA:0,_RNvMs5_NtNtCs1I4G5KWFz5n_15embedded_charts4grid5styleNtB5_14GridVisibility15horizontal_only
FNDA:3,_RNvMNtNtCs1I4G5KWFz5n_15embedded_charts4grid5styleINtB2_9GridStyleNtNtNtCshH4H1wHMe2V_22embedded_graphics_core10pixelcolor9rgb_color6Rgb565E12professionalB6_
FNDA:32,_RNvMNtNtCs1I4G5KWFz5n_15embedded_charts4grid5styleINtB2_9GridStyleNtNtNtCshH4H1wHMe2V_22embedded_graphics_core10pixelcolor9rgb_color6Rgb565E3newB6_
FNDA:1,_RNvMNtNtCs1I4G5KWFz5n_15embedded_charts4grid5styleINtB2_9GridStyleNtNtNtCshH4H1wHMe2V_22embedded_graphics_core10pixelcolor9rgb_color6Rgb565E6dashedB6_
FNDA:2,_RNvMNtNtCs1I4G5KWFz5n_15embedded_charts4grid5styleINtB2_9GridStyleNtNtNtCshH4H1wHMe2V_22embedded_graphics_core10pixelcolor9rgb_color6Rgb565E7minimalB6_
FNDA:1,_RNvMs0_NtNtCs1I4G5KWFz5n_15embedded_charts4grid5styleINtB5_14MajorGridStyleNtNtNtCshH4H1wHMe2V_22embedded_graphics_core10pixelcolor9rgb_color6Rgb565E10with_widthB9_
FNDA:1,_RNvMs0_NtNtCs1I4G5KWFz5n_15embedded_charts4grid5styleINtB5_14MajorGridStyleNtNtNtCshH4H1wHMe2V_22embedded_graphics_core10pixelcolor9rgb_color6Rgb565E12with_opacityB9_
FNDA:1,_RNvMs0_NtNtCs1I4G5KWFz5n_15embedded_charts4grid5styleINtB5_14MajorGridStyleNtNtNtCshH4H1wHMe2V_22embedded_graphics_core10pixelcolor9rgb_color6Rgb565E12with_spacingB9_
FNDA:33,_RNvMs0_NtNtCs1I4G5KWFz5n_15embedded_charts4grid5styleINtB5_14MajorGridStyleNtNtNtCshH4H1wHMe2V_22embedded_graphics_core10pixelcolor9rgb_color6Rgb565E3newB9_
FNDA:1,_RNvMs2_NtNtCs1I4G5KWFz5n_15embedded_charts4grid5styleINtB5_14MinorGridStyleNtNtNtCshH4H1wHMe2V_22embedded_graphics_core10pixelcolor9rgb_color6Rgb565E12with_spacingB9_
FNDA:1,_RNvMs2_NtNtCs1I4G5KWFz5n_15embedded_charts4grid5styleINtB5_14MinorGridStyleNtNtNtCshH4H1wHMe2V_22embedded_graphics_core10pixelcolor9rgb_color6Rgb565E17with_subdivisionsB9_
FNDA:33,_RNvMs2_NtNtCs1I4G5KWFz5n_15embedded_charts4grid5styleINtB5_14MinorGridStyleNtNtNtCshH4H1wHMe2V_22embedded_graphics_core10pixelcolor9rgb_color6Rgb565E3newB9_
FNDA:33,_RNvXs1_NtNtCs1I4G5KWFz5n_15embedded_charts4grid5styleINtB5_14MajorGridStyleNtNtNtCshH4H1wHMe2V_22embedded_graphics_core10pixelcolor9rgb_color6Rgb565ENtNtCs3XRySYX51hI_4core7default7Default7defaultB9_
FNDA:33,_RNvXs3_NtNtCs1I4G5KWFz5n_15embedded_charts4grid5styleINtB5_14MinorGridStyleNtNtNtCshH4H1wHMe2V_22embedded_graphics_core10pixelcolor9rgb_color6Rgb565ENtNtCs3XRySYX51hI_4core7default7Default7defaultB9_
FNDA:31,_RNvXs_NtNtCs1I4G5KWFz5n_15embedded_charts4grid5styleINtB4_9GridStyleNtNtNtCshH4H1wHMe2V_22embedded_graphics_core10pixelcolor9rgb_color6Rgb565ENtNtCs3XRySYX51hI_4core7default7Default7defaultB8_
FNDA:1,_RNvNtNtNtCs1I4G5KWFz5n_15embedded_charts4grid5style5testss_20test_grid_visibility
FNDA:1,_RNvNtNtNtCs1I4G5KWFz5n_15embedded_charts4grid5style5testss_23test_grid_style_minimal
FNDA:1,_RNvNtNtNtCs1I4G5KWFz5n_15embedded_charts4grid5style5testss_24test_grid_style_creation
FNDA:1,_RNvNtNtNtCs1I4G5KWFz5n_15embedded_charts4grid5style5testss_28test_grid_style_professional
FNDA:1,_RNvNtNtNtCs1I4G5KWFz5n_15embedded_charts4grid5style5testss_29test_major_grid_style_builder
FNDA:1,_RNvNtNtNtCs1I4G5KWFz5n_15embedded_charts4grid5style5testss_29test_minor_grid_style_builder
FNDA:33,_RNvMs5_NtNtCs1I4G5KWFz5n_15embedded_charts4grid5styleNtB5_14GridVisibility10major_only
FNDA:3,_RNvMs5_NtNtCs1I4G5KWFz5n_15embedded_charts4grid5styleNtB5_14GridVisibility11any_visible
FNDA:2,_RNvMs5_NtNtCs1I4G5KWFz5n_15embedded_charts4grid5styleNtB5_14GridVisibility13major_visible
FNDA:2,_RNvMs5_NtNtCs1I4G5KWFz5n_15embedded_charts4grid5styleNtB5_14GridVisibility13minor_visible
FNDA:5,_RNvMs5_NtNtCs1I4G5KWFz5n_15embedded_charts4grid5styleNtB5_14GridVisibility3all
FNDA:1,_RNvMs5_NtNtCs1I4G5KWFz5n_15embedded_charts4grid5styleNtB5_14GridVisibility4none
FNDA:32,_RNvXs6_NtNtCs1I4G5KWFz5n_15embedded_charts4grid5styleNtB5_14GridVisibilityNtNtCs3XRySYX51hI_4core7default7Default7default
FNF:44
FNH:27
DA:69,32
DA:70,32
DA:71,32
DA:72,32
DA:73,32
DA:74,32
DA:75,32
DA:76,32
DA:77,32
DA:78,32
DA:79,32
DA:82,3
DA:83,3
DA:84,3
DA:85,3
DA:86,3
DA:87,3
DA:88,3
DA:89,3
DA:90,3
DA:91,3
DA:92,3
DA:93,3
DA:94,3
DA:95,3
DA:96,3
DA:97,3
DA:98,3
DA:99,3
DA:100,3
DA:101,3
DA:102,3
DA:103,3
DA:104,3
DA:105,3
DA:106,3
DA:107,3
DA:108,3
DA:109,3
DA:110,3
DA:111,3
DA:112,3
DA:115,2
DA:116,2
DA:117,2
DA:118,2
DA:119,2
DA:120,2
DA:121,2
DA:122,2
DA:123,2
DA:124,2
DA:125,2
DA:126,2
DA:127,2
DA:128,2
DA:129,2
DA:130,2
DA:131,2
DA:132,2
DA:133,2
DA:134,2
DA:135,2
DA:136,2
DA:137,2
DA:138,2
DA:139,2
DA:140,2
DA:141,2
DA:142,2
DA:143,2
DA:144,2
DA:145,2
DA:146,2
DA:147,2
DA:148,2
DA:149,2
DA:152,1
DA:153,1
DA:154,1
DA:155,1
DA:156,1
DA:157,1
DA:158,1
DA:159,1
DA:160,1
DA:161,1
DA:162,1
DA:163,1
DA:164,1
DA:165,1
DA:166,1
DA:167,1
DA:168,1
DA:169,1
DA:170,1
DA:171,1
DA:172,1
DA:173,1
DA:174,1
DA:175,1
DA:176,1
DA:177,1
DA:178,1
DA:179,1
DA:180,1
DA:181,1
DA:182,1
DA:185,0
DA:186,0
DA:187,0
DA:188,0
DA:191,0
DA:192,0
DA:193,0
DA:194,0
DA:197,0
DA:198,0
DA:199,0
DA:200,0
DA:203,0
DA:204,0
DA:205,0
DA:206,0
DA:209,0
DA:210,0
DA:211,0
DA:212,0
DA:215,0
DA:216,0
DA:217,0
DA:218,0
DA:225,31
DA:226,31
DA:227,31
DA:232,33
DA:233,33
DA:234,33
DA:235,33
DA:236,33
DA:237,33
DA:238,33
DA:239,33
DA:240,33
DA:241,33
DA:242,33
DA:245,0
DA:246,0
DA:247,0
DA:248,0
DA:251,1
DA:252,1
DA:253,1
DA:254,1
DA:257,0
DA:258,0
DA:259,0
DA:260,0
DA:263,1
DA:264,1
DA:265,1
DA:266,1
DA:269,1
DA:270,1
DA:271,1
DA:272,1
DA:279,33
DA:280,33
DA:281,33
DA:282,33
DA:287,33
DA:288,33
DA:289,33
DA:290,33
DA:291,33
DA:292,33
DA:293,33
DA:294,33
DA:295,33
DA:296,33
DA:297,33
DA:298,33
DA:301,0
DA:302,0
DA:303,0
DA:304,0
DA:307,0
DA:308,0
DA:309,0
DA:310,0
DA:313,0
DA:314,0
DA:315,0
DA:316,0
DA:319,0
DA:320,0
DA:321,0
DA:322,0
DA:325,1
DA:326,1
DA:327,1
DA:328,1
DA:331,1
DA:332,1
DA:333,1
DA:334,1
DA:341,33
DA:342,33
DA:343,33
DA:344,33
DA:349,0
DA:350,0
DA:351,0
DA:352,0
DA:353,0
DA:354,0
DA:355,0
DA:358,0
DA:359,0
DA:360,0
DA:361,0
DA:364,0
DA:365,0
DA:366,0
DA:367,0
DA:372,5
DA:373,5
DA:374,5
DA:375,5
DA:376,5
DA:377,5
DA:378,5
DA:379,5
DA:382,1
DA:383,1
DA:384,1
DA:385,1
DA:386,1
DA:387,1
DA:388,1
DA:389,1
DA:392,33
DA:393,33
DA:394,33
DA:395,33
DA:396,33
DA:397,33
DA:398,33
DA:399,33
DA:402,0
DA:403,0
DA:404,0
DA:405,0
DA:406,0
DA:407,0
DA:408,0
DA:409,0
DA:412,0
DA:413,0
DA:414,0
DA:415,0
DA:416,0
DA:417,0
DA:418,0
DA:419,0
DA:422,3
DA:423,3
DA:424,3
DA:427,2
DA:428,2
DA:429,2
DA:432,2
DA:433,2
DA:434,2
DA:438,32
DA:439,32
DA:440,32
DA:449,1
DA:450,1
DA:451,1
DA:452,1
DA:453,1
DA:456,1
DA:457,1
DA:458,1
DA:459,1
DA:460,1
DA:461,1
DA:464,1
DA:465,1
DA:466,1
DA:467,1
DA:468,1
DA:471,1
DA:472,1
DA:473,1
DA:474,1
DA:475,1
DA:477,1
DA:478,1
DA:480,1
DA:481,1
DA:482,1
DA:483,1
DA:486,1
DA:487,1
DA:488,1
DA:489,1
DA:490,1
DA:491,1
DA:492,1
DA:493,1
DA:494,1
DA:495,1
DA:498,1
DA:499,1
DA:500,1
DA:501,1
DA:502,1
DA:503,1
DA:504,1
DA:505,1
BRF:0
BRH:0
LF:322
LH:243
end_of_record
SF:/home/tasuku/com/github/signal-slot/embedded-charts/src/grid/traits.rs
FN:208,_RINvXININtNtCs1I4G5KWFz5n_15embedded_charts4grid6traits0pENtB6_19DefaultGridRendererINtB6_12GridRendererpE15draw_minor_linepEBa_
FN:268,_RINvMs_NtNtCs1I4G5KWFz5n_15embedded_charts4grid6traitsNtB5_19DefaultGridRenderer16draw_dashed_lineNtNtNtCshH4H1wHMe2V_22embedded_graphics_core10pixelcolor9rgb_color6Rgb565INtNtCs5C7UwTAEl8q_17embedded_graphics12mock_display11MockDisplayB1y_EEB9_
FN:339,_RINvMs_NtNtCs1I4G5KWFz5n_15embedded_charts4grid6traitsNtB5_19DefaultGridRenderer16draw_dotted_lineNtNtNtCshH4H1wHMe2V_22embedded_graphics_core10pixelcolor9rgb_color6Rgb565INtNtCs5C7UwTAEl8q_17embedded_graphics12mock_display11MockDisplayB1y_EEB9_
FN:394,_RINvMs_NtNtCs1I4G5KWFz5n_15embedded_charts4grid6traitsNtB5_19DefaultGridRenderer18draw_dash_dot_lineNtNtNtCshH4H1wHMe2V_22embedded_graphics_core10pixelcolor9rgb_color6Rgb565INtNtCs5C7UwTAEl8q_17embedded_graphics12mock_display11MockDisplayB1A_EEB9_
FN:221,_RINvXNtNtCs1I4G5KWFz5n_15embedded_charts4grid6traitsNtB3_19DefaultGridRendererINtB3_12GridRendererNtNtNtCshH4H1wHMe2V_22embedded_graphics_core10pixelcolor9rgb_color6Rgb565E14draw_grid_lineINtNtCs5C7UwTAEl8q_17embedded_graphics12mock_display11MockDisplayB1y_EEB7_
FN:195,_RINvXNtNtCs1I4G5KWFz5n_15embedded_charts4grid6traitsNtB3_19DefaultGridRendererINtB3_12GridRendererNtNtNtCshH4H1wHMe2V_22embedded_graphics_core10pixelcolor9rgb_color6Rgb565E15draw_major_lineINtNtCs5C7UwTAEl8q_17embedded_graphics12mock_display11MockDisplayB1y_EEB7_
FN:328,_RNCINvMs_NtNtCs1I4G5KWFz5n_15embedded_charts4grid6traitsNtB7_19DefaultGridRenderer16draw_dashed_lineNtNtNtCshH4H1wHMe2V_22embedded_graphics_core10pixelcolor9rgb_color6Rgb565INtNtCs5C7UwTAEl8q_17embedded_graphics12mock_display11MockDisplayB1A_EE0Bb_
FN:385,_RNCINvMs_NtNtCs1I4G5KWFz5n_15embedded_charts4grid6traitsNtB7_19DefaultGridRenderer16draw_dotted_lineNtNtNtCshH4H1wHMe2V_22embedded_graphics_core10pixelcolor9rgb_color6Rgb565INtNtCs5C7UwTAEl8q_17embedded_graphics12mock_display11MockDisplayB1A_EE0Bb_
FN:455,_RNCINvMs_NtNtCs1I4G5KWFz5n_15embedded_charts4grid6traitsNtB7_19DefaultGridRenderer18draw_dash_dot_lineNtNtNtCshH4H1wHMe2V_22embedded_graphics_core10pixelcolor9rgb_color6Rgb565INtNtCs5C7UwTAEl8q_17embedded_graphics12mock_display11MockDisplayB1C_EE0Bb_
FN:467,_RNCINvMs_NtNtCs1I4G5KWFz5n_15embedded_charts4grid6traitsNtB7_19DefaultGridRenderer18draw_dash_dot_lineNtNtNtCshH4H1wHMe2V_22embedded_graphics_core10pixelcolor9rgb_color6Rgb565INtNtCs5C7UwTAEl8q_17embedded_graphics12mock_display11MockDisplayB1C_EEs_0Bb_
FN:242,_RNCINvXNtNtCs1I4G5KWFz5n_15embedded_charts4grid6traitsNtB5_19DefaultGridRendererINtB5_12GridRendererNtNtNtCshH4H1wHMe2V_22embedded_graphics_core10pixelcolor9rgb_color6Rgb565E14draw_grid_lineINtNtCs5C7UwTAEl8q_17embedded_graphics12mock_display11MockDisplayB1A_EE0B9_
FN:258,_RNCINvXNtNtCs1I4G5KWFz5n_15embedded_charts4grid6traitsNtB5_19DefaultGridRendererINtB5_12GridRendererNtNtNtCshH4H1wHMe2V_22embedded_graphics_core10pixelcolor9rgb_color6Rgb565E14draw_grid_lineINtNtCs5C7UwTAEl8q_17embedded_graphics12mock_display11MockDisplayB1A_EEs_0B9_
FN:487,_RNvNtNtNtCs1I4G5KWFz5n_15embedded_charts4grid6traits5testss_21test_grid_orientation
FN:493,_RNvNtNtNtCs1I4G5KWFz5n_15embedded_charts4grid6traits5testss_26test_default_grid_renderer
FNDA:0,_RINvXININtNtCs1I4G5KWFz5n_15embedded_charts4grid6traits0pENtB6_19DefaultGridRendererINtB6_12GridRendererpE15draw_minor_linepEBa_
FNDA:0,_RINvMs_NtNtCs1I4G5KWFz5n_15embedded_charts4grid6traitsNtB5_19DefaultGridRenderer16draw_dashed_lineNtNtNtCshH4H1wHMe2V_22embedded_graphics_core10pixelcolor9rgb_color6Rgb565INtNtCs5C7UwTAEl8q_17embedded_graphics12mock_display11MockDisplayB1y_EEB9_
FNDA:0,_RINvMs_NtNtCs1I4G5KWFz5n_15embedded_charts4grid6traitsNtB5_19DefaultGridRenderer16draw_dotted_lineNtNtNtCshH4H1wHMe2V_22embedded_graphics_core10pixelcolor9rgb_color6Rgb565INtNtCs5C7UwTAEl8q_17embedded_graphics12mock_display11MockDisplayB1y_EEB9_
FNDA:0,_RINvMs_NtNtCs1I4G5KWFz5n_15embedded_charts4grid6traitsNtB5_19DefaultGridRenderer18draw_dash_dot_lineNtNtNtCshH4H1wHMe2V_22embedded_graphics_core10pixelcolor9rgb_color6Rgb565INtNtCs5C7UwTAEl8q_17embedded_graphics12mock_display11MockDisplayB1A_EEB9_
FNDA:0,_RINvXNtNtCs1I4G5KWFz5n_15embedded_charts4grid6traitsNtB3_19DefaultGridRendererINtB3_12GridRendererNtNtNtCshH4H1wHMe2V_22embedded_graphics_core10pixelcolor9rgb_color6Rgb565E14draw_grid_lineINtNtCs5C7UwTAEl8q_17embedded_graphics12mock_display11MockDisplayB1y_EEB7_
FNDA:0,_RINvXNtNtCs1I4G5KWFz5n_15embedded_charts4grid6traitsNtB3_19DefaultGridRendererINtB3_12GridRendererNtNtNtCshH4H1wHMe2V_22embedded_graphics_core10pixelcolor9rgb_color6Rgb565E15draw_major_lineINtNtCs5C7UwTAEl8q_17embedded_graphics12mock_display11MockDisplayB1y_EEB7_
FNDA:0,_RNCINvMs_NtNtCs1I4G5KWFz5n_15embedded_charts4grid6traitsNtB7_19DefaultGridRenderer16draw_dashed_lineNtNtNtCshH4H1wHMe2V_22embedded_graphics_core10pixelcolor9rgb_color6Rgb565INtNtCs5C7UwTAEl8q_17embedded_graphics12mock_display11MockDisplayB1A_EE0Bb_
FNDA:0,_RNCINvMs_NtNtCs1I4G5KWFz5n_15embedded_charts4grid6traitsNtB7_19DefaultGridRenderer16draw_dotted_lineNtNtNtCshH4H1wHMe2V_22embedded_graphics_core10pixelcolor9rgb_color6Rgb565INtNtCs5C7UwTAEl8q_17embedded_graphics12mock_display11MockDisplayB1A_EE0Bb_
FNDA:0,_RNCINvMs_NtNtCs1I4G5KWFz5n_15embedded_charts4grid6traitsNtB7_19DefaultGridRenderer18draw_dash_dot_lineNtNtNtCshH4H1wHMe2V_22embedded_graphics_core10pixelcolor9rgb_color6Rgb565INtNtCs5C7UwTAEl8q_17embedded_graphics12mock_display11MockDisplayB1C_EE0Bb_
FNDA:0,_RNCINvMs_NtNtCs1I4G5KWFz5n_15embedded_charts4grid6traitsNtB7_19DefaultGridRenderer18draw_dash_dot_lineNtNtNtCshH4H1wHMe2V_22embedded_graphics_core10pixelcolor9rgb_color6Rgb565INtNtCs5C7UwTAEl8q_17embedded_graphics12mock_display11MockDisplayB1C_EEs_0Bb_
FNDA:0,_RNCINvXNtNtCs1I4G5KWFz5n_15embedded_charts4grid6traitsNtB5_19DefaultGridRendererINtB5_12GridRendererNtNtNtCshH4H1wHMe2V_22embedded_graphics_core10pixelcolor9rgb_color6Rgb565E14draw_grid_lineINtNtCs5C7UwTAEl8q_17embedded_graphics12mock_display11MockDisplayB1A_EE0B9_
FNDA:0,_RNCINvXNtNtCs1I4G5KWFz5n_15embedded_charts4grid6traitsNtB5_19DefaultGridRendererINtB5_12GridRendererNtNtNtCshH4H1wHMe2V_22embedded_graphics_core10pixelcolor9rgb_color6Rgb565E14draw_grid_lineINtNtCs5C7UwTAEl8q_17embedded_graphics12mock_display11MockDisplayB1A_EEs_0B9_
FNDA:1,_RNvNtNtNtCs1I4G5KWFz5n_15embedded_charts4grid6traits5testss_21test_grid_orientation
FNDA:1,_RNvNtNtNtCs1I4G5KWFz5n_15embedded_charts4grid6traits5testss_26test_default_grid_renderer
FNF:14
FNH:2
DA:195,0
DA:196,0
DA:197,0
DA:198,0
DA:199,0
DA:200,0
DA:201,0
DA:202,0
DA:203,0
DA:204,0
DA:205,0
DA:206,0
DA:208,0
DA:209,0
DA:210,0
DA:211,0
DA:212,0
DA:213,0
DA:214,0
DA:215,0
DA:216,0
DA:217,0
DA:218,0
DA:219,0
DA:221,0
DA:222,0
DA:223,0
DA:224,0
DA:225,0
DA:226,0
DA:227,0
DA:228,0
DA:229,0
DA:230,0
DA:234,0
DA:235,0
DA:236,0
DA:237,0
DA:239,0
DA:240,0
DA:241,0
DA:242,0
DA:245,0
DA:248,0
DA:251,0
DA:255,0
DA:256,0
DA:257,0
DA:258,0
DA:262,0
DA:263,0
DA:268,0
DA:269,0
DA:270,0
DA:271,0
DA:272,0
DA:273,0
DA:274,0
DA:275,0
DA:276,0
DA:277,0
DA:278,0
DA:282,0
DA:283,0
DA:284,0
DA:285,0
DA:286,0
DA:287,0
DA:288,0
DA:289,0
DA:290,0
DA:291,0
DA:292,0
DA:293,0
DA:294,0
DA:295,0
DA:296,0
DA:297,0
DA:298,0
DA:299,0
DA:300,0
DA:301,0
DA:302,0
DA:303,0
DA:304,0
DA:305,0
DA:307,0
DA:308,0
DA:309,0
DA:311,0
DA:313,0
DA:314,0
DA:315,0
DA:316,0
DA:317,0
DA:318,0
DA:319,0
DA:320,0
DA:321,0
DA:322,0
DA:323,0
DA:324,0
DA:325,0
DA:326,0
DA:327,0
DA:328,0
DA:329,0
DA:331,0
DA:332,0
DA:335,0
DA:336,0
DA:339,0
DA:340,0
DA:341,0
DA:342,0
DA:343,0
DA:344,0
DA:345,0
DA:346,0
DA:347,0
DA:348,0
DA:349,0
DA:353,0
DA:354,0
DA:355,0
DA:356,0
DA:357,0
DA:358,0
DA:359,0
DA:360,0
DA:361,0
DA:362,0
DA:363,0
DA:364,0
DA:365,0
DA:366,0
DA:367,0
DA:368,0
DA:369,0
DA:370,0
DA:371,0
DA:372,0
DA:373,0
DA:374,0
DA:376,0
DA:377,0
DA:378,0
DA:379,0
DA:380,0
DA:381,0
DA:382,0
DA:383,0
DA:384,0
DA:385,0
DA:387,0
DA:390,0
DA:391,0
DA:394,0
DA:395,0
DA:396,0
DA:397,0
DA:398,0
DA:399,0
DA:400,0
DA:401,0
DA:402,0
DA:403,0
DA:404,0
DA:408,0
DA:409,0
DA:410,0
DA:411,0
DA:412,0
DA:413,0
DA:414,0
DA:415,0
DA:416,0
DA:417,0
DA:418,0
DA:419,0
DA:420,0
DA:421,0
DA:422,0
DA:423,0
DA:424,0
DA:425,0
DA:426,0
DA:427,0
DA:428,0
DA:429,0
DA:430,0
DA:431,0
DA:432,0
DA:433,0
DA:434,0
DA:436,0
DA:437,0
DA:438,0
DA:439,0
DA:440,0
DA:443,0
DA:444,0
DA:445,0
DA:446,0
DA:447,0
DA:448,0
DA:449,0
DA:450,0
DA:451,0
DA:452,0
DA:453,0
DA:454,0
DA:455,0
DA:459,0
DA:460,0
DA:461,0
DA:462,0
DA:463,0
DA:464,0
DA:465,0
DA:466,0
DA:467,0
DA:469,0
DA:470,0
DA:471,0
DA:474,0
DA:475,0
DA:478,0
DA:479,0
DA:487,1
DA:488,1
DA:489,1
DA:490,1
DA:493,1
DA:494,1
DA:495,1
DA:496,1
DA:497,1
BRF:0
BRH:0
LF:244
LH:9
end_of_record
SF:/home/tasuku/com/github/signal-slot/embedded-charts/src/grid/types.rs
FN:396,_RINvXININtNtCs1I4G5KWFz5n_15embedded_charts4grid5typess2_0ppEINtB6_13TickBasedGridppEINtNtB8_6traits15TickAlignedGridppE14draw_with_axisppEBa_
FN:433,_RINvXININtNtCs1I4G5KWFz5n_15embedded_charts4grid5typess2_0ppEINtB6_13TickBasedGridppEINtNtB8_6traits15TickAlignedGridppE24calculate_tick_positionspEBa_
FN:251,_RNvMs0_NtNtCs1I4G5KWFz5n_15embedded_charts4grid5typesINtB5_13TickBasedGridppE10horizontalB9_
FN:284,_RNvMs0_NtNtCs1I4G5KWFz5n_15embedded_charts4grid5typesINtB5_13TickBasedGridppE20set_major_ticks_onlyB9_
FN:537,_RNvMs3_NtNtCs1I4G5KWFz5n_15embedded_charts4grid5typesINtB5_10CustomGridpE10with_linesB9_
FN:526,_RNvMs3_NtNtCs1I4G5KWFz5n_15embedded_charts4grid5typesINtB5_10CustomGridpE11clear_linesB9_
FN:504,_RNvMs3_NtNtCs1I4G5KWFz5n_15embedded_charts4grid5typesINtB5_10CustomGridpE8verticalB9_
FN:519,_RNvMs3_NtNtCs1I4G5KWFz5n_15embedded_charts4grid5typesINtB5_10CustomGridpE9add_linesB9_
FN:335,_RNvXININtNtCs1I4G5KWFz5n_15embedded_charts4grid5typess1_0ppEINtB5_13TickBasedGridppEINtNtB7_6traits4GridpE10is_visibleB9_
FN:382,_RNvXININtNtCs1I4G5KWFz5n_15embedded_charts4grid5typess1_0ppEINtB5_13TickBasedGridppEINtNtB7_6traits4GridpE11set_spacingB9_
FN:339,_RNvXININtNtCs1I4G5KWFz5n_15embedded_charts4grid5typess1_0ppEINtB5_13TickBasedGridppEINtNtB7_6traits4GridpE11set_visibleB9_
FN:343,_RNvXININtNtCs1I4G5KWFz5n_15embedded_charts4grid5typess1_0ppEINtB5_13TickBasedGridppEINtNtB7_6traits4GridpE5styleB9_
FN:386,_RNvXININtNtCs1I4G5KWFz5n_15embedded_charts4grid5typess1_0ppEINtB5_13TickBasedGridppEINtNtB7_6traits4GridpE6as_anyB9_
FN:378,_RNvXININtNtCs1I4G5KWFz5n_15embedded_charts4grid5typess1_0ppEINtB5_13TickBasedGridppEINtNtB7_6traits4GridpE7spacingB9_
FN:347,_RNvXININtNtCs1I4G5KWFz5n_15embedded_charts4grid5typess1_0ppEINtB5_13TickBasedGridppEINtNtB7_6traits4GridpE9set_styleB9_
FN:460,_RNvXININtNtCs1I4G5KWFz5n_15embedded_charts4grid5typess2_0ppEINtB5_13TickBasedGridppEINtNtB7_6traits15TickAlignedGridppE19is_major_ticks_onlyB9_
FN:456,_RNvXININtNtCs1I4G5KWFz5n_15embedded_charts4grid5typess2_0ppEINtB5_13TickBasedGridppEINtNtB7_6traits15TickAlignedGridppE20set_major_ticks_onlyB9_
FN:582,_RNvXININtNtCs1I4G5KWFz5n_15embedded_charts4grid5typess4_0pEINtB5_10CustomGridpEINtNtB7_6traits4GridpE10is_visibleB9_
FN:618,_RNvXININtNtCs1I4G5KWFz5n_15embedded_charts4grid5typess4_0pEINtB5_10CustomGridpEINtNtB7_6traits4GridpE11set_spacingB9_
FN:590,_RNvXININtNtCs1I4G5KWFz5n_15embedded_charts4grid5typess4_0pEINtB5_10CustomGridpEINtNtB7_6traits4GridpE5styleB9_
FN:622,_RNvXININtNtCs1I4G5KWFz5n_15embedded_charts4grid5typess4_0pEINtB5_10CustomGridpEINtNtB7_6traits4GridpE6as_anyB9_
FN:602,_RNvXININtNtCs1I4G5KWFz5n_15embedded_charts4grid5typess4_0pEINtB5_10CustomGridpEINtNtB7_6traits4GridpE7spacingB9_
FN:594,_RNvXININtNtCs1I4G5KWFz5n_15embedded_charts4grid5typess4_0pEINtB5_10CustomGridpEINtNtB7_6traits4GridpE9set_styleB9_
FN:200,_RNvXININtNtCs1I4G5KWFz5n_15embedded_charts4grid5typess_0pEINtB5_10LinearGridpEINtNtB7_6traits4GridpE11set_spacingB9_
FN:156,_RNvXININtNtCs1I4G5KWFz5n_15embedded_charts4grid5typess_0pEINtB5_10LinearGridpEINtNtB7_6traits4GridpE11set_visibleB9_
FN:160,_RNvXININtNtCs1I4G5KWFz5n_15embedded_charts4grid5typess_0pEINtB5_10LinearGridpEINtNtB7_6traits4GridpE5styleB9_
FN:204,_RNvXININtNtCs1I4G5KWFz5n_15embedded_charts4grid5typess_0pEINtB5_10LinearGridpEINtNtB7_6traits4GridpE6as_anyB9_
FN:192,_RNvXININtNtCs1I4G5KWFz5n_15embedded_charts4grid5typess_0pEINtB5_10LinearGridpEINtNtB7_6traits4GridpE7spacingB9_
FN:164,_RNvXININtNtCs1I4G5KWFz5n_15embedded_charts4grid5typess_0pEINtB5_10LinearGridpEINtNtB7_6traits4GridpE9set_styleB9_
FN:294,_RINvXs1_NtNtCs1I4G5KWFz5n_15embedded_charts4grid5typesINtB6_13TickBasedGridfNtNtNtCshH4H1wHMe2V_22embedded_graphics_core10pixelcolor9rgb_color6Rgb565EINtNtB8_6traits4GridB1c_E4drawINtNtCs5C7UwTAEl8q_17embedded_graphics12mock_display11MockDisplayB1c_EEBa_
FN:294,_RINvXs1_NtNtCs1I4G5KWFz5n_15embedded_charts4grid5typesINtB6_13TickBasedGridlNtNtNtCshH4H1wHMe2V_22embedded_graphics_core10pixelcolor9rgb_color6Rgb565EINtNtB8_6traits4GridB1c_E4drawINtNtCs5C7UwTAEl8q_17embedded_graphics12mock_display11MockDisplayB1c_EEBa_
FN:544,_RINvXs4_NtNtCs1I4G5KWFz5n_15embedded_charts4grid5typesINtB6_10CustomGridNtNtNtCshH4H1wHMe2V_22embedded_graphics_core10pixelcolor9rgb_color6Rgb565EINtNtB8_6traits4GridB18_E4drawINtNtCs5C7UwTAEl8q_17embedded_graphics12mock_display11MockDisplayB18_EEBa_
FN:112,_RINvXs_NtNtCs1I4G5KWFz5n_15embedded_charts4grid5typesINtB5_10LinearGridNtNtNtCshH4H1wHMe2V_22embedded_graphics_core10pixelcolor9rgb_color6Rgb565EINtNtB7_6traits4GridB17_E4drawINtNtCs5C7UwTAEl8q_17embedded_graphics12mock_display11MockDisplayB17_EEB9_
FN:515,_RNCNvMs3_NtNtCs1I4G5KWFz5n_15embedded_charts4grid5typesINtB7_10CustomGridNtNtNtCshH4H1wHMe2V_22embedded_graphics_core10pixelcolor9rgb_color6Rgb565E8add_line0Bb_
FN:64,_RNvMNtNtCs1I4G5KWFz5n_15embedded_charts4grid5typesINtB2_10LinearGridNtNtNtCshH4H1wHMe2V_22embedded_graphics_core10pixelcolor9rgb_color6Rgb565E10horizontalB6_
FN:80,_RNvMNtNtCs1I4G5KWFz5n_15embedded_charts4grid5typesINtB2_10LinearGridNtNtNtCshH4H1wHMe2V_22embedded_graphics_core10pixelcolor9rgb_color6Rgb565E10with_styleB6_
FN:86,_RNvMNtNtCs1I4G5KWFz5n_15embedded_charts4grid5typesINtB2_10LinearGridNtNtNtCshH4H1wHMe2V_22embedded_graphics_core10pixelcolor9rgb_color6Rgb565E15with_visibilityB6_
FN:92,_RNvMNtNtCs1I4G5KWFz5n_15embedded_charts4grid5typesINtB2_10LinearGridNtNtNtCshH4H1wHMe2V_22embedded_graphics_core10pixelcolor9rgb_color6Rgb565E23calculate_pixel_spacingB6_
FN:50,_RNvMNtNtCs1I4G5KWFz5n_15embedded_charts4grid5typesINtB2_10LinearGridNtNtNtCshH4H1wHMe2V_22embedded_graphics_core10pixelcolor9rgb_color6Rgb565E3newB6_
FN:72,_RNvMNtNtCs1I4G5KWFz5n_15embedded_charts4grid5typesINtB2_10LinearGridNtNtNtCshH4H1wHMe2V_22embedded_graphics_core10pixelcolor9rgb_color6Rgb565E8verticalB6_
FN:267,_RNvMs0_NtNtCs1I4G5KWFz5n_15embedded_charts4grid5typesINtB5_13TickBasedGridfNtNtNtCshH4H1wHMe2V_22embedded_graphics_core10pixelcolor9rgb_color6Rgb565E10with_styleB9_
FN:279,_RNvMs0_NtNtCs1I4G5KWFz5n_15embedded_charts4grid5typesINtB5_13TickBasedGridfNtNtNtCshH4H1wHMe2V_22embedded_graphics_core10pixelcolor9rgb_color6Rgb565E19is_major_ticks_onlyB9_
FN:273,_RNvMs0_NtNtCs1I4G5KWFz5n_15embedded_charts4grid5typesINtB5_13TickBasedGridfNtNtNtCshH4H1wHMe2V_22embedded_graphics_core10pixelcolor9rgb_color6Rgb565E21with_major_ticks_onlyB9_
FN:236,_RNvMs0_NtNtCs1I4G5KWFz5n_15embedded_charts4grid5typesINtB5_13TickBasedGridfNtNtNtCshH4H1wHMe2V_22embedded_graphics_core10pixelcolor9rgb_color6Rgb565E3newB9_
FN:259,_RNvMs0_NtNtCs1I4G5KWFz5n_15embedded_charts4grid5typesINtB5_13TickBasedGridfNtNtNtCshH4H1wHMe2V_22embedded_graphics_core10pixelcolor9rgb_color6Rgb565E8verticalB9_
FN:496,_RNvMs3_NtNtCs1I4G5KWFz5n_15embedded_charts4grid5typesINtB5_10CustomGridNtNtNtCshH4H1wHMe2V_22embedded_graphics_core10pixelcolor9rgb_color6Rgb565E10horizontalB9_
FN:531,_RNvMs3_NtNtCs1I4G5KWFz5n_15embedded_charts4grid5typesINtB5_10CustomGridNtNtNtCshH4H1wHMe2V_22embedded_graphics_core10pixelcolor9rgb_color6Rgb565E10with_styleB9_
FN:482,_RNvMs3_NtNtCs1I4G5KWFz5n_15embedded_charts4grid5typesINtB5_10CustomGridNtNtNtCshH4H1wHMe2V_22embedded_graphics_core10pixelcolor9rgb_color6Rgb565E3newB9_
FN:512,_RNvMs3_NtNtCs1I4G5KWFz5n_15embedded_charts4grid5typesINtB5_10CustomGridNtNtNtCshH4H1wHMe2V_22embedded_graphics_core10pixelcolor9rgb_color6Rgb565E8add_lineB9_
FN:331,_RNvXs1_NtNtCs1I4G5KWFz5n_15embedded_charts4grid5typesINtB5_13TickBasedGridfNtNtNtCshH4H1wHMe2V_22embedded_graphics_core10pixelcolor9rgb_color6Rgb565EINtNtB7_6traits4GridB1b_E11orientationB9_
FN:351,_RNvXs1_NtNtCs1I4G5KWFz5n_15embedded_charts4grid5typesINtB5_13TickBasedGridfNtNtNtCshH4H1wHMe2V_22embedded_graphics_core10pixelcolor9rgb_color6Rgb565EINtNtB7_6traits4GridB1b_E19calculate_positionsB9_
FN:351,_RNvXs1_NtNtCs1I4G5KWFz5n_15embedded_charts4grid5typesINtB5_13TickBasedGridlNtNtNtCshH4H1wHMe2V_22embedded_graphics_core10pixelcolor9rgb_color6Rgb565EINtNtB7_6traits4GridB1b_E19calculate_positionsB9_
FN:578,_RNvXs4_NtNtCs1I4G5KWFz5n_15embedded_charts4grid5typesINtB5_10CustomGridNtNtNtCshH4H1wHMe2V_22embedded_graphics_core10pixelcolor9rgb_color6Rgb565EINtNtB7_6traits4GridB17_E11orientationB9_
FN:586,_RNvXs4_NtNtCs1I4G5KWFz5n_15embedded_charts4grid5typesINtB5_10CustomGridNtNtNtCshH4H1wHMe2V_22embedded_graphics_core10pixelcolor9rgb_color6Rgb565EINtNtB7_6traits4GridB17_E11set_visibleB9_
FN:598,_RNvXs4_NtNtCs1I4G5KWFz5n_15embedded_charts4grid5typesINtB5_10CustomGridNtNtNtCshH4H1wHMe2V_22embedded_graphics_core10pixelcolor9rgb_color6Rgb565EINtNtB7_6traits4GridB17_E19calculate_positionsB9_
FN:152,_RNvXs_NtNtCs1I4G5KWFz5n_15embedded_charts4grid5typesINtB4_10LinearGridNtNtNtCshH4H1wHMe2V_22embedded_graphics_core10pixelcolor9rgb_color6Rgb565EINtNtB6_6traits4GridB16_E10is_visibleB8_
FN:148,_RNvXs_NtNtCs1I4G5KWFz5n_15embedded_charts4grid5typesINtB4_10LinearGridNtNtNtCshH4H1wHMe2V_22embedded_graphics_core10pixelcolor9rgb_color6Rgb565EINtNtB6_6traits4GridB16_E11orientationB8_
FN:168,_RNvXs_NtNtCs1I4G5KWFz5n_15embedded_charts4grid5typesINtB4_10LinearGridNtNtNtCshH4H1wHMe2V_22embedded_graphics_core10pixelcolor9rgb_color6Rgb565EINtNtB6_6traits4GridB16_E19calculate_positionsB8_
FN:667,_RNvNtNtNtCs1I4G5KWFz5n_15embedded_charts4grid5types5testss_14test_grid_type
FN:660,_RNvNtNtNtCs1I4G5KWFz5n_15embedded_charts4grid5types5testss_17test_grid_spacing
FN:647,_RNvNtNtNtCs1I4G5KWFz5n_15embedded_charts4grid5types5testss_25test_custom_grid_creation
FN:633,_RNvNtNtNtCs1I4G5KWFz5n_15embedded_charts4grid5types5testss_25test_linear_grid_creation
FN:640,_RNvNtNtNtCs1I4G5KWFz5n_15embedded_charts4grid5types5testss_29test_tick_based_grid_creation
FNDA:0,_RINvXININtNtCs1I4G5KWFz5n_15embedded_charts4grid5typess2_0ppEINtB6_13TickBasedGridppEINtNtB8_6traits15TickAlignedGridppE14draw_with_axisppEBa_
FNDA:0,_RINvXININtNtCs1I4G5KWFz5n_15embedded_charts4grid5typess2_0ppEINtB6_13TickBasedGridppEINtNtB8_6traits15TickAlignedGridppE24calculate_tick_positionspEBa_
FNDA:0,_RNvMs0_NtNtCs1I4G5KWFz5n_15embedded_charts4grid5typesINtB5_13TickBasedGridppE10horizontalB9_
FNDA:0,_RNvMs0_NtNtCs1I4G5KWFz5n_15embedded_charts4grid5typesINtB5_13TickBasedGridppE20set_major_ticks_onlyB9_
FNDA:0,_RNvMs3_NtNtCs1I4G5KWFz5n_15embedded_charts4grid5typesINtB5_10CustomGridpE10with_linesB9_
FNDA:0,_RNvMs3_NtNtCs1I4G5KWFz5n_15embedded_charts4grid5typesINtB5_10CustomGridpE11clear_linesB9_
FNDA:0,_RNvMs3_NtNtCs1I4G5KWFz5n_15embedded_charts4grid5typesINtB5_10CustomGridpE8verticalB9_
FNDA:0,_RNvMs3_NtNtCs1I4G5KWFz5n_15embedded_charts4grid5typesINtB5_10CustomGridpE9add_linesB9_
FNDA:0,_RNvXININtNtCs1I4G5KWFz5n_15embedded_charts4grid5typess1_0ppEINtB5_13TickBasedGridppEINtNtB7_6traits4GridpE10is_visibleB9_
FNDA:0,_RNvXININtNtCs1I4G5KWFz5n_15embedded_charts4grid5typess1_0ppEINtB5_13TickBasedGridppEINtNtB7_6traits4GridpE11set_spacingB9_
FNDA:0,_RNvXININtNtCs1I4G5KWFz5n_15embedded_charts4grid5typess1_0ppEINtB5_13TickBasedGridppEINtNtB7_6traits4GridpE11set_visibleB9_
FNDA:0,_RNvXININtNtCs1I4G5KWFz5n_15embedded_charts4grid5typess1_0ppEINtB5_13TickBasedGridppEINtNtB7_6traits4GridpE5styleB9_
FNDA:0,_RNvXININtNtCs1I4G5KWFz5n_15embedded_charts4grid5typess1_0ppEINtB5_13TickBasedGridppEINtNtB7_6traits4GridpE6as_anyB9_
FNDA:0,_RNvXININtNtCs1I4G5KWFz5n_15embedded_charts4grid5typess1_0ppEINtB5_13TickBasedGridppEINtNtB7_6traits4GridpE7spacingB9_
FNDA:0,_RNvXININtNtCs1I4G5KWFz5n_15embedded_charts4grid5typess1_0ppEINtB5_13TickBasedGridppEINtNtB7_6traits4GridpE9set_styleB9_
FNDA:0,_RNvXININtNtCs1I4G5KWFz5n_15embedded_charts4grid5typess2_0ppEINtB5_13TickBasedGridppEINtNtB7_6traits15TickAlignedGridppE19is_major_ticks_onlyB9_
FNDA:0,_RNvXININtNtCs1I4G5KWFz5n_15embedded_charts4grid5typess2_0ppEINtB5_13TickBasedGridppEINtNtB7_6traits15TickAlignedGridppE20set_major_ticks_onlyB9_
FNDA:0,_RNvXININtNtCs1I4G5KWFz5n_15embedded_charts4grid5typess4_0pEINtB5_10CustomGridpEINtNtB7_6traits4GridpE10is_visibleB9_
FNDA:0,_RNvXININtNtCs1I4G5KWFz5n_15embedded_charts4grid5typess4_0pEINtB5_10CustomGridpEINtNtB7_6traits4GridpE11set_spacingB9_
FNDA:0,_RNvXININtNtCs1I4G5KWFz5n_15embedded_charts4grid5typess4_0pEINtB5_10CustomGridpEINtNtB7_6traits4GridpE5styleB9_
FNDA:0,_RNvXININtNtCs1I4G5KWFz5n_15embedded_charts4grid5typess4_0pEINtB5_10CustomGridpEINtNtB7_6traits4GridpE6as_anyB9_
FNDA:0,_RNvXININtNtCs1I4G5KWFz5n_15embedded_charts4grid5typess4_0pEINtB5_10CustomGridpEINtNtB7_6traits4GridpE7spacingB9_
FNDA:0,_RNvXININtNtCs1I4G5KWFz5n_15embedded_charts4grid5typess4_0pEINtB5_10CustomGridpEINtNtB7_6traits4GridpE9set_styleB9_
FNDA:0,_RNvXININtNtCs1I4G5KWFz5n_15embedded_charts4grid5typess_0pEINtB5_10LinearGridpEINtNtB7_6traits4GridpE11set_spacingB9_
FNDA:0,_RNvXININtNtCs1I4G5KWFz5n_15embedded_charts4grid5typess_0pEINtB5_10LinearGridpEINtNtB7_6traits4GridpE11set_visibleB9_
FNDA:0,_RNvXININtNtCs1I4G5KWFz5n_15embedded_charts4grid5typess_0pEINtB5_10LinearGridpEINtNtB7_6traits4GridpE5styleB9_
FNDA:0,_RNvXININtNtCs1I4G5KWFz5n_15embedded_charts4grid5typess_0pEINtB5_10LinearGridpEINtNtB7_6traits4GridpE6as_anyB9_
FNDA:0,_RNvXININtNtCs1I4G5KWFz5n_15embedded_charts4grid5typess_0pEINtB5_10LinearGridpEINtNtB7_6traits4GridpE7spacingB9_
FNDA:0,_RNvXININtNtCs1I4G5KWFz5n_15embedded_charts4grid5typess_0pEINtB5_10LinearGridpEINtNtB7_6traits4GridpE9set_styleB9_
FNDA:0,_RINvXs1_NtNtCs1I4G5KWFz5n_15embedded_charts4grid5typesINtB6_13TickBasedGridfNtNtNtCshH4H1wHMe2V_22embedded_graphics_core10pixelcolor9rgb_color6Rgb565EINtNtB8_6traits4GridB1c_E4drawINtNtCs5C7UwTAEl8q_17embedded_graphics12mock_display11MockDisplayB1c_EEBa_
FNDA:0,_RINvXs1_NtNtCs1I4G5KWFz5n_15embedded_charts4grid5typesINtB6_13TickBasedGridlNtNtNtCshH4H1wHMe2V_22embedded_graphics_core10pixelcolor9rgb_color6Rgb565EINtNtB8_6traits4GridB1c_E4drawINtNtCs5C7UwTAEl8q_17embedded_graphics12mock_display11MockDisplayB1c_EEBa_
FNDA:0,_RINvXs4_NtNtCs1I4G5KWFz5n_15embedded_charts4grid5typesINtB6_10CustomGridNtNtNtCshH4H1wHMe2V_22embedded_graphics_core10pixelcolor9rgb_color6Rgb565EINtNtB8_6traits4GridB18_E4drawINtNtCs5C7UwTAEl8q_17embedded_graphics12mock_display11MockDisplayB18_EEBa_
FNDA:0,_RINvXs_NtNtCs1I4G5KWFz5n_15embedded_charts4grid5typesINtB5_10LinearGridNtNtNtCshH4H1wHMe2V_22embedded_graphics_core10pixelcolor9rgb_color6Rgb565EINtNtB7_6traits4GridB17_E4drawINtNtCs5C7UwTAEl8q_17embedded_graphics12mock_display11MockDisplayB17_EEB9_
FNDA:0,_RNCNvMs3_NtNtCs1I4G5KWFz5n_15embedded_charts4grid5typesINtB7_10CustomGridNtNtNtCshH4H1wHMe2V_22embedded_graphics_core10pixelcolor9rgb_color6Rgb565E8add_line0Bb_
FNDA:5,_RNvMNtNtCs1I4G5KWFz5n_15embedded_charts4grid5typesINtB2_10LinearGridNtNtNtCshH4H1wHMe2V_22embedded_graphics_core10pixelcolor9rgb_color6Rgb565E10horizontalB6_
FNDA:1,_RNvMNtNtCs1I4G5KWFz5n_15embedded_charts4grid5typesINtB2_10LinearGridNtNtNtCshH4H1wHMe2V_22embedded_graphics_core10pixelcolor9rgb_color6Rgb565E10with_styleB6_
FNDA:1,_RNvMNtNtCs1I4G5KWFz5n_15embedded_charts4grid5typesINtB2_10LinearGridNtNtNtCshH4H1wHMe2V_22embedded_graphics_core10pixelcolor9rgb_color6Rgb565E15with_visibilityB6_
FNDA:0,_RNvMNtNtCs1I4G5KWFz5n_15embedded_charts4grid5typesINtB2_10LinearGridNtNtNtCshH4H1wHMe2V_22embedded_graphics_core10pixelcolor9rgb_color6Rgb565E23calculate_pixel_spacingB6_
FNDA:10,_RNvMNtNtCs1I4G5KWFz5n_15embedded_charts4grid5typesINtB2_10LinearGridNtNtNtCshH4H1wHMe2V_22embedded_graphics_core10pixelcolor9rgb_color6Rgb565E3newB6_
FNDA:4,_RNvMNtNtCs1I4G5KWFz5n_15embedded_charts4grid5typesINtB2_10LinearGridNtNtNtCshH4H1wHMe2V_22embedded_graphics_core10pixelcolor9rgb_color6Rgb565E8verticalB6_
FNDA:1,_RNvMs0_NtNtCs1I4G5KWFz5n_15embedded_charts4grid5typesINtB5_13TickBasedGridfNtNtNtCshH4H1wHMe2V_22embedded_graphics_core10pixelcolor9rgb_color6Rgb565E10with_styleB9_
FNDA:2,_RNvMs0_NtNtCs1I4G5KWFz5n_15embedded_charts4grid5typesINtB5_13TickBasedGridfNtNtNtCshH4H1wHMe2V_22embedded_graphics_core10pixelcolor9rgb_color6Rgb565E19is_major_ticks_onlyB9_
FNDA:1,_RNvMs0_NtNtCs1I4G5KWFz5n_15embedded_charts4grid5typesINtB5_13TickBasedGridfNtNtNtCshH4H1wHMe2V_22embedded_graphics_core10pixelcolor9rgb_color6Rgb565E21with_major_ticks_onlyB9_
FNDA:2,_RNvMs0_NtNtCs1I4G5KWFz5n_15embedded_charts4grid5typesINtB5_13TickBasedGridfNtNtNtCshH4H1wHMe2V_22embedded_graphics_core10pixelcolor9rgb_color6Rgb565E3newB9_
FNDA:1,_RNvMs0_NtNtCs1I4G5KWFz5n_15embedded_charts4grid5typesINtB5_13TickBasedGridfNtNtNtCshH4H1wHMe2V_22embedded_graphics_core10pixelcolor9rgb_color6Rgb565E8verticalB9_
FNDA:1,_RNvMs3_NtNtCs1I4G5KWFz5n_15embedded_charts4grid5typesINtB5_10CustomGridNtNtNtCshH4H1wHMe2V_22embedded_graphics_core10pixelcolor9rgb_color6Rgb565E10horizontalB9_
FNDA:1,_RNvMs3_NtNtCs1I4G5KWFz5n_15embedded_charts4grid5typesINtB5_10CustomGridNtNtNtCshH4H1wHMe2V_22embedded_graphics_core10pixelcolor9rgb_color6Rgb565E10with_styleB9_
FNDA:2,_RNvMs3_NtNtCs1I4G5KWFz5n_15embedded_charts4grid5typesINtB5_10CustomGridNtNtNtCshH4H1wHMe2V_22embedded_graphics_core10pixelcolor9rgb_color6Rgb565E3newB9_
FNDA:5,_RNvMs3_NtNtCs1I4G5KWFz5n_15embedded_charts4grid5typesINtB5_10CustomGridNtNtNtCshH4H1wHMe2V_22embedded_graphics_core10pixelcolor9rgb_color6Rgb565E8add_lineB9_
FNDA:2,_RNvXs1_NtNtCs1I4G5KWFz5n_15embedded_charts4grid5typesINtB5_13TickBasedGridfNtNtNtCshH4H1wHMe2V_22embedded_graphics_core10pixelcolor9rgb_color6Rgb565EINtNtB7_6traits4GridB1b_E11orientationB9_
FNDA:0,_RNvXs1_NtNtCs1I4G5KWFz5n_15embedded_charts4grid5typesINtB5_13TickBasedGridfNtNtNtCshH4H1wHMe2V_22embedded_graphics_core10pixelcolor9rgb_color6Rgb565EINtNtB7_6traits4GridB1b_E19calculate_positionsB9_
FNDA:0,_RNvXs1_NtNtCs1I4G5KWFz5n_15embedded_charts4grid5typesINtB5_13TickBasedGridlNtNtNtCshH4H1wHMe2V_22embedded_graphics_core10pixelcolor9rgb_color6Rgb565EINtNtB7_6traits4GridB1b_E19calculate_positionsB9_
FNDA:2,_RNvXs4_NtNtCs1I4G5KWFz5n_15embedded_charts4grid5typesINtB5_10CustomGridNtNtNtCshH4H1wHMe2V_22embedded_graphics_core10pixelcolor9rgb_color6Rgb565EINtNtB7_6traits4GridB17_E11orientationB9_
FNDA:1,_RNvXs4_NtNtCs1I4G5KWFz5n_15embedded_charts4grid5typesINtB5_10CustomGridNtNtNtCshH4H1wHMe2V_22embedded_graphics_core10pixelcolor9rgb_color6Rgb565EINtNtB7_6traits4GridB17_E11set_visibleB9_
FNDA:2,_RNvXs4_NtNtCs1I4G5KWFz5n_15embedded_charts4grid5typesINtB5_10CustomGridNtNtNtCshH4H1wHMe2V_22embedded_graphics_core10pixelcolor9rgb_color6Rgb565EINtNtB7_6traits4GridB17_E19calculate_positionsB9_
FNDA:2,_RNvXs_NtNtCs1I4G5KWFz5n_15embedded_charts4grid5typesINtB4_10LinearGridNtNtNtCshH4H1wHMe2V_22embedded_graphics_core10pixelcolor9rgb_color6Rgb565EINtNtB6_6traits4GridB16_E10is_visibleB8_
FNDA:2,_RNvXs_NtNtCs1I4G5KWFz5n_15embedded_charts4grid5typesINtB4_10LinearGridNtNtNtCshH4H1wHMe2V_22embedded_graphics_core10pixelcolor9rgb_color6Rgb565EINtNtB6_6traits4GridB16_E11orientationB8_
FNDA:0,_RNvXs_NtNtCs1I4G5KWFz5n_15embedded_charts4grid5typesINtB4_10LinearGridNtNtNtCshH4H1wHMe2V_22embedded_graphics_core10pixelcolor9rgb_color6Rgb565EINtNtB6_6traits4GridB16_E19calculate_positionsB8_
FNDA:1,_RNvNtNtNtCs1I4G5KWFz5n_15embedded_charts4grid5types5testss_14test_grid_type
FNDA:1,_RNvNtNtNtCs1I4G5KWFz5n_15embedded_charts4grid5types5testss_17test_grid_spacing
FNDA:1,_RNvNtNtNtCs1I4G5KWFz5n_15embedded_charts4grid5types5testss_25test_custom_grid_creation
FNDA:1,_RNvNtNtNtCs1I4G5KWFz5n_15embedded_charts4grid5types5testss_25test_linear_grid_creation
FNDA:1,_RNvNtNtNtCs1I4G5KWFz5n_15embedded_charts4grid5types5testss_29test_tick_based_grid_creation
FNF:61
FNH:25
DA:50,10
DA:51,10
DA:52,10
DA:53,10
DA:54,10
DA:55,10
DA:56,10
DA:57,10
DA:58,10
DA:59,10
DA:60,10
DA:61,10
DA:64,5
DA:65,5
DA:66,5
DA:67,5
DA:68,5
DA:69,5
DA:72,4
DA:73,4
DA:74,4
DA:75,4
DA:76,4
DA:77,4
DA:80,1
DA:81,1
DA:82,1
DA:83,1
DA:86,1
DA:87,1
DA:88,1
DA:89,1
DA:92,0
DA:93,0
DA:94,0
DA:98,0
DA:99,0
DA:100,0
DA:103,0
DA:104,0
DA:105,0
DA:108,0
DA:112,0
DA:113,0
DA:114,0
DA:115,0
DA:116,0
DA:117,0
DA:118,0
DA:119,0
DA:120,0
DA:122,0
DA:123,0
DA:124,0
DA:125,0
DA:126,0
DA:127,0
DA:128,0
DA:129,0
DA:130,0
DA:131,0
DA:135,0
DA:136,0
DA:137,0
DA:138,0
DA:139,0
DA:140,0
DA:141,0
DA:142,0
DA:145,0
DA:146,0
DA:148,2
DA:149,2
DA:150,2
DA:152,2
DA:153,2
DA:154,2
DA:156,0
DA:157,0
DA:158,0
DA:160,0
DA:161,0
DA:162,0
DA:164,0
DA:165,0
DA:166,0
DA:168,0
DA:169,0
DA:170,0
DA:171,0
DA:172,0
DA:174,0
DA:175,0
DA:176,0
DA:177,0
DA:178,0
DA:181,0
DA:182,0
DA:183,0
DA:184,0
DA:185,0
DA:189,0
DA:190,0
DA:192,0
DA:193,0
DA:194,0
DA:195,0
DA:196,0
DA:198,0
DA:200,0
DA:201,0
DA:202,0
DA:204,0
DA:205,0
DA:206,0
DA:236,2
DA:237,2
DA:238,2
DA:239,2
DA:240,2
DA:241,2
DA:242,2
DA:243,2
DA:244,2
DA:245,2
DA:246,2
DA:247,2
DA:248,2
DA:251,0
DA:252,0
DA:253,0
DA:254,0
DA:255,0
DA:256,0
DA:259,1
DA:260,1
DA:261,1
DA:262,1
DA:263,1
DA:264,1
DA:267,1
DA:268,1
DA:269,1
DA:270,1
DA:273,1
DA:274,1
DA:275,1
DA:276,1
DA:279,2
DA:280,2
DA:281,2
DA:284,0
DA:285,0
DA:286,0
DA:294,0
DA:295,0
DA:296,0
DA:297,0
DA:298,0
DA:299,0
DA:300,0
DA:301,0
DA:302,0
DA:303,0
DA:305,0
DA:306,0
DA:307,0
DA:308,0
DA:309,0
DA:310,0
DA:311,0
DA:312,0
DA:313,0
DA:314,0
DA:318,0
DA:319,0
DA:320,0
DA:321,0
DA:322,0
DA:323,0
DA:324,0
DA:325,0
DA:328,0
DA:329,0
DA:331,2
DA:332,2
DA:333,2
DA:335,0
DA:336,0
DA:337,0
DA:339,0
DA:340,0
DA:341,0
DA:343,0
DA:344,0
DA:345,0
DA:347,0
DA:348,0
DA:349,0
DA:351,0
DA:352,0
DA:353,0
DA:354,0
DA:355,0
DA:358,0
DA:360,0
DA:361,0
DA:362,0
DA:363,0
DA:364,0
DA:367,0
DA:368,0
DA:369,0
DA:370,0
DA:371,0
DA:375,0
DA:376,0
DA:378,0
DA:379,0
DA:380,0
DA:382,0
DA:383,0
DA:384,0
DA:386,0
DA:387,0
DA:388,0
DA:396,0
DA:397,0
DA:398,0
DA:399,0
DA:400,0
DA:401,0
DA:402,0
DA:403,0
DA:404,0
DA:405,0
DA:407,0
DA:408,0
DA:409,0
DA:410,0
DA:411,0
DA:412,0
DA:413,0
DA:414,0
DA:415,0
DA:416,0
DA:420,0
DA:421,0
DA:422,0
DA:423,0
DA:424,0
DA:425,0
DA:426,0
DA:427,0
DA:430,0
DA:431,0
DA:433,0
DA:434,0
DA:435,0
DA:436,0
DA:437,0
DA:438,0
DA:439,0
DA:440,0
DA:441,0
DA:442,0
DA:444,0
DA:445,0
DA:446,0
DA:447,0
DA:448,0
DA:449,0
DA:450,0
DA:453,0
DA:454,0
DA:456,0
DA:457,0
DA:458,0
DA:460,0
DA:461,0
DA:462,0
DA:482,2
DA:483,2
DA:484,2
DA:485,2
DA:486,2
DA:487,2
DA:488,2
DA:489,2
DA:490,2
DA:491,2
DA:492,2
DA:493,2
DA:496,1
DA:497,1
DA:498,1
DA:499,1
DA:500,1
DA:501,1
DA:504,0
DA:505,0
DA:506,0
DA:507,0
DA:508,0
DA:509,0
DA:512,5
DA:513,5
DA:514,5
DA:515,5
DA:516,5
DA:519,0
DA:520,0
DA:521,0
DA:522,0
DA:523,0
DA:526,0
DA:527,0
DA:528,0
DA:531,1
DA:532,1
DA:533,1
DA:534,1
DA:537,0
DA:538,0
DA:539,0
DA:540,0
DA:544,0
DA:545,0
DA:546,0
DA:547,0
DA:548,0
DA:549,0
DA:550,0
DA:552,0
DA:553,0
DA:554,0
DA:555,0
DA:556,0
DA:557,0
DA:558,0
DA:559,0
DA:560,0
DA:561,0
DA:565,0
DA:566,0
DA:567,0
DA:568,0
DA:569,0
DA:570,0
DA:571,0
DA:572,0
DA:575,0
DA:576,0
DA:578,2
DA:579,2
DA:580,2
DA:582,0
DA:583,0
DA:584,0
DA:586,1
DA:587,1
DA:588,1
DA:590,0
DA:591,0
DA:592,0
DA:594,0
DA:595,0
DA:596,0
DA:598,2
DA:599,2
DA:600,2
DA:602,0
DA:603,0
DA:604,0
DA:605,0
DA:606,0
DA:607,0
DA:608,0
DA:609,0
DA:610,0
DA:611,0
DA:612,0
DA:615,0
DA:616,0
DA:618,0
DA:619,0
DA:620,0
DA:622,0
DA:623,0
DA:624,0
DA:633,1
DA:634,1
DA:635,1
DA:636,1
DA:637,1
DA:640,1
DA:641,1
DA:642,1
DA:643,1
DA:644,1
DA:647,1
DA:648,1
DA:649,1
DA:651,1
DA:652,1
DA:653,1
DA:654,1
DA:655,1
DA:656,1
DA:657,1
DA:660,1
DA:661,1
DA:662,1
DA:663,1
DA:664,1
DA:667,1
DA:668,1
DA:669,1
DA:670,1
BRF:0
BRH:0
LF:420
LH:136
end_of_record
SF:/home/tasuku/com/github/signal-slot/embedded-charts/src/heapless_utils.rs
FN:215,_RINvNtNtCs1I4G5KWFz5n_15embedded_charts14heapless_utils3vec10find_indexpKpEB6_
FN:220,_RINvNtNtCs1I4G5KWFz5n_15embedded_charts14heapless_utils3vec11remove_itempKpEB6_
FN:192,_RINvNtNtCs1I4G5KWFz5n_15embedded_charts14heapless_utils3vec14try_from_slicepKpEB6_
FN:104,_RINvNtNtCs1I4G5KWFz5n_15embedded_charts14heapless_utils6string13push_str_safeKpEB6_
FN:216,_RNCINvNtNtCs1I4G5KWFz5n_15embedded_charts14heapless_utils3vec10find_indexpKpE0B8_
FN:196,_RNCINvNtNtCs1I4G5KWFz5n_15embedded_charts14heapless_utils3vec14try_from_slicepKpE0B8_
FN:107,_RNCINvNtNtCs1I4G5KWFz5n_15embedded_charts14heapless_utils6string13push_str_safeKpE0B8_
FN:284,_RNvMNtCs1I4G5KWFz5n_15embedded_charts14heapless_utilsINtB2_12HeaplessPoolpKpE7get_mutB4_
FN:345,_RNvMs0_NtCs1I4G5KWFz5n_15embedded_charts14heapless_utilsINtB5_14CircularBufferpKpE3popB7_
FN:383,_RNvMs0_NtCs1I4G5KWFz5n_15embedded_charts14heapless_utilsINtB5_14CircularBufferpKpE5clearB7_
FN:378,_RNvMs0_NtCs1I4G5KWFz5n_15embedded_charts14heapless_utilsINtB5_14CircularBufferpKpE8capacityB7_
FN:401,_RNvXININtCs1I4G5KWFz5n_15embedded_charts14heapless_utilss1_0pKpEINtB5_14CircularBufferpKpENtNtCs3XRySYX51hI_4core7default7Default7defaultB7_
FN:427,_RNvXININtCs1I4G5KWFz5n_15embedded_charts14heapless_utilss2_0pKpEINtB5_18CircularBufferIterpKpENtNtNtNtCs3XRySYX51hI_4core4iter6traits8iterator8Iterator9size_hintB7_
FN:305,_RNvXININtCs1I4G5KWFz5n_15embedded_charts14heapless_utilss_0pKpEINtB5_12HeaplessPoolpKpENtNtCs3XRySYX51hI_4core7default7Default7defaultB7_
FN:181,_RINvNtNtCs1I4G5KWFz5n_15embedded_charts14heapless_utils3vec11extend_safelAlj3_Kj8_EB6_
FN:200,_RINvNtNtCs1I4G5KWFz5n_15embedded_charts14heapless_utils3vec14insertion_sortlKj8_EB6_
FN:175,_RINvNtNtCs1I4G5KWFz5n_15embedded_charts14heapless_utils3vec9push_safelKj8_EB6_
FN:177,_RNCINvNtNtCs1I4G5KWFz5n_15embedded_charts14heapless_utils3vec9push_safelKj8_E0B8_
FN:265,_RNvMNtCs1I4G5KWFz5n_15embedded_charts14heapless_utilsINtB2_12HeaplessPoolINtNtCskfOXI52s3xc_8heapless6string6StringKj10_EKj4_E10deallocateB4_
FN:289,_RNvMNtCs1I4G5KWFz5n_15embedded_charts14heapless_utilsINtB2_12HeaplessPoolINtNtCskfOXI52s3xc_8heapless6string6StringKj10_EKj4_E15allocated_countB4_
FN:279,_RNvMNtCs1I4G5KWFz5n_15embedded_charts14heapless_utilsINtB2_12HeaplessPoolINtNtCskfOXI52s3xc_8heapless6string6StringKj10_EKj4_E3getB4_
FN:241,_RNvMNtCs1I4G5KWFz5n_15embedded_charts14heapless_utilsINtB2_12HeaplessPoolINtNtCskfOXI52s3xc_8heapless6string6StringKj10_EKj4_E3newB4_
FN:294,_RNvMNtCs1I4G5KWFz5n_15embedded_charts14heapless_utilsINtB2_12HeaplessPoolINtNtCskfOXI52s3xc_8heapless6string6StringKj10_EKj4_E7is_fullB4_
FN:255,_RNvMNtCs1I4G5KWFz5n_15embedded_charts14heapless_utilsINtB2_12HeaplessPoolINtNtCskfOXI52s3xc_8heapless6string6StringKj10_EKj4_E8allocateB4_
FN:299,_RNvMNtCs1I4G5KWFz5n_15embedded_charts14heapless_utilsINtB2_12HeaplessPoolINtNtCskfOXI52s3xc_8heapless6string6StringKj10_EKj4_E8is_emptyB4_
FN:357,_RNvMs0_NtCs1I4G5KWFz5n_15embedded_charts14heapless_utilsINtB5_14CircularBufferlKj4_E3lenB7_
FN:320,_RNvMs0_NtCs1I4G5KWFz5n_15embedded_charts14heapless_utilsINtB5_14CircularBufferlKj4_E3newB7_
FN:391,_RNvMs0_NtCs1I4G5KWFz5n_15embedded_charts14heapless_utilsINtB5_14CircularBufferlKj4_E4iterB7_
FN:330,_RNvMs0_NtCs1I4G5KWFz5n_15embedded_charts14heapless_utilsINtB5_14CircularBufferlKj4_E4pushB7_
FN:373,_RNvMs0_NtCs1I4G5KWFz5n_15embedded_charts14heapless_utilsINtB5_14CircularBufferlKj4_E7is_fullB7_
FN:368,_RNvMs0_NtCs1I4G5KWFz5n_15embedded_charts14heapless_utilsINtB5_14CircularBufferlKj4_E8is_emptyB7_
FN:416,_RNvXs2_NtCs1I4G5KWFz5n_15embedded_charts14heapless_utilsINtB5_18CircularBufferIterlKj4_ENtNtNtNtCs3XRySYX51hI_4core4iter6traits8iterator8Iterator4nextB7_
FN:530,_RNvMs4_NtCs1I4G5KWFz5n_15embedded_charts14heapless_utilsNtB5_14HeaplessConfig7default
FN:93,_RINvNtNtCs1I4G5KWFz5n_15embedded_charts14heapless_utils6string12try_from_strKj10_EB6_
FN:93,_RINvNtNtCs1I4G5KWFz5n_15embedded_charts14heapless_utils6string12try_from_strKj8_EB6_
FN:118,_RINvNtNtCs1I4G5KWFz5n_15embedded_charts14heapless_utils6string13format_numberKj10_EB6_
FN:148,_RINvNtNtCs1I4G5KWFz5n_15embedded_charts14heapless_utils6string14format_integerKj10_EB6_
FN:111,_RINvNtNtCs1I4G5KWFz5n_15embedded_charts14heapless_utils6string14push_char_safeKj10_EB6_
FN:98,_RINvNtNtCs1I4G5KWFz5n_15embedded_charts14heapless_utils6string17from_str_truncateKj8_EB6_
FN:94,_RNCINvNtNtCs1I4G5KWFz5n_15embedded_charts14heapless_utils6string12try_from_strKj10_E0B8_
FN:94,_RNCINvNtNtCs1I4G5KWFz5n_15embedded_charts14heapless_utils6string12try_from_strKj8_E0B8_
FN:157,_RNCINvNtNtCs1I4G5KWFz5n_15embedded_charts14heapless_utils6string14format_integerKj10_E0B8_
FN:114,_RNCINvNtNtCs1I4G5KWFz5n_15embedded_charts14heapless_utils6string14push_char_safeKj10_E0B8_
FN:100,_RNCINvNtNtCs1I4G5KWFz5n_15embedded_charts14heapless_utils6string17from_str_truncateKj8_E0B8_
FN:631,_RNvNtNtCs1I4G5KWFz5n_15embedded_charts14heapless_utils5testss_16test_memory_pool
FN:586,_RNvNtNtCs1I4G5KWFz5n_15embedded_charts14heapless_utils5testss_18test_vec_utilities
FN:604,_RNvNtNtCs1I4G5KWFz5n_15embedded_charts14heapless_utils5testss_20test_circular_buffer
FN:652,_RNvNtNtCs1I4G5KWFz5n_15embedded_charts14heapless_utils5testss_20test_heapless_config
FN:565,_RNvNtNtCs1I4G5KWFz5n_15embedded_charts14heapless_utils5testss_21test_string_utilities
FNDA:0,_RINvNtNtCs1I4G5KWFz5n_15embedded_charts14heapless_utils3vec10find_indexpKpEB6_
FNDA:0,_RINvNtNtCs1I4G5KWFz5n_15embedded_charts14heapless_utils3vec11remove_itempKpEB6_
FNDA:0,_RINvNtNtCs1I4G5KWFz5n_15embedded_charts14heapless_utils3vec14try_from_slicepKpEB6_
FNDA:0,_RINvNtNtCs1I4G5KWFz5n_15embedded_charts14heapless_utils6string13push_str_safeKpEB6_
FNDA:0,_RNCINvNtNtCs1I4G5KWFz5n_15embedded_charts14heapless_utils3vec10find_indexpKpE0B8_
FNDA:0,_RNCINvNtNtCs1I4G5KWFz5n_15embedded_charts14heapless_utils3vec14try_from_slicepKpE0B8_
FNDA:0,_RNCINvNtNtCs1I4G5KWFz5n_15embedded_charts14heapless_utils6string13push_str_safeKpE0B8_
FNDA:0,_RNvMNtCs1I4G5KWFz5n_15embedded_charts14heapless_utilsINtB2_12HeaplessPoolpKpE7get_mutB4_
FNDA:0,_RNvMs0_NtCs1I4G5KWFz5n_15embedded_charts14heapless_utilsINtB5_14CircularBufferpKpE3popB7_
FNDA:0,_RNvMs0_NtCs1I4G5KWFz5n_15embedded_charts14heapless_utilsINtB5_14CircularBufferpKpE5clearB7_
FNDA:0,_RNvMs0_NtCs1I4G5KWFz5n_15embedded_charts14heapless_utilsINtB5_14CircularBufferpKpE8capacityB7_
FNDA:0,_RNvXININtCs1I4G5KWFz5n_15embedded_charts14heapless_utilss1_0pKpEINtB5_14CircularBufferpKpENtNtCs3XRySYX51hI_4core7default7Default7defaultB7_
FNDA:0,_RNvXININtCs1I4G5KWFz5n_15embedded_charts14heapless_utilss2_0pKpEINtB5_18CircularBufferIterpKpENtNtNtNtCs3XRySYX51hI_4core4iter6traits8iterator8Iterator9size_hintB7_
FNDA:0,_RNvXININtCs1I4G5KWFz5n_15embedded_charts14heapless_utilss_0pKpEINtB5_12HeaplessPoolpKpENtNtCs3XRySYX51hI_4core7default7Default7defaultB7_
FNDA:1,_RINvNtNtCs1I4G5KWFz5n_15embedded_charts14heapless_utils3vec11extend_safelAlj3_Kj8_EB6_
FNDA:1,_RINvNtNtCs1I4G5KWFz5n_15embedded_charts14heapless_utils3vec14insertion_sortlKj8_EB6_
FNDA:4,_RINvNtNtCs1I4G5KWFz5n_15embedded_charts14heapless_utils3vec9push_safelKj8_EB6_
FNDA:0,_RNCINvNtNtCs1I4G5KWFz5n_15embedded_charts14heapless_utils3vec9push_safelKj8_E0B8_
FNDA:1,_RNvMNtCs1I4G5KWFz5n_15embedded_charts14heapless_utilsINtB2_12HeaplessPoolINtNtCskfOXI52s3xc_8heapless6string6StringKj10_EKj4_E10deallocateB4_
FNDA:2,_RNvMNtCs1I4G5KWFz5n_15embedded_charts14heapless_utilsINtB2_12HeaplessPoolINtNtCskfOXI52s3xc_8heapless6string6StringKj10_EKj4_E15allocated_countB4_
FNDA:2,_RNvMNtCs1I4G5KWFz5n_15embedded_charts14heapless_utilsINtB2_12HeaplessPoolINtNtCskfOXI52s3xc_8heapless6string6StringKj10_EKj4_E3getB4_
FNDA:1,_RNvMNtCs1I4G5KWFz5n_15embedded_charts14heapless_utilsINtB2_12HeaplessPoolINtNtCskfOXI52s3xc_8heapless6string6StringKj10_EKj4_E3newB4_
FNDA:1,_RNvMNtCs1I4G5KWFz5n_15embedded_charts14heapless_utilsINtB2_12HeaplessPoolINtNtCskfOXI52s3xc_8heapless6string6StringKj10_EKj4_E7is_fullB4_
FNDA:2,_RNvMNtCs1I4G5KWFz5n_15embedded_charts14heapless_utilsINtB2_12HeaplessPoolINtNtCskfOXI52s3xc_8heapless6string6StringKj10_EKj4_E8allocateB4_
FNDA:1,_RNvMNtCs1I4G5KWFz5n_15embedded_charts14heapless_utilsINtB2_12HeaplessPoolINtNtCskfOXI52s3xc_8heapless6string6StringKj10_EKj4_E8is_emptyB4_
FNDA:5,_RNvMs0_NtCs1I4G5KWFz5n_15embedded_charts14heapless_utilsINtB5_14CircularBufferlKj4_E3lenB7_
FNDA:1,_RNvMs0_NtCs1I4G5KWFz5n_15embedded_charts14heapless_utilsINtB5_14CircularBufferlKj4_E3newB7_
FNDA:1,_RNvMs0_NtCs1I4G5KWFz5n_15embedded_charts14heapless_utilsINtB5_14CircularBufferlKj4_E4iterB7_
FNDA:5,_RNvMs0_NtCs1I4G5KWFz5n_15embedded_charts14heapless_utilsINtB5_14CircularBufferlKj4_E4pushB7_
FNDA:1,_RNvMs0_NtCs1I4G5KWFz5n_15embedded_charts14heapless_utilsINtB5_14CircularBufferlKj4_E7is_fullB7_
FNDA:1,_RNvMs0_NtCs1I4G5KWFz5n_15embedded_charts14heapless_utilsINtB5_14CircularBufferlKj4_E8is_emptyB7_
FNDA:5,_RNvXs2_NtCs1I4G5KWFz5n_15embedded_charts14heapless_utilsINtB5_18CircularBufferIterlKj4_ENtNtNtNtCs3XRySYX51hI_4core4iter6traits8iterator8Iterator4nextB7_
FNDA:1,_RNvMs4_NtCs1I4G5KWFz5n_15embedded_charts14heapless_utilsNtB5_14HeaplessConfig7default
FNDA:1,_RINvNtNtCs1I4G5KWFz5n_15embedded_charts14heapless_utils6string12try_from_strKj10_EB6_
FNDA:1,_RINvNtNtCs1I4G5KWFz5n_15embedded_charts14heapless_utils6string12try_from_strKj8_EB6_
FNDA:1,_RINvNtNtCs1I4G5KWFz5n_15embedded_charts14heapless_utils6string13format_numberKj10_EB6_
FNDA:1,_RINvNtNtCs1I4G5KWFz5n_15embedded_charts14heapless_utils6string14format_integerKj10_EB6_
FNDA:3,_RINvNtNtCs1I4G5KWFz5n_15embedded_charts14heapless_utils6string14push_char_safeKj10_EB6_
FNDA:1,_RINvNtNtCs1I4G5KWFz5n_15embedded_charts14heapless_utils6string17from_str_truncateKj8_EB6_
FNDA:0,_RNCINvNtNtCs1I4G5KWFz5n_15embedded_charts14heapless_utils6string12try_from_strKj10_E0B8_
FNDA:1,_RNCINvNtNtCs1I4G5KWFz5n_15embedded_charts14heapless_utils6string12try_from_strKj8_E0B8_
FNDA:0,_RNCINvNtNtCs1I4G5KWFz5n_15embedded_charts14heapless_utils6string14format_integerKj10_E0B8_
FNDA:0,_RNCINvNtNtCs1I4G5KWFz5n_15embedded_charts14heapless_utils6string14push_char_safeKj10_E0B8_
FNDA:0,_RNCINvNtNtCs1I4G5KWFz5n_15embedded_charts14heapless_utils6string17from_str_truncateKj8_E0B8_
FNDA:1,_RNvNtNtCs1I4G5KWFz5n_15embedded_charts14heapless_utils5testss_16test_memory_pool
FNDA:1,_RNvNtNtCs1I4G5KWFz5n_15embedded_charts14heapless_utils5testss_18test_vec_utilities
FNDA:1,_RNvNtNtCs1I4G5KWFz5n_15embedded_charts14heapless_utils5testss_20test_circular_buffer
FNDA:1,_RNvNtNtCs1I4G5KWFz5n_15embedded_charts14heapless_utils5testss_20test_heapless_config
FNDA:1,_RNvNtNtCs1I4G5KWFz5n_15embedded_charts14heapless_utils5testss_21test_string_utilities
FNF:47
FNH:29
DA:93,2
DA:94,2
DA:95,2
DA:98,1
DA:99,1
DA:100,1
DA:101,1
DA:104,0
DA:105,0
DA:106,0
DA:107,0
DA:108,0
DA:111,3
DA:112,3
DA:113,3
DA:114,3
DA:115,3
DA:118,1
DA:119,1
DA:120,1
DA:121,1
DA:122,1
DA:123,0
DA:124,1
DA:126,1
DA:129,1
DA:130,1
DA:131,1
DA:132,1
DA:133,1
DA:134,1
DA:135,1
DA:136,1
DA:137,2
DA:138,2
DA:139,2
DA:140,2
DA:141,2
DA:142,0
DA:144,1
DA:145,1
DA:148,1
DA:149,1
DA:150,0
DA:151,1
DA:152,1
DA:153,1
DA:154,4
DA:155,3
DA:156,3
DA:157,3
DA:158,3
DA:162,3
DA:163,3
DA:166,1
DA:167,1
DA:175,4
DA:176,4
DA:177,4
DA:178,4
DA:181,1
DA:182,1
DA:183,1
DA:184,1
DA:185,4
DA:186,3
DA:188,1
DA:189,1
DA:192,0
DA:193,0
DA:194,0
DA:195,0
DA:196,0
DA:197,0
DA:200,1
DA:201,1
DA:202,3
DA:203,3
DA:204,3
DA:206,6
DA:207,3
DA:208,3
DA:209,3
DA:210,3
DA:212,1
DA:215,0
DA:216,0
DA:217,0
DA:220,0
DA:221,0
DA:222,0
DA:223,0
DA:224,0
DA:225,0
DA:226,0
DA:228,0
DA:230,0
DA:241,1
DA:242,1
DA:243,1
DA:246,5
DA:247,4
DA:248,4
DA:249,4
DA:251,1
DA:252,1
DA:255,2
DA:256,2
DA:257,2
DA:258,2
DA:260,0
DA:262,2
DA:265,1
DA:266,1
DA:267,1
DA:268,1
DA:269,1
DA:271,0
DA:274,0
DA:276,1
DA:279,2
DA:280,2
DA:281,2
DA:284,0
DA:285,0
DA:286,0
DA:289,2
DA:290,2
DA:291,2
DA:294,1
DA:295,1
DA:296,1
DA:299,1
DA:300,1
DA:301,1
DA:305,0
DA:306,0
DA:307,0
DA:320,1
DA:321,1
DA:322,1
DA:323,1
DA:324,1
DA:325,1
DA:326,1
DA:327,1
DA:330,5
DA:331,5
DA:332,5
DA:333,5
DA:334,1
DA:335,4
DA:337,5
DA:338,5
DA:339,5
DA:340,2
DA:341,3
DA:342,5
DA:345,0
DA:346,0
DA:347,0
DA:348,0
DA:349,0
DA:350,0
DA:351,0
DA:352,0
DA:353,0
DA:354,0
DA:357,5
DA:358,5
DA:359,3
DA:360,2
DA:361,2
DA:363,0
DA:365,5
DA:368,1
DA:369,1
DA:370,1
DA:373,1
DA:374,1
DA:375,1
DA:378,0
DA:379,0
DA:380,0
DA:383,0
DA:384,0
DA:385,0
DA:386,0
DA:387,0
DA:388,0
DA:391,1
DA:392,1
DA:393,1
DA:394,1
DA:395,1
DA:396,1
DA:397,1
DA:401,0
DA:402,0
DA:403,0
DA:416,5
DA:417,5
DA:418,1
DA:419,4
DA:421,4
DA:422,4
DA:423,4
DA:424,4
DA:425,5
DA:427,0
DA:428,0
DA:429,0
DA:530,1
DA:531,1
DA:532,1
DA:533,1
DA:534,1
DA:535,1
DA:536,1
DA:537,1
DA:538,1
DA:539,1
DA:540,1
DA:541,1
DA:542,1
DA:543,1
DA:544,1
DA:545,1
DA:546,1
DA:547,1
DA:548,1
DA:549,1
DA:550,1
DA:551,1
DA:552,1
DA:553,1
DA:554,1
DA:555,1
DA:556,1
DA:557,1
DA:565,1
DA:566,1
DA:567,1
DA:568,1
DA:569,1
DA:572,1
DA:573,1
DA:576,1
DA:577,1
DA:580,1
DA:581,1
DA:582,1
DA:583,1
DA:586,1
DA:587,1
DA:588,1
DA:589,1
DA:590,1
DA:591,1
DA:592,1
DA:595,1
DA:596,1
DA:599,1
DA:600,1
DA:601,1
DA:604,1
DA:605,1
DA:606,1
DA:607,1
DA:608,1
DA:611,1
DA:612,1
DA:613,1
DA:614,1
DA:617,1
DA:618,1
DA:619,1
DA:622,1
DA:623,1
DA:626,1
DA:627,1
DA:628,1
DA:631,1
DA:632,1
DA:633,1
DA:634,1
DA:635,1
DA:638,1
DA:639,1
DA:640,1
DA:641,1
DA:642,1
DA:643,1
DA:646,1
DA:647,1
DA:648,1
DA:649,1
DA:652,1
DA:653,1
DA:654,1
DA:655,1
DA:656,1
BRF:0
BRH:0
LF:310
LH:242
end_of_record
SF:/home/tasuku/com/github/signal-slot/embedded-charts/src/layout.rs
FN:416,_RNCNvMs0_NtCs1I4G5KWFz5n_15embedded_charts6layoutNtB7_20ComponentPositioning19distribute_vertical0B9_
FN:431,_RNCNvMs0_NtCs1I4G5KWFz5n_15embedded_charts6layoutNtB7_20ComponentPositioning19distribute_verticals_0B9_
FN:382,_RNCNvMs0_NtCs1I4G5KWFz5n_15embedded_charts6layoutNtB7_20ComponentPositioning21distribute_horizontal0B9_
FN:397,_RNCNvMs0_NtCs1I4G5KWFz5n_15embedded_charts6layoutNtB7_20ComponentPositioning21distribute_horizontals_0B9_
FN:214,_RNvMNtCs1I4G5KWFz5n_15embedded_charts6layoutNtB2_11ChartLayout10chart_area
FN:70,_RNvMNtCs1I4G5KWFz5n_15embedded_charts6layoutNtB2_11ChartLayout11with_legend
FN:162,_RNvMNtCs1I4G5KWFz5n_15embedded_charts6layoutNtB2_11ChartLayout11with_x_axis
FN:188,_RNvMNtCs1I4G5KWFz5n_15embedded_charts6layoutNtB2_11ChartLayout11with_y_axis
FN:219,_RNvMNtCs1I4G5KWFz5n_15embedded_charts6layoutNtB2_11ChartLayout8validate
FN:405,_RNvMs0_NtCs1I4G5KWFz5n_15embedded_charts6layoutNtB5_20ComponentPositioning19distribute_vertical
FN:371,_RNvMs0_NtCs1I4G5KWFz5n_15embedded_charts6layoutNtB5_20ComponentPositioning21distribute_horizontal
FN:268,_RNvMs_NtCs1I4G5KWFz5n_15embedded_charts6layoutNtB4_8Viewport11with_offset
FN:274,_RNvMs_NtCs1I4G5KWFz5n_15embedded_charts6layoutNtB4_8Viewport15transform_point
FN:302,_RNvMs_NtCs1I4G5KWFz5n_15embedded_charts6layoutNtB4_8Viewport16is_point_visible
FN:310,_RNvMs_NtCs1I4G5KWFz5n_15embedded_charts6layoutNtB4_8Viewport19visible_data_bounds
FN:44,_RNvMNtCs1I4G5KWFz5n_15embedded_charts6layoutNtB2_11ChartLayout10with_title
FN:38,_RNvMNtCs1I4G5KWFz5n_15embedded_charts6layoutNtB2_11ChartLayout12with_margins
FN:26,_RNvMNtCs1I4G5KWFz5n_15embedded_charts6layoutNtB2_11ChartLayout3new
FN:331,_RNvMs0_NtCs1I4G5KWFz5n_15embedded_charts6layoutNtB5_20ComponentPositioning14align_top_left
FN:339,_RNvMs0_NtCs1I4G5KWFz5n_15embedded_charts6layoutNtB5_20ComponentPositioning15align_top_right
FN:349,_RNvMs0_NtCs1I4G5KWFz5n_15embedded_charts6layoutNtB5_20ComponentPositioning17align_bottom_left
FN:359,_RNvMs0_NtCs1I4G5KWFz5n_15embedded_charts6layoutNtB5_20ComponentPositioning18align_bottom_right
FN:322,_RNvMs0_NtCs1I4G5KWFz5n_15embedded_charts6layoutNtB5_20ComponentPositioning19center_in_container
FN:253,_RNvMs_NtCs1I4G5KWFz5n_15embedded_charts6layoutNtB4_8Viewport3new
FN:262,_RNvMs_NtCs1I4G5KWFz5n_15embedded_charts6layoutNtB4_8Viewport9with_zoom
FN:464,_RNvNtNtCs1I4G5KWFz5n_15embedded_charts6layout5testss_22test_layout_with_title
FN:475,_RNvNtNtCs1I4G5KWFz5n_15embedded_charts6layout5testss_22test_viewport_creation
FN:485,_RNvNtNtCs1I4G5KWFz5n_15embedded_charts6layout5testss_23test_viewport_with_zoom
FN:454,_RNvNtNtCs1I4G5KWFz5n_15embedded_charts6layout5testss_24test_layout_with_margins
FN:444,_RNvNtNtCs1I4G5KWFz5n_15embedded_charts6layout5testss_26test_chart_layout_creation
FN:493,_RNvNtNtCs1I4G5KWFz5n_15embedded_charts6layout5testss_33test_component_positioning_center
FN:502,_RNvNtNtCs1I4G5KWFz5n_15embedded_charts6layout5testss_34test_component_positioning_corners
FNDA:0,_RNCNvMs0_NtCs1I4G5KWFz5n_15embedded_charts6layoutNtB7_20ComponentPositioning19distribute_vertical0B9_
FNDA:0,_RNCNvMs0_NtCs1I4G5KWFz5n_15embedded_charts6layoutNtB7_20ComponentPositioning19distribute_verticals_0B9_
FNDA:0,_RNCNvMs0_NtCs1I4G5KWFz5n_15embedded_charts6layoutNtB7_20ComponentPositioning21distribute_horizontal0B9_
FNDA:0,_RNCNvMs0_NtCs1I4G5KWFz5n_15embedded_charts6layoutNtB7_20ComponentPositioning21distribute_horizontals_0B9_
FNDA:0,_RNvMNtCs1I4G5KWFz5n_15embedded_charts6layoutNtB2_11ChartLayout10chart_area
FNDA:0,_RNvMNtCs1I4G5KWFz5n_15embedded_charts6layoutNtB2_11ChartLayout11with_legend
FNDA:0,_RNvMNtCs1I4G5KWFz5n_15embedded_charts6layoutNtB2_11ChartLayout11with_x_axis
FNDA:0,_RNvMNtCs1I4G5KWFz5n_15embedded_charts6layoutNtB2_11ChartLayout11with_y_axis
FNDA:0,_RNvMNtCs1I4G5KWFz5n_15embedded_charts6layoutNtB2_11ChartLayout8validate
FNDA:0,_RNvMs0_NtCs1I4G5KWFz5n_15embedded_charts6layoutNtB5_20ComponentPositioning19distribute_vertical
FNDA:0,_RNvMs0_NtCs1I4G5KWFz5n_15embedded_charts6layoutNtB5_20ComponentPositioning21distribute_horizontal
FNDA:0,_RNvMs_NtCs1I4G5KWFz5n_15embedded_charts6layoutNtB4_8Viewport11with_offset
FNDA:0,_RNvMs_NtCs1I4G5KWFz5n_15embedded_charts6layoutNtB4_8Viewport15transform_point
FNDA:0,_RNvMs_NtCs1I4G5KWFz5n_15embedded_charts6layoutNtB4_8Viewport16is_point_visible
FNDA:0,_RNvMs_NtCs1I4G5KWFz5n_15embedded_charts6layoutNtB4_8Viewport19visible_data_bounds
FNDA:1,_RNvMNtCs1I4G5KWFz5n_15embedded_charts6layoutNtB2_11ChartLayout10with_title
FNDA:1,_RNvMNtCs1I4G5KWFz5n_15embedded_charts6layoutNtB2_11ChartLayout12with_margins
FNDA:3,_RNvMNtCs1I4G5KWFz5n_15embedded_charts6layoutNtB2_11ChartLayout3new
FNDA:1,_RNvMs0_NtCs1I4G5KWFz5n_15embedded_charts6layoutNtB5_20ComponentPositioning14align_top_left
FNDA:1,_RNvMs0_NtCs1I4G5KWFz5n_15embedded_charts6layoutNtB5_20ComponentPositioning15align_top_right
FNDA:1,_RNvMs0_NtCs1I4G5KWFz5n_15embedded_charts6layoutNtB5_20ComponentPositioning17align_bottom_left
FNDA:1,_RNvMs0_NtCs1I4G5KWFz5n_15embedded_charts6layoutNtB5_20ComponentPositioning18align_bottom_right
FNDA:1,_RNvMs0_NtCs1I4G5KWFz5n_15embedded_charts6layoutNtB5_20ComponentPositioning19center_in_container
FNDA:2,_RNvMs_NtCs1I4G5KWFz5n_15embedded_charts6layoutNtB4_8Viewport3new
FNDA:1,_RNvMs_NtCs1I4G5KWFz5n_15embedded_charts6layoutNtB4_8Viewport9with_zoom
FNDA:1,_RNvNtNtCs1I4G5KWFz5n_15embedded_charts6layout5testss_22test_layout_with_title
FNDA:1,_RNvNtNtCs1I4G5KWFz5n_15embedded_charts6layout5testss_22test_viewport_creation
FNDA:1,_RNvNtNtCs1I4G5KWFz5n_15embedded_charts6layout5testss_23test_viewport_with_zoom
FNDA:1,_RNvNtNtCs1I4G5KWFz5n_15embedded_charts6layout5testss_24test_layout_with_margins
FNDA:1,_RNvNtNtCs1I4G5KWFz5n_15embedded_charts6layout5testss_26test_chart_layout_creation
FNDA:1,_RNvNtNtCs1I4G5KWFz5n_15embedded_charts6layout5testss_33test_component_positioning_center
FNDA:1,_RNvNtNtCs1I4G5KWFz5n_15embedded_charts6layout5testss_34test_component_positioning_corners
FNF:32
FNH:17
DA:26,3
DA:27,3
DA:28,3
DA:29,3
DA:30,3
DA:31,3
DA:32,3
DA:33,3
DA:34,3
DA:35,3
DA:38,1
DA:39,1
DA:40,1
DA:41,1
DA:44,1
DA:45,1
DA:46,0
DA:47,1
DA:48,1
DA:49,1
DA:50,1
DA:51,1
DA:52,1
DA:53,1
DA:54,1
DA:55,1
DA:56,1
DA:57,1
DA:58,1
DA:59,1
DA:60,1
DA:61,1
DA:62,1
DA:63,1
DA:64,1
DA:65,1
DA:66,1
DA:67,1
DA:70,0
DA:71,0
DA:73,0
DA:74,0
DA:75,0
DA:76,0
DA:77,0
DA:78,0
DA:79,0
DA:80,0
DA:81,0
DA:82,0
DA:83,0
DA:84,0
DA:85,0
DA:86,0
DA:87,0
DA:88,0
DA:89,0
DA:90,0
DA:91,0
DA:92,0
DA:93,0
DA:96,0
DA:97,0
DA:98,0
DA:99,0
DA:100,0
DA:101,0
DA:102,0
DA:103,0
DA:104,0
DA:105,0
DA:106,0
DA:107,0
DA:108,0
DA:109,0
DA:110,0
DA:111,0
DA:112,0
DA:113,0
DA:114,0
DA:115,0
DA:116,0
DA:119,0
DA:120,0
DA:121,0
DA:122,0
DA:123,0
DA:124,0
DA:125,0
DA:126,0
DA:127,0
DA:128,0
DA:129,0
DA:130,0
DA:131,0
DA:132,0
DA:133,0
DA:134,0
DA:135,0
DA:138,0
DA:139,0
DA:140,0
DA:141,0
DA:142,0
DA:143,0
DA:144,0
DA:145,0
DA:146,0
DA:147,0
DA:148,0
DA:149,0
DA:150,0
DA:151,0
DA:152,0
DA:153,0
DA:154,0
DA:158,0
DA:159,0
DA:162,0
DA:163,0
DA:164,0
DA:165,0
DA:166,0
DA:167,0
DA:168,0
DA:169,0
DA:170,0
DA:171,0
DA:172,0
DA:173,0
DA:174,0
DA:175,0
DA:176,0
DA:177,0
DA:178,0
DA:179,0
DA:180,0
DA:181,0
DA:182,0
DA:183,0
DA:184,0
DA:185,0
DA:188,0
DA:189,0
DA:190,0
DA:191,0
DA:192,0
DA:193,0
DA:194,0
DA:195,0
DA:196,0
DA:197,0
DA:198,0
DA:199,0
DA:200,0
DA:201,0
DA:202,0
DA:203,0
DA:204,0
DA:205,0
DA:206,0
DA:207,0
DA:208,0
DA:209,0
DA:210,0
DA:211,0
DA:214,0
DA:215,0
DA:216,0
DA:219,0
DA:220,0
DA:221,0
DA:222,0
DA:223,0
DA:224,0
DA:253,2
DA:254,2
DA:255,2
DA:256,2
DA:257,2
DA:258,2
DA:259,2
DA:262,1
DA:263,1
DA:264,1
DA:265,1
DA:268,0
DA:269,0
DA:270,0
DA:271,0
DA:274,0
DA:276,0
DA:277,0
DA:279,0
DA:282,0
DA:283,0
DA:285,0
DA:289,0
DA:290,0
DA:291,0
DA:292,0
DA:293,0
DA:294,0
DA:295,0
DA:296,0
DA:297,0
DA:298,0
DA:299,0
DA:302,0
DA:303,0
DA:304,0
DA:305,0
DA:306,0
DA:307,0
DA:310,0
DA:311,0
DA:312,0
DA:313,0
DA:314,0
DA:322,1
DA:323,1
DA:324,1
DA:325,1
DA:326,1
DA:327,1
DA:328,1
DA:331,1
DA:332,1
DA:333,1
DA:334,1
DA:335,1
DA:336,1
DA:339,1
DA:340,1
DA:341,1
DA:342,1
DA:343,1
DA:344,1
DA:345,1
DA:346,1
DA:349,1
DA:350,1
DA:351,1
DA:352,1
DA:353,1
DA:354,1
DA:355,1
DA:356,1
DA:359,1
DA:360,1
DA:361,1
DA:362,1
DA:363,1
DA:364,1
DA:365,1
DA:366,1
DA:367,1
DA:368,1
DA:371,0
DA:372,0
DA:373,0
DA:374,0
DA:375,0
DA:376,0
DA:377,0
DA:378,0
DA:379,0
DA:380,0
DA:381,0
DA:382,0
DA:383,0
DA:384,0
DA:385,0
DA:386,0
DA:387,0
DA:388,0
DA:389,0
DA:390,0
DA:391,0
DA:393,0
DA:394,0
DA:395,0
DA:396,0
DA:397,0
DA:398,0
DA:401,0
DA:402,0
DA:405,0
DA:406,0
DA:407,0
DA:408,0
DA:409,0
DA:410,0
DA:411,0
DA:412,0
DA:413,0
DA:414,0
DA:415,0
DA:416,0
DA:417,0
DA:418,0
DA:419,0
DA:420,0
DA:421,0
DA:422,0
DA:423,0
DA:424,0
DA:425,0
DA:427,0
DA:428,0
DA:429,0
DA:430,0
DA:431,0
DA:432,0
DA:435,0
DA:436,0
DA:444,1
DA:445,1
DA:446,1
DA:447,1
DA:448,1
DA:449,1
DA:450,1
DA:451,1
DA:454,1
DA:455,1
DA:456,1
DA:457,1
DA:458,1
DA:459,1
DA:460,1
DA:461,1
DA:464,1
DA:465,1
DA:466,1
DA:467,1
DA:468,1
DA:469,1
DA:470,1
DA:471,1
DA:472,1
DA:475,1
DA:476,1
DA:477,1
DA:478,1
DA:479,1
DA:480,1
DA:481,1
DA:482,1
DA:485,1
DA:486,1
DA:487,1
DA:488,1
DA:489,1
DA:490,1
DA:493,1
DA:494,1
DA:495,1
DA:496,1
DA:497,1
DA:498,1
DA:499,1
DA:502,1
DA:503,1
DA:504,1
DA:505,1
DA:506,1
DA:507,1
DA:508,1
DA:510,1
DA:511,1
DA:513,1
DA:514,1
DA:515,1
DA:517,1
DA:518,1
DA:519,1
DA:520,1
BRF:0
BRH:0
LF:382
LH:149
end_of_record
SF:/home/tasuku/com/github/signal-slot/embedded-charts/src/legend/builder.rs
FN:445,_RINvNtNtNtCs1I4G5KWFz5n_15embedded_charts6legend7builder7presets13bottom_legendpEB8_
FN:452,_RINvNtNtNtCs1I4G5KWFz5n_15embedded_charts6legend7builder7presets14minimal_legendpEB8_
FN:467,_RINvNtNtNtCs1I4G5KWFz5n_15embedded_charts6legend7builder7presets15floating_legendpEB8_
FN:459,_RINvNtNtNtCs1I4G5KWFz5n_15embedded_charts6legend7builder7presets19professional_legendpEB8_
FN:207,_RNCNvMNtNtCs1I4G5KWFz5n_15embedded_charts6legend7builderINtB4_21StandardLegendBuilderpE13add_pie_entry0B8_
FN:223,_RNCNvMNtNtCs1I4G5KWFz5n_15embedded_charts6legend7builderINtB4_21StandardLegendBuilderpE16add_custom_entry0B8_
FN:193,_RNCNvMNtNtCs1I4G5KWFz5n_15embedded_charts6legend7builderINtB4_21StandardLegendBuilderpE25add_bar_entry_with_border0B8_
FN:159,_RNCNvMNtNtCs1I4G5KWFz5n_15embedded_charts6legend7builderINtB4_21StandardLegendBuilderpE26add_line_entry_with_marker0B8_
FN:232,_RNCNvMNtNtCs1I4G5KWFz5n_15embedded_charts6legend7builderINtB4_21StandardLegendBuilderpE9add_entry0B8_
FN:311,_RNCNvMs1_NtNtCs1I4G5KWFz5n_15embedded_charts6legend7builderINtB7_20CompactLegendBuilderpE16add_simple_entry0Bb_
FN:198,_RNvMNtNtCs1I4G5KWFz5n_15embedded_charts6legend7builderINtB2_21StandardLegendBuilderpE13add_pie_entryB6_
FN:237,_RNvMNtNtCs1I4G5KWFz5n_15embedded_charts6legend7builderINtB2_21StandardLegendBuilderpE13clear_entriesB6_
FN:111,_RNvMNtNtCs1I4G5KWFz5n_15embedded_charts6legend7builderINtB2_21StandardLegendBuilderpE13compact_styleB6_
FN:99,_RNvMNtNtCs1I4G5KWFz5n_15embedded_charts6legend7builderINtB2_21StandardLegendBuilderpE13minimal_styleB6_
FN:212,_RNvMNtNtCs1I4G5KWFz5n_15embedded_charts6legend7builderINtB2_21StandardLegendBuilderpE16add_custom_entryB6_
FN:105,_RNvMNtNtCs1I4G5KWFz5n_15embedded_charts6legend7builderINtB2_21StandardLegendBuilderpE18professional_styleB6_
FN:178,_RNvMNtNtCs1I4G5KWFz5n_15embedded_charts6legend7builderINtB2_21StandardLegendBuilderpE25add_bar_entry_with_borderB6_
FN:144,_RNvMNtNtCs1I4G5KWFz5n_15embedded_charts6legend7builderINtB2_21StandardLegendBuilderpE26add_line_entry_with_markerB6_
FN:93,_RNvMNtNtCs1I4G5KWFz5n_15embedded_charts6legend7builderINtB2_21StandardLegendBuilderpE5styleB6_
FN:123,_RNvMNtNtCs1I4G5KWFz5n_15embedded_charts6legend7builderINtB2_21StandardLegendBuilderpE7marginsB6_
FN:228,_RNvMNtNtCs1I4G5KWFz5n_15embedded_charts6legend7builderINtB2_21StandardLegendBuilderpE9add_entryB6_
FN:117,_RNvMNtNtCs1I4G5KWFz5n_15embedded_charts6legend7builderINtB2_21StandardLegendBuilderpE9alignmentB6_
FN:296,_RNvMs1_NtNtCs1I4G5KWFz5n_15embedded_charts6legend7builderINtB5_20CompactLegendBuilderpE11orientationB9_
FN:302,_RNvMs1_NtNtCs1I4G5KWFz5n_15embedded_charts6legend7builderINtB5_20CompactLegendBuilderpE16add_simple_entryB9_
FN:278,_RNvMs1_NtNtCs1I4G5KWFz5n_15embedded_charts6legend7builderINtB5_20CompactLegendBuilderpE3newB9_
FN:290,_RNvMs1_NtNtCs1I4G5KWFz5n_15embedded_charts6legend7builderINtB5_20CompactLegendBuilderpE8positionB9_
FN:394,_RNvMs4_NtNtCs1I4G5KWFz5n_15embedded_charts6legend7builderINtB5_19CustomLegendBuilderpE11auto_layoutB9_
FN:370,_RNvMs4_NtNtCs1I4G5KWFz5n_15embedded_charts6legend7builderINtB5_19CustomLegendBuilderpE11orientationB9_
FN:388,_RNvMs4_NtNtCs1I4G5KWFz5n_15embedded_charts6legend7builderINtB5_19CustomLegendBuilderpE11symbol_sizeB9_
FN:382,_RNvMs4_NtNtCs1I4G5KWFz5n_15embedded_charts6legend7builderINtB5_19CustomLegendBuilderpE13entry_spacingB9_
FN:376,_RNvMs4_NtNtCs1I4G5KWFz5n_15embedded_charts6legend7builderINtB5_19CustomLegendBuilderpE13layout_paramsB9_
FN:351,_RNvMs4_NtNtCs1I4G5KWFz5n_15embedded_charts6legend7builderINtB5_19CustomLegendBuilderpE3newB9_
FN:364,_RNvMs4_NtNtCs1I4G5KWFz5n_15embedded_charts6legend7builderINtB5_19CustomLegendBuilderpE8positionB9_
FN:268,_RNvXININtNtCs1I4G5KWFz5n_15embedded_charts6legend7builders0_0pEINtB5_21StandardLegendBuilderpENtNtCs3XRySYX51hI_4core7default7Default7defaultB9_
FN:323,_RNvXININtNtCs1I4G5KWFz5n_15embedded_charts6legend7builders2_0pEINtB5_20CompactLegendBuilderpEINtB5_13LegendBuilderpE5buildB9_
FN:341,_RNvXININtNtCs1I4G5KWFz5n_15embedded_charts6legend7builders3_0pEINtB5_20CompactLegendBuilderpENtNtCs3XRySYX51hI_4core7default7Default7defaultB9_
FN:407,_RNvXININtNtCs1I4G5KWFz5n_15embedded_charts6legend7builders5_0pEINtB5_19CustomLegendBuilderpEINtB5_13LegendBuilderpE5buildB9_
FN:426,_RNvXININtNtCs1I4G5KWFz5n_15embedded_charts6legend7builders6_0pEINtB5_19CustomLegendBuilderpENtNtCs3XRySYX51hI_4core7default7Default7defaultB9_
FN:438,_RINvNtNtNtCs1I4G5KWFz5n_15embedded_charts6legend7builder7presets12right_legendNtNtNtCshH4H1wHMe2V_22embedded_graphics_core10pixelcolor9rgb_color6Rgb565EB8_
FN:173,_RNCNvMNtNtCs1I4G5KWFz5n_15embedded_charts6legend7builderINtB4_21StandardLegendBuilderNtNtNtCshH4H1wHMe2V_22embedded_graphics_core10pixelcolor9rgb_color6Rgb565E13add_bar_entry0B8_
FN:139,_RNCNvMNtNtCs1I4G5KWFz5n_15embedded_charts6legend7builderINtB4_21StandardLegendBuilderNtNtNtCshH4H1wHMe2V_22embedded_graphics_core10pixelcolor9rgb_color6Rgb565E14add_line_entry0B8_
FN:87,_RNvMNtNtCs1I4G5KWFz5n_15embedded_charts6legend7builderINtB2_21StandardLegendBuilderNtNtNtCshH4H1wHMe2V_22embedded_graphics_core10pixelcolor9rgb_color6Rgb565E11orientationB6_
FN:164,_RNvMNtNtCs1I4G5KWFz5n_15embedded_charts6legend7builderINtB2_21StandardLegendBuilderNtNtNtCshH4H1wHMe2V_22embedded_graphics_core10pixelcolor9rgb_color6Rgb565E13add_bar_entryB6_
FN:129,_RNvMNtNtCs1I4G5KWFz5n_15embedded_charts6legend7builderINtB2_21StandardLegendBuilderNtNtNtCshH4H1wHMe2V_22embedded_graphics_core10pixelcolor9rgb_color6Rgb565E14add_line_entryB6_
FN:69,_RNvMNtNtCs1I4G5KWFz5n_15embedded_charts6legend7builderINtB2_21StandardLegendBuilderNtNtNtCshH4H1wHMe2V_22embedded_graphics_core10pixelcolor9rgb_color6Rgb565E3newB6_
FN:81,_RNvMNtNtCs1I4G5KWFz5n_15embedded_charts6legend7builderINtB2_21StandardLegendBuilderNtNtNtCshH4H1wHMe2V_22embedded_graphics_core10pixelcolor9rgb_color6Rgb565E8positionB6_
FN:250,_RNvXs_NtNtCs1I4G5KWFz5n_15embedded_charts6legend7builderINtB4_21StandardLegendBuilderNtNtNtCshH4H1wHMe2V_22embedded_graphics_core10pixelcolor9rgb_color6Rgb565EINtB4_13LegendBuilderB1l_E5buildB8_
FN:501,_RNvNtNtNtCs1I4G5KWFz5n_15embedded_charts6legend7builder5testss_19test_preset_legends
FN:484,_RNvNtNtNtCs1I4G5KWFz5n_15embedded_charts6legend7builder5testss_28test_standard_legend_builder
FNDA:0,_RINvNtNtNtCs1I4G5KWFz5n_15embedded_charts6legend7builder7presets13bottom_legendpEB8_
FNDA:0,_RINvNtNtNtCs1I4G5KWFz5n_15embedded_charts6legend7builder7presets14minimal_legendpEB8_
FNDA:0,_RINvNtNtNtCs1I4G5KWFz5n_15embedded_charts6legend7builder7presets15floating_legendpEB8_
FNDA:0,_RINvNtNtNtCs1I4G5KWFz5n_15embedded_charts6legend7builder7presets19professional_legendpEB8_
FNDA:0,_RNCNvMNtNtCs1I4G5KWFz5n_15embedded_charts6legend7builderINtB4_21StandardLegendBuilderpE13add_pie_entry0B8_
FNDA:0,_RNCNvMNtNtCs1I4G5KWFz5n_15embedded_charts6legend7builderINtB4_21StandardLegendBuilderpE16add_custom_entry0B8_
FNDA:0,_RNCNvMNtNtCs1I4G5KWFz5n_15embedded_charts6legend7builderINtB4_21StandardLegendBuilderpE25add_bar_entry_with_border0B8_
FNDA:0,_RNCNvMNtNtCs1I4G5KWFz5n_15embedded_charts6legend7builderINtB4_21StandardLegendBuilderpE26add_line_entry_with_marker0B8_
FNDA:0,_RNCNvMNtNtCs1I4G5KWFz5n_15embedded_charts6legend7builderINtB4_21StandardLegendBuilderpE9add_entry0B8_
FNDA:0,_RNCNvMs1_NtNtCs1I4G5KWFz5n_15embedded_charts6legend7builderINtB7_20CompactLegendBuilderpE16add_simple_entry0Bb_
FNDA:0,_RNvMNtNtCs1I4G5KWFz5n_15embedded_charts6legend7builderINtB2_21StandardLegendBuilderpE13add_pie_entryB6_
FNDA:0,_RNvMNtNtCs1I4G5KWFz5n_15embedded_charts6legend7builderINtB2_21StandardLegendBuilderpE13clear_entriesB6_
FNDA:0,_RNvMNtNtCs1I4G5KWFz5n_15embedded_charts6legend7builderINtB2_21StandardLegendBuilderpE13compact_styleB6_
FNDA:0,_RNvMNtNtCs1I4G5KWFz5n_15embedded_charts6legend7builderINtB2_21StandardLegendBuilderpE13minimal_styleB6_
FNDA:0,_RNvMNtNtCs1I4G5KWFz5n_15embedded_charts6legend7builderINtB2_21StandardLegendBuilderpE16add_custom_entryB6_
FNDA:0,_RNvMNtNtCs1I4G5KWFz5n_15embedded_charts6legend7builderINtB2_21StandardLegendBuilderpE18professional_styleB6_
FNDA:0,_RNvMNtNtCs1I4G5KWFz5n_15embedded_charts6legend7builderINtB2_21StandardLegendBuilderpE25add_bar_entry_with_borderB6_
FNDA:0,_RNvMNtNtCs1I4G5KWFz5n_15embedded_charts6legend7builderINtB2_21StandardLegendBuilderpE26add_line_entry_with_markerB6_
FNDA:0,_RNvMNtNtCs1I4G5KWFz5n_15embedded_charts6legend7builderINtB2_21StandardLegendBuilderpE5styleB6_
FNDA:0,_RNvMNtNtCs1I4G5KWFz5n_15embedded_charts6legend7builderINtB2_21StandardLegendBuilderpE7marginsB6_
FNDA:0,_RNvMNtNtCs1I4G5KWFz5n_15embedded_charts6legend7builderINtB2_21StandardLegendBuilderpE9add_entryB6_
FNDA:0,_RNvMNtNtCs1I4G5KWFz5n_15embedded_charts6legend7builderINtB2_21StandardLegendBuilderpE9alignmentB6_
FNDA:0,_RNvMs1_NtNtCs1I4G5KWFz5n_15embedded_charts6legend7builderINtB5_20CompactLegendBuilderpE11orientationB9_
FNDA:0,_RNvMs1_NtNtCs1I4G5KWFz5n_15embedded_charts6legend7builderINtB5_20CompactLegendBuilderpE16add_simple_entryB9_
FNDA:0,_RNvMs1_NtNtCs1I4G5KWFz5n_15embedded_charts6legend7builderINtB5_20CompactLegendBuilderpE3newB9_
FNDA:0,_RNvMs1_NtNtCs1I4G5KWFz5n_15embedded_charts6legend7builderINtB5_20CompactLegendBuilderpE8positionB9_
FNDA:0,_RNvMs4_NtNtCs1I4G5KWFz5n_15embedded_charts6legend7builderINtB5_19CustomLegendBuilderpE11auto_layoutB9_
FNDA:0,_RNvMs4_NtNtCs1I4G5KWFz5n_15embedded_charts6legend7builderINtB5_19CustomLegendBuilderpE11orientationB9_
FNDA:0,_RNvMs4_NtNtCs1I4G5KWFz5n_15embedded_charts6legend7builderINtB5_19CustomLegendBuilderpE11symbol_sizeB9_
FNDA:0,_RNvMs4_NtNtCs1I4G5KWFz5n_15embedded_charts6legend7builderINtB5_19CustomLegendBuilderpE13entry_spacingB9_
FNDA:0,_RNvMs4_NtNtCs1I4G5KWFz5n_15embedded_charts6legend7builderINtB5_19CustomLegendBuilderpE13layout_paramsB9_
FNDA:0,_RNvMs4_NtNtCs1I4G5KWFz5n_15embedded_charts6legend7builderINtB5_19CustomLegendBuilderpE3newB9_
FNDA:0,_RNvMs4_NtNtCs1I4G5KWFz5n_15embedded_charts6legend7builderINtB5_19CustomLegendBuilderpE8positionB9_
FNDA:0,_RNvXININtNtCs1I4G5KWFz5n_15embedded_charts6legend7builders0_0pEINtB5_21StandardLegendBuilderpENtNtCs3XRySYX51hI_4core7default7Default7defaultB9_
FNDA:0,_RNvXININtNtCs1I4G5KWFz5n_15embedded_charts6legend7builders2_0pEINtB5_20CompactLegendBuilderpEINtB5_13LegendBuilderpE5buildB9_
FNDA:0,_RNvXININtNtCs1I4G5KWFz5n_15embedded_charts6legend7builders3_0pEINtB5_20CompactLegendBuilderpENtNtCs3XRySYX51hI_4core7default7Default7defaultB9_
FNDA:0,_RNvXININtNtCs1I4G5KWFz5n_15embedded_charts6legend7builders5_0pEINtB5_19CustomLegendBuilderpEINtB5_13LegendBuilderpE5buildB9_
FNDA:0,_RNvXININtNtCs1I4G5KWFz5n_15embedded_charts6legend7builders6_0pEINtB5_19CustomLegendBuilderpENtNtCs3XRySYX51hI_4core7default7Default7defaultB9_
FNDA:1,_RINvNtNtNtCs1I4G5KWFz5n_15embedded_charts6legend7builder7presets12right_legendNtNtNtCshH4H1wHMe2V_22embedded_graphics_core10pixelcolor9rgb_color6Rgb565EB8_
FNDA:0,_RNCNvMNtNtCs1I4G5KWFz5n_15embedded_charts6legend7builderINtB4_21StandardLegendBuilderNtNtNtCshH4H1wHMe2V_22embedded_graphics_core10pixelcolor9rgb_color6Rgb565E13add_bar_entry0B8_
FNDA:0,_RNCNvMNtNtCs1I4G5KWFz5n_15embedded_charts6legend7builderINtB4_21StandardLegendBuilderNtNtNtCshH4H1wHMe2V_22embedded_graphics_core10pixelcolor9rgb_color6Rgb565E14add_line_entry0B8_
FNDA:2,_RNvMNtNtCs1I4G5KWFz5n_15embedded_charts6legend7builderINtB2_21StandardLegendBuilderNtNtNtCshH4H1wHMe2V_22embedded_graphics_core10pixelcolor9rgb_color6Rgb565E11orientationB6_
FNDA:1,_RNvMNtNtCs1I4G5KWFz5n_15embedded_charts6legend7builderINtB2_21StandardLegendBuilderNtNtNtCshH4H1wHMe2V_22embedded_graphics_core10pixelcolor9rgb_color6Rgb565E13add_bar_entryB6_
FNDA:2,_RNvMNtNtCs1I4G5KWFz5n_15embedded_charts6legend7builderINtB2_21StandardLegendBuilderNtNtNtCshH4H1wHMe2V_22embedded_graphics_core10pixelcolor9rgb_color6Rgb565E14add_line_entryB6_
FNDA:2,_RNvMNtNtCs1I4G5KWFz5n_15embedded_charts6legend7builderINtB2_21StandardLegendBuilderNtNtNtCshH4H1wHMe2V_22embedded_graphics_core10pixelcolor9rgb_color6Rgb565E3newB6_
FNDA:2,_RNvMNtNtCs1I4G5KWFz5n_15embedded_charts6legend7builderINtB2_21StandardLegendBuilderNtNtNtCshH4H1wHMe2V_22embedded_graphics_core10pixelcolor9rgb_color6Rgb565E8positionB6_
FNDA:2,_RNvXs_NtNtCs1I4G5KWFz5n_15embedded_charts6legend7builderINtB4_21StandardLegendBuilderNtNtNtCshH4H1wHMe2V_22embedded_graphics_core10pixelcolor9rgb_color6Rgb565EINtB4_13LegendBuilderB1l_E5buildB8_
FNDA:1,_RNvNtNtNtCs1I4G5KWFz5n_15embedded_charts6legend7builder5testss_19test_preset_legends
FNDA:1,_RNvNtNtNtCs1I4G5KWFz5n_15embedded_charts6legend7builder5testss_28test_standard_legend_builder
FNF:49
FNH:9
DA:69,2
DA:70,2
DA:71,2
DA:72,2
DA:73,2
DA:74,2
DA:75,2
DA:76,2
DA:77,2
DA:78,2
DA:81,2
DA:82,2
DA:83,2
DA:84,2
DA:87,2
DA:88,2
DA:89,2
DA:90,2
DA:93,0
DA:94,0
DA:95,0
DA:96,0
DA:99,0
DA:100,0
DA:101,0
DA:102,0
DA:105,0
DA:106,0
DA:107,0
DA:108,0
DA:111,0
DA:112,0
DA:113,0
DA:114,0
DA:117,0
DA:118,0
DA:119,0
DA:120,0
DA:123,0
DA:124,0
DA:125,0
DA:126,0
DA:129,2
DA:130,2
DA:131,2
DA:132,2
DA:133,2
DA:134,2
DA:135,2
DA:136,2
DA:137,2
DA:138,2
DA:139,2
DA:140,2
DA:141,2
DA:144,0
DA:145,0
DA:146,0
DA:147,0
DA:148,0
DA:149,0
DA:150,0
DA:151,0
DA:152,0
DA:153,0
DA:154,0
DA:155,0
DA:156,0
DA:157,0
DA:158,0
DA:159,0
DA:160,0
DA:161,0
DA:164,1
DA:165,1
DA:166,1
DA:167,1
DA:168,1
DA:169,1
DA:170,1
DA:171,1
DA:172,1
DA:173,1
DA:174,1
DA:175,1
DA:178,0
DA:179,0
DA:180,0
DA:181,0
DA:182,0
DA:183,0
DA:184,0
DA:185,0
DA:186,0
DA:187,0
DA:188,0
DA:189,0
DA:190,0
DA:191,0
DA:192,0
DA:193,0
DA:194,0
DA:195,0
DA:198,0
DA:199,0
DA:200,0
DA:201,0
DA:202,0
DA:203,0
DA:204,0
DA:205,0
DA:206,0
DA:207,0
DA:208,0
DA:209,0
DA:212,0
DA:213,0
DA:214,0
DA:215,0
DA:216,0
DA:217,0
DA:218,0
DA:219,0
DA:220,0
DA:221,0
DA:222,0
DA:223,0
DA:224,0
DA:225,0
DA:228,0
DA:229,0
DA:230,0
DA:231,0
DA:232,0
DA:233,0
DA:234,0
DA:237,0
DA:238,0
DA:239,0
DA:240,0
DA:250,2
DA:251,2
DA:252,2
DA:253,2
DA:256,5
DA:257,3
DA:260,2
DA:261,2
DA:268,0
DA:269,0
DA:270,0
DA:278,0
DA:279,0
DA:280,0
DA:281,0
DA:282,0
DA:283,0
DA:284,0
DA:285,0
DA:286,0
DA:287,0
DA:290,0
DA:291,0
DA:292,0
DA:293,0
DA:296,0
DA:297,0
DA:298,0
DA:299,0
DA:302,0
DA:303,0
DA:304,0
DA:305,0
DA:306,0
DA:307,0
DA:308,0
DA:309,0
DA:310,0
DA:311,0
DA:312,0
DA:313,0
DA:323,0
DA:324,0
DA:325,0
DA:326,0
DA:329,0
DA:330,0
DA:333,0
DA:334,0
DA:341,0
DA:342,0
DA:343,0
DA:351,0
DA:352,0
DA:353,0
DA:354,0
DA:355,0
DA:356,0
DA:357,0
DA:358,0
DA:359,0
DA:360,0
DA:361,0
DA:364,0
DA:365,0
DA:366,0
DA:367,0
DA:370,0
DA:371,0
DA:372,0
DA:373,0
DA:376,0
DA:377,0
DA:378,0
DA:379,0
DA:382,0
DA:383,0
DA:384,0
DA:385,0
DA:388,0
DA:389,0
DA:390,0
DA:391,0
DA:394,0
DA:395,0
DA:396,0
DA:397,0
DA:407,0
DA:408,0
DA:409,0
DA:410,0
DA:411,0
DA:414,0
DA:415,0
DA:418,0
DA:419,0
DA:426,0
DA:427,0
DA:428,0
DA:438,1
DA:439,1
DA:440,1
DA:441,1
DA:442,1
DA:445,0
DA:446,0
DA:447,0
DA:448,0
DA:449,0
DA:452,0
DA:453,0
DA:454,0
DA:455,0
DA:456,0
DA:459,0
DA:460,0
DA:461,0
DA:462,0
DA:463,0
DA:464,0
DA:467,0
DA:468,0
DA:469,0
DA:470,0
DA:471,0
DA:472,0
DA:473,0
DA:484,1
DA:485,1
DA:486,1
DA:487,1
DA:488,1
DA:489,1
DA:490,1
DA:491,1
DA:492,1
DA:493,1
DA:494,1
DA:495,1
DA:496,1
DA:497,1
DA:498,1
DA:501,1
DA:502,1
DA:503,1
DA:504,1
DA:505,1
DA:506,1
DA:507,1
DA:508,1
DA:509,1
DA:510,1
BRF:0
BRH:0
LF:300
LH:81
end_of_record
SF:/home/tasuku/com/github/signal-slot/embedded-charts/src/legend/mod.rs
FN:162,_RINvXININtCs1I4G5KWFz5n_15embedded_charts6legends_0pEINtB6_18DefaultLegendEntrypEINtNtB6_6traits11LegendEntrypE13render_symbolpEB8_
FN:184,_RNCINvXININtCs1I4G5KWFz5n_15embedded_charts6legends_0pEINtB8_18DefaultLegendEntrypEINtNtB8_6traits11LegendEntrypE13render_symbolpE0Ba_
FN:212,_RNCINvXININtCs1I4G5KWFz5n_15embedded_charts6legends_0pEINtB8_18DefaultLegendEntrypEINtNtB8_6traits11LegendEntrypE13render_symbolpEs0_0Ba_
FN:196,_RNCINvXININtCs1I4G5KWFz5n_15embedded_charts6legends_0pEINtB8_18DefaultLegendEntrypEINtNtB8_6traits11LegendEntrypE13render_symbolpEs_0Ba_
FN:95,_RNCNvMNtCs1I4G5KWFz5n_15embedded_charts6legendINtB4_13DefaultLegendpE14calculate_size0B6_
FN:115,_RNCNvMNtCs1I4G5KWFz5n_15embedded_charts6legendINtB4_13DefaultLegendpE14calculate_sizes0_0B6_
FN:114,_RNCNvMNtCs1I4G5KWFz5n_15embedded_charts6legendINtB4_13DefaultLegendpE14calculate_sizes_0B6_
FN:64,_RNCNvMNtCs1I4G5KWFz5n_15embedded_charts6legendINtB4_13DefaultLegendpE9add_entry0B6_
FN:74,_RNCNvMNtCs1I4G5KWFz5n_15embedded_charts6legendINtB4_13DefaultLegendpE9add_entrys_0B6_
FN:234,_RNCNvXININtCs1I4G5KWFz5n_15embedded_charts6legends0_0pEINtB7_13DefaultLegendpEINtNtB7_6traits6LegendpE9add_entry0B9_
FN:136,_RNCNvXININtCs1I4G5KWFz5n_15embedded_charts6legends_0pEINtB7_18DefaultLegendEntrypEINtNtB7_6traits11LegendEntrypE9set_label0B9_
FN:90,_RNvMNtCs1I4G5KWFz5n_15embedded_charts6legendINtB2_13DefaultLegendpE14calculate_sizeB4_
FN:80,_RNvMNtCs1I4G5KWFz5n_15embedded_charts6legendINtB2_13DefaultLegendpE15set_orientationB4_
FN:52,_RNvMNtCs1I4G5KWFz5n_15embedded_charts6legendINtB2_13DefaultLegendpE3newB4_
FN:62,_RNvMNtCs1I4G5KWFz5n_15embedded_charts6legendINtB2_13DefaultLegendpE9add_entryB4_
FN:85,_RNvMNtCs1I4G5KWFz5n_15embedded_charts6legendINtB2_13DefaultLegendpE9set_styleB4_
FN:227,_RNvXININtCs1I4G5KWFz5n_15embedded_charts6legends0_0pEINtB5_13DefaultLegendpEINtNtB5_6traits6LegendpE11entries_mutB7_
FN:258,_RNvXININtCs1I4G5KWFz5n_15embedded_charts6legends0_0pEINtB5_13DefaultLegendpEINtNtB5_6traits6LegendpE11orientationB7_
FN:237,_RNvXININtCs1I4G5KWFz5n_15embedded_charts6legends0_0pEINtB5_13DefaultLegendpEINtNtB5_6traits6LegendpE12remove_entryB7_
FN:254,_RNvXININtCs1I4G5KWFz5n_15embedded_charts6legends0_0pEINtB5_13DefaultLegendpEINtNtB5_6traits6LegendpE12set_positionB7_
FN:246,_RNvXININtCs1I4G5KWFz5n_15embedded_charts6legends0_0pEINtB5_13DefaultLegendpEINtNtB5_6traits6LegendpE13clear_entriesB7_
FN:266,_RNvXININtCs1I4G5KWFz5n_15embedded_charts6legends0_0pEINtB5_13DefaultLegendpEINtNtB5_6traits6LegendpE14calculate_sizeB7_
FN:262,_RNvXININtCs1I4G5KWFz5n_15embedded_charts6legends0_0pEINtB5_13DefaultLegendpEINtNtB5_6traits6LegendpE15set_orientationB7_
FN:223,_RNvXININtCs1I4G5KWFz5n_15embedded_charts6legends0_0pEINtB5_13DefaultLegendpEINtNtB5_6traits6LegendpE7entriesB7_
FN:250,_RNvXININtCs1I4G5KWFz5n_15embedded_charts6legends0_0pEINtB5_13DefaultLegendpEINtNtB5_6traits6LegendpE8positionB7_
FN:231,_RNvXININtCs1I4G5KWFz5n_15embedded_charts6legends0_0pEINtB5_13DefaultLegendpEINtNtB5_6traits6LegendpE9add_entryB7_
FN:140,_RNvXININtCs1I4G5KWFz5n_15embedded_charts6legends_0pEINtB5_18DefaultLegendEntrypEINtNtB5_6traits11LegendEntrypE10entry_typeB7_
FN:148,_RNvXININtCs1I4G5KWFz5n_15embedded_charts6legends_0pEINtB5_18DefaultLegendEntrypEINtNtB5_6traits11LegendEntrypE10is_visibleB7_
FN:152,_RNvXININtCs1I4G5KWFz5n_15embedded_charts6legends_0pEINtB5_18DefaultLegendEntrypEINtNtB5_6traits11LegendEntrypE11set_visibleB7_
FN:156,_RNvXININtCs1I4G5KWFz5n_15embedded_charts6legends_0pEINtB5_18DefaultLegendEntrypEINtNtB5_6traits11LegendEntrypE14calculate_sizeB7_
FN:144,_RNvXININtCs1I4G5KWFz5n_15embedded_charts6legends_0pEINtB5_18DefaultLegendEntrypEINtNtB5_6traits11LegendEntrypE14set_entry_typeB7_
FN:130,_RNvXININtCs1I4G5KWFz5n_15embedded_charts6legends_0pEINtB5_18DefaultLegendEntrypEINtNtB5_6traits11LegendEntrypE5labelB7_
FN:134,_RNvXININtCs1I4G5KWFz5n_15embedded_charts6legends_0pEINtB5_18DefaultLegendEntrypEINtNtB5_6traits11LegendEntrypE9set_labelB7_
FNDA:0,_RINvXININtCs1I4G5KWFz5n_15embedded_charts6legends_0pEINtB6_18DefaultLegendEntrypEINtNtB6_6traits11LegendEntrypE13render_symbolpEB8_
FNDA:0,_RNCINvXININtCs1I4G5KWFz5n_15embedded_charts6legends_0pEINtB8_18DefaultLegendEntrypEINtNtB8_6traits11LegendEntrypE13render_symbolpE0Ba_
FNDA:0,_RNCINvXININtCs1I4G5KWFz5n_15embedded_charts6legends_0pEINtB8_18DefaultLegendEntrypEINtNtB8_6traits11LegendEntrypE13render_symbolpEs0_0Ba_
FNDA:0,_RNCINvXININtCs1I4G5KWFz5n_15embedded_charts6legends_0pEINtB8_18DefaultLegendEntrypEINtNtB8_6traits11LegendEntrypE13render_symbolpEs_0Ba_
FNDA:0,_RNCNvMNtCs1I4G5KWFz5n_15embedded_charts6legendINtB4_13DefaultLegendpE14calculate_size0B6_
FNDA:0,_RNCNvMNtCs1I4G5KWFz5n_15embedded_charts6legendINtB4_13DefaultLegendpE14calculate_sizes0_0B6_
FNDA:0,_RNCNvMNtCs1I4G5KWFz5n_15embedded_charts6legendINtB4_13DefaultLegendpE14calculate_sizes_0B6_
FNDA:0,_RNCNvMNtCs1I4G5KWFz5n_15embedded_charts6legendINtB4_13DefaultLegendpE9add_entry0B6_
FNDA:0,_RNCNvMNtCs1I4G5KWFz5n_15embedded_charts6legendINtB4_13DefaultLegendpE9add_entrys_0B6_
FNDA:0,_RNCNvXININtCs1I4G5KWFz5n_15embedded_charts6legends0_0pEINtB7_13DefaultLegendpEINtNtB7_6traits6LegendpE9add_entry0B9_
FNDA:0,_RNCNvXININtCs1I4G5KWFz5n_15embedded_charts6legends_0pEINtB7_18DefaultLegendEntrypEINtNtB7_6traits11LegendEntrypE9set_label0B9_
FNDA:0,_RNvMNtCs1I4G5KWFz5n_15embedded_charts6legendINtB2_13DefaultLegendpE14calculate_sizeB4_
FNDA:0,_RNvMNtCs1I4G5KWFz5n_15embedded_charts6legendINtB2_13DefaultLegendpE15set_orientationB4_
FNDA:0,_RNvMNtCs1I4G5KWFz5n_15embedded_charts6legendINtB2_13DefaultLegendpE3newB4_
FNDA:0,_RNvMNtCs1I4G5KWFz5n_15embedded_charts6legendINtB2_13DefaultLegendpE9add_entryB4_
FNDA:0,_RNvMNtCs1I4G5KWFz5n_15embedded_charts6legendINtB2_13DefaultLegendpE9set_styleB4_
FNDA:0,_RNvXININtCs1I4G5KWFz5n_15embedded_charts6legends0_0pEINtB5_13DefaultLegendpEINtNtB5_6traits6LegendpE11entries_mutB7_
FNDA:0,_RNvXININtCs1I4G5KWFz5n_15embedded_charts6legends0_0pEINtB5_13DefaultLegendpEINtNtB5_6traits6LegendpE11orientationB7_
FNDA:0,_RNvXININtCs1I4G5KWFz5n_15embedded_charts6legends0_0pEINtB5_13DefaultLegendpEINtNtB5_6traits6LegendpE12remove_entryB7_
FNDA:0,_RNvXININtCs1I4G5KWFz5n_15embedded_charts6legends0_0pEINtB5_13DefaultLegendpEINtNtB5_6traits6LegendpE12set_positionB7_
FNDA:0,_RNvXININtCs1I4G5KWFz5n_15embedded_charts6legends0_0pEINtB5_13DefaultLegendpEINtNtB5_6traits6LegendpE13clear_entriesB7_
FNDA:0,_RNvXININtCs1I4G5KWFz5n_15embedded_charts6legends0_0pEINtB5_13DefaultLegendpEINtNtB5_6traits6LegendpE14calculate_sizeB7_
FNDA:0,_RNvXININtCs1I4G5KWFz5n_15embedded_charts6legends0_0pEINtB5_13DefaultLegendpEINtNtB5_6traits6LegendpE15set_orientationB7_
FNDA:0,_RNvXININtCs1I4G5KWFz5n_15embedded_charts6legends0_0pEINtB5_13DefaultLegendpEINtNtB5_6traits6LegendpE7entriesB7_
FNDA:0,_RNvXININtCs1I4G5KWFz5n_15embedded_charts6legends0_0pEINtB5_13DefaultLegendpEINtNtB5_6traits6LegendpE8positionB7_
FNDA:0,_RNvXININtCs1I4G5KWFz5n_15embedded_charts6legends0_0pEINtB5_13DefaultLegendpEINtNtB5_6traits6LegendpE9add_entryB7_
FNDA:0,_RNvXININtCs1I4G5KWFz5n_15embedded_charts6legends_0pEINtB5_18DefaultLegendEntrypEINtNtB5_6traits11LegendEntrypE10entry_typeB7_
FNDA:0,_RNvXININtCs1I4G5KWFz5n_15embedded_charts6legends_0pEINtB5_18DefaultLegendEntrypEINtNtB5_6traits11LegendEntrypE10is_visibleB7_
FNDA:0,_RNvXININtCs1I4G5KWFz5n_15embedded_charts6legends_0pEINtB5_18DefaultLegendEntrypEINtNtB5_6traits11LegendEntrypE11set_visibleB7_
FNDA:0,_RNvXININtCs1I4G5KWFz5n_15embedded_charts6legends_0pEINtB5_18DefaultLegendEntrypEINtNtB5_6traits11LegendEntrypE14calculate_sizeB7_
FNDA:0,_RNvXININtCs1I4G5KWFz5n_15embedded_charts6legends_0pEINtB5_18DefaultLegendEntrypEINtNtB5_6traits11LegendEntrypE14set_entry_typeB7_
FNDA:0,_RNvXININtCs1I4G5KWFz5n_15embedded_charts6legends_0pEINtB5_18DefaultLegendEntrypEINtNtB5_6traits11LegendEntrypE5labelB7_
FNDA:0,_RNvXININtCs1I4G5KWFz5n_15embedded_charts6legends_0pEINtB5_18DefaultLegendEntrypEINtNtB5_6traits11LegendEntrypE9set_labelB7_
FNF:33
FNH:0
DA:52,0
DA:53,0
DA:54,0
DA:55,0
DA:56,0
DA:57,0
DA:58,0
DA:59,0
DA:62,0
DA:63,0
DA:64,0
DA:66,0
DA:67,0
DA:68,0
DA:69,0
DA:70,0
DA:71,0
DA:72,0
DA:73,0
DA:74,0
DA:76,0
DA:77,0
DA:80,0
DA:81,0
DA:82,0
DA:85,0
DA:86,0
DA:87,0
DA:90,0
DA:91,0
DA:92,0
DA:93,0
DA:94,0
DA:95,0
DA:96,0
DA:97,0
DA:98,0
DA:99,0
DA:100,0
DA:102,0
DA:103,0
DA:104,0
DA:105,0
DA:106,0
DA:107,0
DA:110,0
DA:111,0
DA:112,0
DA:113,0
DA:114,0
DA:115,0
DA:116,0
DA:117,0
DA:118,0
DA:119,0
DA:120,0
DA:121,0
DA:122,0
DA:123,0
DA:126,0
DA:130,0
DA:131,0
DA:132,0
DA:134,0
DA:135,0
DA:136,0
DA:137,0
DA:138,0
DA:140,0
DA:141,0
DA:142,0
DA:144,0
DA:145,0
DA:146,0
DA:148,0
DA:149,0
DA:150,0
DA:152,0
DA:153,0
DA:154,0
DA:156,0
DA:157,0
DA:158,0
DA:159,0
DA:160,0
DA:162,0
DA:163,0
DA:164,0
DA:165,0
DA:166,0
DA:167,0
DA:168,0
DA:169,0
DA:170,0
DA:175,0
DA:176,0
DA:177,0
DA:178,0
DA:179,0
DA:180,0
DA:181,0
DA:182,0
DA:183,0
DA:184,0
DA:186,0
DA:187,0
DA:188,0
DA:189,0
DA:190,0
DA:191,0
DA:192,0
DA:193,0
DA:194,0
DA:195,0
DA:196,0
DA:199,0
DA:200,0
DA:201,0
DA:202,0
DA:203,0
DA:204,0
DA:205,0
DA:206,0
DA:207,0
DA:208,0
DA:209,0
DA:210,0
DA:211,0
DA:212,0
DA:216,0
DA:217,0
DA:223,0
DA:224,0
DA:225,0
DA:227,0
DA:228,0
DA:229,0
DA:231,0
DA:232,0
DA:233,0
DA:234,0
DA:235,0
DA:237,0
DA:238,0
DA:239,0
DA:240,0
DA:242,0
DA:244,0
DA:246,0
DA:247,0
DA:248,0
DA:250,0
DA:251,0
DA:252,0
DA:254,0
DA:255,0
DA:256,0
DA:258,0
DA:259,0
DA:260,0
DA:262,0
DA:263,0
DA:264,0
DA:266,0
DA:267,0
DA:268,0
BRF:0
BRH:0
LF:176
LH:0
end_of_record
SF:/home/tasuku/com/github/signal-slot/embedded-charts/src/legend/position.rs
FN:80,_RNvMNtNtCs1I4G5KWFz5n_15embedded_charts6legend8positionNtB2_18PositionCalculator12with_margins
FN:86,_RNvMNtNtCs1I4G5KWFz5n_15embedded_charts6legend8positionNtB2_18PositionCalculator14with_alignment
FN:324,_RNvMs_NtNtCs1I4G5KWFz5n_15embedded_charts6legend8positionNtB4_13LegendMargins3new
FN:345,_RNvXs0_NtNtCs1I4G5KWFz5n_15embedded_charts6legend8positionNtB5_14LegendPositionNtNtCs3XRySYX51hI_4core7default7Default7default
FN:351,_RNvXs1_NtNtCs1I4G5KWFz5n_15embedded_charts6legend8positionNtB5_15LegendAlignmentNtNtCs3XRySYX51hI_4core7default7Default7default
FN:172,_RNvMNtNtCs1I4G5KWFz5n_15embedded_charts6legend8positionNtB2_18PositionCalculator19validate_legend_fit
FN:92,_RNvMNtNtCs1I4G5KWFz5n_15embedded_charts6legend8positionNtB2_18PositionCalculator21calculate_legend_rect
FN:195,_RNvMNtNtCs1I4G5KWFz5n_15embedded_charts6legend8positionNtB2_18PositionCalculator22calculate_top_position
FN:235,_RNvMNtNtCs1I4G5KWFz5n_15embedded_charts6legend8positionNtB2_18PositionCalculator23calculate_left_position
FN:254,_RNvMNtNtCs1I4G5KWFz5n_15embedded_charts6legend8positionNtB2_18PositionCalculator24calculate_right_position
FN:214,_RNvMNtNtCs1I4G5KWFz5n_15embedded_charts6legend8positionNtB2_18PositionCalculator25calculate_bottom_position
FN:276,_RNvMNtNtCs1I4G5KWFz5n_15embedded_charts6legend8positionNtB2_18PositionCalculator25calculate_corner_position
FN:114,_RNvMNtNtCs1I4G5KWFz5n_15embedded_charts6legend8positionNtB2_18PositionCalculator28calculate_adjusted_plot_area
FN:70,_RNvMNtNtCs1I4G5KWFz5n_15embedded_charts6legend8positionNtB2_18PositionCalculator3new
FN:334,_RNvMs_NtNtCs1I4G5KWFz5n_15embedded_charts6legend8positionNtB4_13LegendMargins10horizontal
FN:304,_RNvMs_NtNtCs1I4G5KWFz5n_15embedded_charts6legend8positionNtB4_13LegendMargins3all
FN:339,_RNvMs_NtNtCs1I4G5KWFz5n_15embedded_charts6legend8positionNtB4_13LegendMargins8vertical
FN:314,_RNvMs_NtNtCs1I4G5KWFz5n_15embedded_charts6legend8positionNtB4_13LegendMargins9symmetric
FN:357,_RNvXs2_NtNtCs1I4G5KWFz5n_15embedded_charts6legend8positionNtB5_13LegendMarginsNtNtCs3XRySYX51hI_4core7default7Default7default
FN:367,_RNvNtNtNtCs1I4G5KWFz5n_15embedded_charts6legend8position5testss_19test_legend_margins
FN:403,_RNvNtNtNtCs1I4G5KWFz5n_15embedded_charts6legend8position5testss_23test_adjusted_plot_area
FN:378,_RNvNtNtNtCs1I4G5KWFz5n_15embedded_charts6legend8position5testss_24test_position_calculator
FNDA:0,_RNvMNtNtCs1I4G5KWFz5n_15embedded_charts6legend8positionNtB2_18PositionCalculator12with_margins
FNDA:0,_RNvMNtNtCs1I4G5KWFz5n_15embedded_charts6legend8positionNtB2_18PositionCalculator14with_alignment
FNDA:0,_RNvMs_NtNtCs1I4G5KWFz5n_15embedded_charts6legend8positionNtB4_13LegendMargins3new
FNDA:0,_RNvXs0_NtNtCs1I4G5KWFz5n_15embedded_charts6legend8positionNtB5_14LegendPositionNtNtCs3XRySYX51hI_4core7default7Default7default
FNDA:0,_RNvXs1_NtNtCs1I4G5KWFz5n_15embedded_charts6legend8positionNtB5_15LegendAlignmentNtNtCs3XRySYX51hI_4core7default7Default7default
FNDA:1,_RNvMNtNtCs1I4G5KWFz5n_15embedded_charts6legend8positionNtB2_18PositionCalculator19validate_legend_fit
FNDA:2,_RNvMNtNtCs1I4G5KWFz5n_15embedded_charts6legend8positionNtB2_18PositionCalculator21calculate_legend_rect
FNDA:0,_RNvMNtNtCs1I4G5KWFz5n_15embedded_charts6legend8positionNtB2_18PositionCalculator22calculate_top_position
FNDA:0,_RNvMNtNtCs1I4G5KWFz5n_15embedded_charts6legend8positionNtB2_18PositionCalculator23calculate_left_position
FNDA:2,_RNvMNtNtCs1I4G5KWFz5n_15embedded_charts6legend8positionNtB2_18PositionCalculator24calculate_right_position
FNDA:0,_RNvMNtNtCs1I4G5KWFz5n_15embedded_charts6legend8positionNtB2_18PositionCalculator25calculate_bottom_position
FNDA:0,_RNvMNtNtCs1I4G5KWFz5n_15embedded_charts6legend8positionNtB2_18PositionCalculator25calculate_corner_position
FNDA:2,_RNvMNtNtCs1I4G5KWFz5n_15embedded_charts6legend8positionNtB2_18PositionCalculator28calculate_adjusted_plot_area
FNDA:2,_RNvMNtNtCs1I4G5KWFz5n_15embedded_charts6legend8positionNtB2_18PositionCalculator3new
FNDA:3,_RNvMs_NtNtCs1I4G5KWFz5n_15embedded_charts6legend8positionNtB4_13LegendMargins10horizontal
FNDA:5,_RNvMs_NtNtCs1I4G5KWFz5n_15embedded_charts6legend8positionNtB4_13LegendMargins3all
FNDA:3,_RNvMs_NtNtCs1I4G5KWFz5n_15embedded_charts6legend8positionNtB4_13LegendMargins8vertical
FNDA:1,_RNvMs_NtNtCs1I4G5KWFz5n_15embedded_charts6legend8positionNtB4_13LegendMargins9symmetric
FNDA:4,_RNvXs2_NtNtCs1I4G5KWFz5n_15embedded_charts6legend8positionNtB5_13LegendMarginsNtNtCs3XRySYX51hI_4core7default7Default7default
FNDA:1,_RNvNtNtNtCs1I4G5KWFz5n_15embedded_charts6legend8position5testss_19test_legend_margins
FNDA:1,_RNvNtNtNtCs1I4G5KWFz5n_15embedded_charts6legend8position5testss_23test_adjusted_plot_area
FNDA:1,_RNvNtNtNtCs1I4G5KWFz5n_15embedded_charts6legend8position5testss_24test_position_calculator
FNF:22
FNH:13
DA:70,2
DA:71,2
DA:72,2
DA:73,2
DA:74,2
DA:75,2
DA:76,2
DA:77,2
DA:80,0
DA:81,0
DA:82,0
DA:83,0
DA:86,0
DA:87,0
DA:88,0
DA:89,0
DA:92,2
DA:93,2
DA:94,2
DA:95,2
DA:96,2
DA:97,2
DA:98,0
DA:99,0
DA:100,0
DA:101,2
DA:102,0
DA:103,0
DA:104,0
DA:106,0
DA:108,0
DA:109,0
DA:111,2
DA:114,2
DA:115,2
DA:116,2
DA:117,2
DA:118,2
DA:119,2
DA:121,0
DA:122,0
DA:123,0
DA:124,0
DA:125,0
DA:126,0
DA:127,0
DA:128,0
DA:129,0
DA:130,0
DA:131,0
DA:134,1
DA:135,1
DA:136,1
DA:137,1
DA:138,1
DA:139,1
DA:140,1
DA:141,1
DA:144,0
DA:145,0
DA:146,0
DA:147,0
DA:148,0
DA:149,0
DA:150,0
DA:151,0
DA:152,0
DA:153,0
DA:154,0
DA:157,1
DA:158,1
DA:159,1
DA:160,1
DA:161,1
DA:162,1
DA:163,1
DA:164,1
DA:167,0
DA:169,2
DA:172,1
DA:173,1
DA:174,1
DA:175,1
DA:176,1
DA:177,1
DA:182,1
DA:183,1
DA:184,1
DA:186,1
DA:187,1
DA:188,1
DA:190,1
DA:191,1
DA:195,0
DA:196,0
DA:197,0
DA:199,0
DA:200,0
DA:203,0
DA:204,0
DA:205,0
DA:209,0
DA:210,0
DA:211,0
DA:212,0
DA:214,0
DA:215,0
DA:216,0
DA:218,0
DA:219,0
DA:222,0
DA:223,0
DA:224,0
DA:228,0
DA:229,0
DA:230,0
DA:231,0
DA:232,0
DA:233,0
DA:235,0
DA:236,0
DA:238,0
DA:239,0
DA:241,0
DA:242,0
DA:245,0
DA:246,0
DA:247,0
DA:251,0
DA:252,0
DA:254,2
DA:255,2
DA:256,2
DA:257,2
DA:258,2
DA:260,2
DA:261,2
DA:263,0
DA:264,0
DA:267,0
DA:268,0
DA:269,0
DA:273,2
DA:274,2
DA:276,0
DA:277,0
DA:278,0
DA:279,0
DA:280,0
DA:281,0
DA:282,0
DA:283,0
DA:285,0
DA:286,0
DA:287,0
DA:290,0
DA:291,0
DA:293,0
DA:294,0
DA:295,0
DA:298,0
DA:299,0
DA:304,5
DA:305,5
DA:306,5
DA:307,5
DA:308,5
DA:309,5
DA:310,5
DA:311,5
DA:314,1
DA:315,1
DA:316,1
DA:317,1
DA:318,1
DA:319,1
DA:320,1
DA:321,1
DA:324,0
DA:325,0
DA:326,0
DA:327,0
DA:328,0
DA:329,0
DA:330,0
DA:331,0
DA:334,3
DA:335,3
DA:336,3
DA:339,3
DA:340,3
DA:341,3
DA:345,0
DA:346,0
DA:347,0
DA:351,0
DA:352,0
DA:353,0
DA:357,4
DA:358,4
DA:359,4
DA:367,1
DA:368,1
DA:369,1
DA:370,1
DA:372,1
DA:373,1
DA:374,1
DA:375,1
DA:378,1
DA:379,1
DA:380,1
DA:381,1
DA:382,1
DA:383,1
DA:384,1
DA:385,1
DA:386,1
DA:387,1
DA:388,1
DA:389,1
DA:390,1
DA:391,1
DA:392,1
DA:394,1
DA:397,1
DA:398,1
DA:399,1
DA:400,1
DA:403,1
DA:404,1
DA:405,1
DA:406,1
DA:407,1
DA:408,1
DA:409,1
DA:410,1
DA:411,1
DA:412,1
DA:413,1
DA:414,1
DA:417,1
DA:418,1
DA:419,1
DA:420,1
DA:421,1
BRF:0
BRH:0
LF:246
LH:132
end_of_record
SF:/home/tasuku/com/github/signal-slot/embedded-charts/src/legend/style.rs
FN:154,_RNvMNtNtCs1I4G5KWFz5n_15embedded_charts6legend5styleINtB2_11LegendStylepE12professionalB6_
FN:167,_RNvMNtNtCs1I4G5KWFz5n_15embedded_charts6legend5styleINtB2_11LegendStylepE7compactB6_
FN:141,_RNvMNtNtCs1I4G5KWFz5n_15embedded_charts6legend5styleINtB2_11LegendStylepE7minimalB6_
FN:270,_RNvMs0_NtNtCs1I4G5KWFz5n_15embedded_charts6legend5styleINtB5_11SymbolStylepE12professionalB9_
FN:283,_RNvMs0_NtNtCs1I4G5KWFz5n_15embedded_charts6legend5styleINtB5_11SymbolStylepE7compactB9_
FN:257,_RNvMs0_NtNtCs1I4G5KWFz5n_15embedded_charts6legend5styleINtB5_11SymbolStylepE7minimalB9_
FN:320,_RNvMs1_NtNtCs1I4G5KWFz5n_15embedded_charts6legend5styleINtB5_15BackgroundStylepE12professionalB9_
FN:338,_RNvMs1_NtNtCs1I4G5KWFz5n_15embedded_charts6legend5styleINtB5_15BackgroundStylepE7compactB9_
FN:309,_RNvMs1_NtNtCs1I4G5KWFz5n_15embedded_charts6legend5styleINtB5_15BackgroundStylepE7minimalB9_
FN:373,_RNvMs2_NtNtCs1I4G5KWFz5n_15embedded_charts6legend5styleNtB5_12SpacingStyle12professional
FN:384,_RNvMs2_NtNtCs1I4G5KWFz5n_15embedded_charts6legend5styleNtB5_12SpacingStyle7compact
FN:362,_RNvMs2_NtNtCs1I4G5KWFz5n_15embedded_charts6legend5styleNtB5_12SpacingStyle7minimal
FN:427,_RNvMs3_NtNtCs1I4G5KWFz5n_15embedded_charts6legend5styleNtB5_7Padding10horizontal
FN:417,_RNvMs3_NtNtCs1I4G5KWFz5n_15embedded_charts6legend5styleNtB5_7Padding3new
FN:432,_RNvMs3_NtNtCs1I4G5KWFz5n_15embedded_charts6legend5styleNtB5_7Padding8vertical
FN:407,_RNvMs3_NtNtCs1I4G5KWFz5n_15embedded_charts6legend5styleNtB5_7Padding9symmetric
FN:469,_RNvMs4_NtNtCs1I4G5KWFz5n_15embedded_charts6legend5styleNtB5_7Margins10horizontal
FN:459,_RNvMs4_NtNtCs1I4G5KWFz5n_15embedded_charts6legend5styleNtB5_7Margins3new
FN:474,_RNvMs4_NtNtCs1I4G5KWFz5n_15embedded_charts6legend5styleNtB5_7Margins8vertical
FN:449,_RNvMs4_NtNtCs1I4G5KWFz5n_15embedded_charts6legend5styleNtB5_7Margins9symmetric
FN:212,_RNvMs_NtNtCs1I4G5KWFz5n_15embedded_charts6legend5styleINtB4_9TextStylepE12professionalB8_
FN:227,_RNvMs_NtNtCs1I4G5KWFz5n_15embedded_charts6legend5styleINtB4_9TextStylepE7compactB8_
FN:197,_RNvMs_NtNtCs1I4G5KWFz5n_15embedded_charts6legend5styleINtB4_9TextStylepE7minimalB8_
FN:493,_RNvXININtNtCs1I4G5KWFz5n_15embedded_charts6legend5styles6_0pEINtB5_9TextStylepENtNtCs3XRySYX51hI_4core7default7Default7defaultB9_
FN:502,_RNvXININtNtCs1I4G5KWFz5n_15embedded_charts6legend5styles7_0pEINtB5_11SymbolStylepENtNtCs3XRySYX51hI_4core7default7Default7defaultB9_
FN:508,_RNvXININtNtCs1I4G5KWFz5n_15embedded_charts6legend5styles8_0pEINtB5_15BackgroundStylepENtNtCs3XRySYX51hI_4core7default7Default7defaultB9_
FN:514,_RNvXs9_NtNtCs1I4G5KWFz5n_15embedded_charts6legend5styleNtB5_12SpacingStyleNtNtCs3XRySYX51hI_4core7default7Default7default
FN:520,_RNvXsa_NtNtCs1I4G5KWFz5n_15embedded_charts6legend5styleNtB5_13TextAlignmentNtNtCs3XRySYX51hI_4core7default7Default7default
FN:526,_RNvXsb_NtNtCs1I4G5KWFz5n_15embedded_charts6legend5styleNtB5_13SymbolQualityNtNtCs3XRySYX51hI_4core7default7Default7default
FN:532,_RNvXsc_NtNtCs1I4G5KWFz5n_15embedded_charts6legend5styleNtB5_7PaddingNtNtCs3XRySYX51hI_4core7default7Default7default
FN:538,_RNvXsd_NtNtCs1I4G5KWFz5n_15embedded_charts6legend5styleNtB5_7MarginsNtNtCs3XRySYX51hI_4core7default7Default7default
FN:351,_RNvMs2_NtNtCs1I4G5KWFz5n_15embedded_charts6legend5styleNtB5_12SpacingStyle3new
FN:397,_RNvMs3_NtNtCs1I4G5KWFz5n_15embedded_charts6legend5styleNtB5_7Padding3all
FN:439,_RNvMs4_NtNtCs1I4G5KWFz5n_15embedded_charts6legend5styleNtB5_7Margins3all
FN:128,_RNvMNtNtCs1I4G5KWFz5n_15embedded_charts6legend5styleINtB2_11LegendStyleNtNtNtCshH4H1wHMe2V_22embedded_graphics_core10pixelcolor9rgb_color6Rgb565E3newB6_
FN:244,_RNvMs0_NtNtCs1I4G5KWFz5n_15embedded_charts6legend5styleINtB5_11SymbolStyleNtNtNtCshH4H1wHMe2V_22embedded_graphics_core10pixelcolor9rgb_color6Rgb565E3newB9_
FN:298,_RNvMs1_NtNtCs1I4G5KWFz5n_15embedded_charts6legend5styleINtB5_15BackgroundStyleNtNtNtCshH4H1wHMe2V_22embedded_graphics_core10pixelcolor9rgb_color6Rgb565E3newB9_
FN:182,_RNvMs_NtNtCs1I4G5KWFz5n_15embedded_charts6legend5styleINtB4_9TextStyleNtNtNtCshH4H1wHMe2V_22embedded_graphics_core10pixelcolor9rgb_color6Rgb565E3newB8_
FN:484,_RNvXs5_NtNtCs1I4G5KWFz5n_15embedded_charts6legend5styleINtB5_11LegendStyleNtNtNtCshH4H1wHMe2V_22embedded_graphics_core10pixelcolor9rgb_color6Rgb565ENtNtCs3XRySYX51hI_4core7default7Default7defaultB9_
FNDA:0,_RNvMNtNtCs1I4G5KWFz5n_15embedded_charts6legend5styleINtB2_11LegendStylepE12professionalB6_
FNDA:0,_RNvMNtNtCs1I4G5KWFz5n_15embedded_charts6legend5styleINtB2_11LegendStylepE7compactB6_
FNDA:0,_RNvMNtNtCs1I4G5KWFz5n_15embedded_charts6legend5styleINtB2_11LegendStylepE7minimalB6_
FNDA:0,_RNvMs0_NtNtCs1I4G5KWFz5n_15embedded_charts6legend5styleINtB5_11SymbolStylepE12professionalB9_
FNDA:0,_RNvMs0_NtNtCs1I4G5KWFz5n_15embedded_charts6legend5styleINtB5_11SymbolStylepE7compactB9_
FNDA:0,_RNvMs0_NtNtCs1I4G5KWFz5n_15embedded_charts6legend5styleINtB5_11SymbolStylepE7minimalB9_
FNDA:0,_RNvMs1_NtNtCs1I4G5KWFz5n_15embedded_charts6legend5styleINtB5_15BackgroundStylepE12professionalB9_
FNDA:0,_RNvMs1_NtNtCs1I4G5KWFz5n_15embedded_charts6legend5styleINtB5_15BackgroundStylepE7compactB9_
FNDA:0,_RNvMs1_NtNtCs1I4G5KWFz5n_15embedded_charts6legend5styleINtB5_15BackgroundStylepE7minimalB9_
FNDA:0,_RNvMs2_NtNtCs1I4G5KWFz5n_15embedded_charts6legend5styleNtB5_12SpacingStyle12professional
FNDA:0,_RNvMs2_NtNtCs1I4G5KWFz5n_15embedded_charts6legend5styleNtB5_12SpacingStyle7compact
FNDA:0,_RNvMs2_NtNtCs1I4G5KWFz5n_15embedded_charts6legend5styleNtB5_12SpacingStyle7minimal
FNDA:0,_RNvMs3_NtNtCs1I4G5KWFz5n_15embedded_charts6legend5styleNtB5_7Padding10horizontal
FNDA:0,_RNvMs3_NtNtCs1I4G5KWFz5n_15embedded_charts6legend5styleNtB5_7Padding3new
FNDA:0,_RNvMs3_NtNtCs1I4G5KWFz5n_15embedded_charts6legend5styleNtB5_7Padding8vertical
FNDA:0,_RNvMs3_NtNtCs1I4G5KWFz5n_15embedded_charts6legend5styleNtB5_7Padding9symmetric
FNDA:0,_RNvMs4_NtNtCs1I4G5KWFz5n_15embedded_charts6legend5styleNtB5_7Margins10horizontal
FNDA:0,_RNvMs4_NtNtCs1I4G5KWFz5n_15embedded_charts6legend5styleNtB5_7Margins3new
FNDA:0,_RNvMs4_NtNtCs1I4G5KWFz5n_15embedded_charts6legend5styleNtB5_7Margins8vertical
FNDA:0,_RNvMs4_NtNtCs1I4G5KWFz5n_15embedded_charts6legend5styleNtB5_7Margins9symmetric
FNDA:0,_RNvMs_NtNtCs1I4G5KWFz5n_15embedded_charts6legend5styleINtB4_9TextStylepE12professionalB8_
FNDA:0,_RNvMs_NtNtCs1I4G5KWFz5n_15embedded_charts6legend5styleINtB4_9TextStylepE7compactB8_
FNDA:0,_RNvMs_NtNtCs1I4G5KWFz5n_15embedded_charts6legend5styleINtB4_9TextStylepE7minimalB8_
FNDA:0,_RNvXININtNtCs1I4G5KWFz5n_15embedded_charts6legend5styles6_0pEINtB5_9TextStylepENtNtCs3XRySYX51hI_4core7default7Default7defaultB9_
FNDA:0,_RNvXININtNtCs1I4G5KWFz5n_15embedded_charts6legend5styles7_0pEINtB5_11SymbolStylepENtNtCs3XRySYX51hI_4core7default7Default7defaultB9_
FNDA:0,_RNvXININtNtCs1I4G5KWFz5n_15embedded_charts6legend5styles8_0pEINtB5_15BackgroundStylepENtNtCs3XRySYX51hI_4core7default7Default7defaultB9_
FNDA:0,_RNvXs9_NtNtCs1I4G5KWFz5n_15embedded_charts6legend5styleNtB5_12SpacingStyleNtNtCs3XRySYX51hI_4core7default7Default7default
FNDA:0,_RNvXsa_NtNtCs1I4G5KWFz5n_15embedded_charts6legend5styleNtB5_13TextAlignmentNtNtCs3XRySYX51hI_4core7default7Default7default
FNDA:0,_RNvXsb_NtNtCs1I4G5KWFz5n_15embedded_charts6legend5styleNtB5_13SymbolQualityNtNtCs3XRySYX51hI_4core7default7Default7default
FNDA:0,_RNvXsc_NtNtCs1I4G5KWFz5n_15embedded_charts6legend5styleNtB5_7PaddingNtNtCs3XRySYX51hI_4core7default7Default7default
FNDA:0,_RNvXsd_NtNtCs1I4G5KWFz5n_15embedded_charts6legend5styleNtB5_7MarginsNtNtCs3XRySYX51hI_4core7default7Default7default
FNDA:4,_RNvMs2_NtNtCs1I4G5KWFz5n_15embedded_charts6legend5styleNtB5_12SpacingStyle3new
FNDA:4,_RNvMs3_NtNtCs1I4G5KWFz5n_15embedded_charts6legend5styleNtB5_7Padding3all
FNDA:4,_RNvMs4_NtNtCs1I4G5KWFz5n_15embedded_charts6legend5styleNtB5_7Margins3all
FNDA:4,_RNvMNtNtCs1I4G5KWFz5n_15embedded_charts6legend5styleINtB2_11LegendStyleNtNtNtCshH4H1wHMe2V_22embedded_graphics_core10pixelcolor9rgb_color6Rgb565E3newB6_
FNDA:4,_RNvMs0_NtNtCs1I4G5KWFz5n_15embedded_charts6legend5styleINtB5_11SymbolStyleNtNtNtCshH4H1wHMe2V_22embedded_graphics_core10pixelcolor9rgb_color6Rgb565E3newB9_
FNDA:4,_RNvMs1_NtNtCs1I4G5KWFz5n_15embedded_charts6legend5styleINtB5_15BackgroundStyleNtNtNtCshH4H1wHMe2V_22embedded_graphics_core10pixelcolor9rgb_color6Rgb565E3newB9_
FNDA:4,_RNvMs_NtNtCs1I4G5KWFz5n_15embedded_charts6legend5styleINtB4_9TextStyleNtNtNtCshH4H1wHMe2V_22embedded_graphics_core10pixelcolor9rgb_color6Rgb565E3newB8_
FNDA:2,_RNvXs5_NtNtCs1I4G5KWFz5n_15embedded_charts6legend5styleINtB5_11LegendStyleNtNtNtCshH4H1wHMe2V_22embedded_graphics_core10pixelcolor9rgb_color6Rgb565ENtNtCs3XRySYX51hI_4core7default7Default7defaultB9_
FNF:39
FNH:8
DA:128,4
DA:129,4
DA:130,4
DA:131,4
DA:132,4
DA:133,4
DA:134,4
DA:135,4
DA:136,4
DA:137,4
DA:138,4
DA:141,0
DA:142,0
DA:143,0
DA:144,0
DA:145,0
DA:146,0
DA:147,0
DA:148,0
DA:149,0
DA:150,0
DA:151,0
DA:154,0
DA:155,0
DA:156,0
DA:157,0
DA:158,0
DA:159,0
DA:160,0
DA:161,0
DA:162,0
DA:163,0
DA:164,0
DA:167,0
DA:168,0
DA:169,0
DA:170,0
DA:171,0
DA:172,0
DA:173,0
DA:174,0
DA:175,0
DA:176,0
DA:177,0
DA:182,4
DA:183,4
DA:184,4
DA:185,4
DA:186,4
DA:187,4
DA:188,4
DA:189,4
DA:190,4
DA:191,4
DA:192,4
DA:193,4
DA:194,4
DA:197,0
DA:198,0
DA:199,0
DA:200,0
DA:201,0
DA:202,0
DA:203,0
DA:204,0
DA:205,0
DA:206,0
DA:207,0
DA:208,0
DA:209,0
DA:212,0
DA:213,0
DA:214,0
DA:215,0
DA:216,0
DA:217,0
DA:218,0
DA:219,0
DA:220,0
DA:221,0
DA:222,0
DA:223,0
DA:224,0
DA:227,0
DA:228,0
DA:229,0
DA:230,0
DA:231,0
DA:232,0
DA:233,0
DA:234,0
DA:235,0
DA:236,0
DA:237,0
DA:238,0
DA:239,0
DA:244,4
DA:245,4
DA:246,4
DA:247,4
DA:248,4
DA:249,4
DA:250,4
DA:251,4
DA:252,4
DA:253,4
DA:254,4
DA:257,0
DA:258,0
DA:259,0
DA:260,0
DA:261,0
DA:262,0
DA:263,0
DA:264,0
DA:265,0
DA:266,0
DA:267,0
DA:270,0
DA:271,0
DA:272,0
DA:273,0
DA:274,0
DA:275,0
DA:276,0
DA:277,0
DA:278,0
DA:279,0
DA:280,0
DA:283,0
DA:284,0
DA:285,0
DA:286,0
DA:287,0
DA:288,0
DA:289,0
DA:290,0
DA:291,0
DA:292,0
DA:293,0
DA:298,4
DA:299,4
DA:300,4
DA:301,4
DA:302,4
DA:303,4
DA:304,4
DA:305,4
DA:306,4
DA:309,0
DA:310,0
DA:311,0
DA:312,0
DA:313,0
DA:314,0
DA:315,0
DA:316,0
DA:317,0
DA:320,0
DA:321,0
DA:322,0
DA:323,0
DA:324,0
DA:325,0
DA:326,0
DA:327,0
DA:328,0
DA:329,0
DA:330,0
DA:331,0
DA:332,0
DA:333,0
DA:334,0
DA:335,0
DA:338,0
DA:339,0
DA:340,0
DA:341,0
DA:342,0
DA:343,0
DA:344,0
DA:345,0
DA:346,0
DA:351,4
DA:352,4
DA:353,4
DA:354,4
DA:355,4
DA:356,4
DA:357,4
DA:358,4
DA:359,4
DA:362,0
DA:363,0
DA:364,0
DA:365,0
DA:366,0
DA:367,0
DA:368,0
DA:369,0
DA:370,0
DA:373,0
DA:374,0
DA:375,0
DA:376,0
DA:377,0
DA:378,0
DA:379,0
DA:380,0
DA:381,0
DA:384,0
DA:385,0
DA:386,0
DA:387,0
DA:388,0
DA:389,0
DA:390,0
DA:391,0
DA:392,0
DA:397,4
DA:398,4
DA:399,4
DA:400,4
DA:401,4
DA:402,4
DA:403,4
DA:404,4
DA:407,0
DA:408,0
DA:409,0
DA:410,0
DA:411,0
DA:412,0
DA:413,0
DA:414,0
DA:417,0
DA:418,0
DA:419,0
DA:420,0
DA:421,0
DA:422,0
DA:423,0
DA:424,0
DA:427,0
DA:428,0
DA:429,0
DA:432,0
DA:433,0
DA:434,0
DA:439,4
DA:440,4
DA:441,4
DA:442,4
DA:443,4
DA:444,4
DA:445,4
DA:446,4
DA:449,0
DA:450,0
DA:451,0
DA:452,0
DA:453,0
DA:454,0
DA:455,0
DA:456,0
DA:459,0
DA:460,0
DA:461,0
DA:462,0
DA:463,0
DA:464,0
DA:465,0
DA:466,0
DA:469,0
DA:470,0
DA:471,0
DA:474,0
DA:475,0
DA:476,0
DA:484,2
DA:485,2
DA:486,2
DA:493,0
DA:494,0
DA:495,0
DA:502,0
DA:503,0
DA:504,0
DA:508,0
DA:509,0
DA:510,0
DA:514,0
DA:515,0
DA:516,0
DA:520,0
DA:521,0
DA:522,0
DA:526,0
DA:527,0
DA:528,0
DA:532,0
DA:533,0
DA:534,0
DA:538,0
DA:539,0
DA:540,0
BRF:0
BRH:0
LF:306
LH:72
end_of_record
SF:/home/tasuku/com/github/signal-slot/embedded-charts/src/legend/traits.rs
FN:466,_RINvXININtNtCs1I4G5KWFz5n_15embedded_charts6legend6traitss0_0pEINtB6_21DefaultLegendRendererpEINtB6_14LegendRendererpE12render_entrypEBa_
FN:222,_RINvXININtNtCs1I4G5KWFz5n_15embedded_charts6legend6traitss0_0pEINtB6_21DefaultLegendRendererpEINtB6_14LegendRendererpE6renderpEBa_
FN:632,_RINvXININtNtCs1I4G5KWFz5n_15embedded_charts6legend6traitss3_0pEINtB6_22StandardLegendRendererpEINtB6_14LegendRendererpE12render_entrypEBa_
FN:540,_RINvXININtNtCs1I4G5KWFz5n_15embedded_charts6legend6traitss3_0pEINtB6_22StandardLegendRendererpEINtB6_14LegendRendererpE6renderpEBa_
FN:436,_RINvXININvXs0_NtNtCs1I4G5KWFz5n_15embedded_charts6legend6traitsINtBc_21DefaultLegendRendererpEINtBc_14LegendRendererpE16calculate_layouts0_0pEINtB6_22StandardLegendRendererpEIB1v_pE12render_entrypEBg_
FN:337,_RINvXININvXs0_NtNtCs1I4G5KWFz5n_15embedded_charts6legend6traitsINtBc_21DefaultLegendRendererpEINtBc_14LegendRendererpE16calculate_layouts0_0pEINtB6_22StandardLegendRendererpEIB1v_pE6renderpEBg_
FN:508,_RNCINvXININtNtCs1I4G5KWFz5n_15embedded_charts6legend6traitss0_0pEINtB8_21DefaultLegendRendererpEINtB8_14LegendRendererpE12render_entrypE0Bc_
FN:245,_RNCINvXININtNtCs1I4G5KWFz5n_15embedded_charts6legend6traitss0_0pEINtB8_21DefaultLegendRendererpEINtB8_14LegendRendererpE6renderpE0Bc_
FN:252,_RNCINvXININtNtCs1I4G5KWFz5n_15embedded_charts6legend6traitss0_0pEINtB8_21DefaultLegendRendererpEINtB8_14LegendRendererpE6renderpEs_0Bc_
FN:674,_RNCINvXININtNtCs1I4G5KWFz5n_15embedded_charts6legend6traitss3_0pEINtB8_22StandardLegendRendererpEINtB8_14LegendRendererpE12render_entrypE0Bc_
FN:563,_RNCINvXININtNtCs1I4G5KWFz5n_15embedded_charts6legend6traitss3_0pEINtB8_22StandardLegendRendererpEINtB8_14LegendRendererpE6renderpE0Bc_
FN:570,_RNCINvXININtNtCs1I4G5KWFz5n_15embedded_charts6legend6traitss3_0pEINtB8_22StandardLegendRendererpEINtB8_14LegendRendererpE6renderpEs_0Bc_
FN:360,_RNCINvXININvXs0_NtNtCs1I4G5KWFz5n_15embedded_charts6legend6traitsINtBe_21DefaultLegendRendererpEINtBe_14LegendRendererpE16calculate_layouts0_0pEINtB8_22StandardLegendRendererpEIB1x_pE6renderpE0Bi_
FN:367,_RNCINvXININvXs0_NtNtCs1I4G5KWFz5n_15embedded_charts6legend6traitsINtBe_21DefaultLegendRendererpEINtBe_14LegendRendererpE16calculate_layouts0_0pEINtB8_22StandardLegendRendererpEIB1x_pE6renderpEs_0Bi_
FN:267,_RNCNvXININtNtCs1I4G5KWFz5n_15embedded_charts6legend6traitss0_0pEINtB7_21DefaultLegendRendererpEINtB7_14LegendRendererpE16calculate_layout0Bb_
FN:585,_RNCNvXININtNtCs1I4G5KWFz5n_15embedded_charts6legend6traitss3_0pEINtB7_22StandardLegendRendererpEINtB7_14LegendRendererpE16calculate_layout0Bb_
FN:383,_RNCNvXININvXs0_NtNtCs1I4G5KWFz5n_15embedded_charts6legend6traitsINtBd_21DefaultLegendRendererpEINtBd_14LegendRendererpE16calculate_layouts0_0pEINtB7_22StandardLegendRendererpEIB1w_pE16calculate_layout0Bh_
FN:57,_RNCNvYpINtNtNtCs1I4G5KWFz5n_15embedded_charts6legend6traits6LegendpE19visible_entry_count0Bc_
FN:204,_RNvMNtNtCs1I4G5KWFz5n_15embedded_charts6legend6traitsINtB2_21DefaultLegendRendererpE3newB6_
FN:319,_RNvMNvXs0_NtNtCs1I4G5KWFz5n_15embedded_charts6legend6traitsINtB8_21DefaultLegendRendererpEINtB8_14LegendRendererpE16calculate_layoutINtB2_22StandardLegendRendererpE3newBc_
FN:522,_RNvMs1_NtNtCs1I4G5KWFz5n_15embedded_charts6legend6traitsINtB5_22StandardLegendRendererpE3newB9_
FN:261,_RNvXININtNtCs1I4G5KWFz5n_15embedded_charts6legend6traitss0_0pEINtB5_21DefaultLegendRendererpEINtB5_14LegendRendererpE16calculate_layoutB9_
FN:530,_RNvXININtNtCs1I4G5KWFz5n_15embedded_charts6legend6traitss2_0pEINtB5_22StandardLegendRendererpENtNtCs3XRySYX51hI_4core7default7Default7defaultB9_
FN:579,_RNvXININtNtCs1I4G5KWFz5n_15embedded_charts6legend6traitss3_0pEINtB5_22StandardLegendRendererpEINtB5_14LegendRendererpE16calculate_layoutB9_
FN:212,_RNvXININtNtCs1I4G5KWFz5n_15embedded_charts6legend6traitss_0pEINtB5_21DefaultLegendRendererpENtNtCs3XRySYX51hI_4core7default7Default7defaultB9_
FN:376,_RNvXININvXs0_NtNtCs1I4G5KWFz5n_15embedded_charts6legend6traitsINtBb_21DefaultLegendRendererpEINtBb_14LegendRendererpE16calculate_layouts0_0pEINtB5_22StandardLegendRendererpEIB1u_pE16calculate_layoutBf_
FN:327,_RNvXININvXs0_NtNtCs1I4G5KWFz5n_15embedded_charts6legend6traitsINtBb_21DefaultLegendRendererpEINtBb_14LegendRendererpE16calculate_layouts_0pEINtB5_22StandardLegendRendererpENtNtCs3XRySYX51hI_4core7default7Default7defaultBf_
FN:56,_RNvYpINtNtNtCs1I4G5KWFz5n_15embedded_charts6legend6traits6LegendpE19visible_entry_countBa_
FN:51,_RNvYpINtNtNtCs1I4G5KWFz5n_15embedded_charts6legend6traits6LegendpE8is_emptyBa_
FNDA:0,_RINvXININtNtCs1I4G5KWFz5n_15embedded_charts6legend6traitss0_0pEINtB6_21DefaultLegendRendererpEINtB6_14LegendRendererpE12render_entrypEBa_
FNDA:0,_RINvXININtNtCs1I4G5KWFz5n_15embedded_charts6legend6traitss0_0pEINtB6_21DefaultLegendRendererpEINtB6_14LegendRendererpE6renderpEBa_
FNDA:0,_RINvXININtNtCs1I4G5KWFz5n_15embedded_charts6legend6traitss3_0pEINtB6_22StandardLegendRendererpEINtB6_14LegendRendererpE12render_entrypEBa_
FNDA:0,_RINvXININtNtCs1I4G5KWFz5n_15embedded_charts6legend6traitss3_0pEINtB6_22StandardLegendRendererpEINtB6_14LegendRendererpE6renderpEBa_
FNDA:0,_RINvXININvXs0_NtNtCs1I4G5KWFz5n_15embedded_charts6legend6traitsINtBc_21DefaultLegendRendererpEINtBc_14LegendRendererpE16calculate_layouts0_0pEINtB6_22StandardLegendRendererpEIB1v_pE12render_entrypEBg_
FNDA:0,_RINvXININvXs0_NtNtCs1I4G5KWFz5n_15embedded_charts6legend6traitsINtBc_21DefaultLegendRendererpEINtBc_14LegendRendererpE16calculate_layouts0_0pEINtB6_22StandardLegendRendererpEIB1v_pE6renderpEBg_
FNDA:0,_RNCINvXININtNtCs1I4G5KWFz5n_15embedded_charts6legend6traitss0_0pEINtB8_21DefaultLegendRendererpEINtB8_14LegendRendererpE12render_entrypE0Bc_
FNDA:0,_RNCINvXININtNtCs1I4G5KWFz5n_15embedded_charts6legend6traitss0_0pEINtB8_21DefaultLegendRendererpEINtB8_14LegendRendererpE6renderpE0Bc_
FNDA:0,_RNCINvXININtNtCs1I4G5KWFz5n_15embedded_charts6legend6traitss0_0pEINtB8_21DefaultLegendRendererpEINtB8_14LegendRendererpE6renderpEs_0Bc_
FNDA:0,_RNCINvXININtNtCs1I4G5KWFz5n_15embedded_charts6legend6traitss3_0pEINtB8_22StandardLegendRendererpEINtB8_14LegendRendererpE12render_entrypE0Bc_
FNDA:0,_RNCINvXININtNtCs1I4G5KWFz5n_15embedded_charts6legend6traitss3_0pEINtB8_22StandardLegendRendererpEINtB8_14LegendRendererpE6renderpE0Bc_
FNDA:0,_RNCINvXININtNtCs1I4G5KWFz5n_15embedded_charts6legend6traitss3_0pEINtB8_22StandardLegendRendererpEINtB8_14LegendRendererpE6renderpEs_0Bc_
FNDA:0,_RNCINvXININvXs0_NtNtCs1I4G5KWFz5n_15embedded_charts6legend6traitsINtBe_21DefaultLegendRendererpEINtBe_14LegendRendererpE16calculate_layouts0_0pEINtB8_22StandardLegendRendererpEIB1x_pE6renderpE0Bi_
FNDA:0,_RNCINvXININvXs0_NtNtCs1I4G5KWFz5n_15embedded_charts6legend6traitsINtBe_21DefaultLegendRendererpEINtBe_14LegendRendererpE16calculate_layouts0_0pEINtB8_22StandardLegendRendererpEIB1x_pE6renderpEs_0Bi_
FNDA:0,_RNCNvXININtNtCs1I4G5KWFz5n_15embedded_charts6legend6traitss0_0pEINtB7_21DefaultLegendRendererpEINtB7_14LegendRendererpE16calculate_layout0Bb_
FNDA:0,_RNCNvXININtNtCs1I4G5KWFz5n_15embedded_charts6legend6traitss3_0pEINtB7_22StandardLegendRendererpEINtB7_14LegendRendererpE16calculate_layout0Bb_
FNDA:0,_RNCNvXININvXs0_NtNtCs1I4G5KWFz5n_15embedded_charts6legend6traitsINtBd_21DefaultLegendRendererpEINtBd_14LegendRendererpE16calculate_layouts0_0pEINtB7_22StandardLegendRendererpEIB1w_pE16calculate_layout0Bh_
FNDA:0,_RNCNvYpINtNtNtCs1I4G5KWFz5n_15embedded_charts6legend6traits6LegendpE19visible_entry_count0Bc_
FNDA:0,_RNvMNtNtCs1I4G5KWFz5n_15embedded_charts6legend6traitsINtB2_21DefaultLegendRendererpE3newB6_
FNDA:0,_RNvMNvXs0_NtNtCs1I4G5KWFz5n_15embedded_charts6legend6traitsINtB8_21DefaultLegendRendererpEINtB8_14LegendRendererpE16calculate_layoutINtB2_22StandardLegendRendererpE3newBc_
FNDA:0,_RNvMs1_NtNtCs1I4G5KWFz5n_15embedded_charts6legend6traitsINtB5_22StandardLegendRendererpE3newB9_
FNDA:0,_RNvXININtNtCs1I4G5KWFz5n_15embedded_charts6legend6traitss0_0pEINtB5_21DefaultLegendRendererpEINtB5_14LegendRendererpE16calculate_layoutB9_
FNDA:0,_RNvXININtNtCs1I4G5KWFz5n_15embedded_charts6legend6traitss2_0pEINtB5_22StandardLegendRendererpENtNtCs3XRySYX51hI_4core7default7Default7defaultB9_
FNDA:0,_RNvXININtNtCs1I4G5KWFz5n_15embedded_charts6legend6traitss3_0pEINtB5_22StandardLegendRendererpEINtB5_14LegendRendererpE16calculate_layoutB9_
FNDA:0,_RNvXININtNtCs1I4G5KWFz5n_15embedded_charts6legend6traitss_0pEINtB5_21DefaultLegendRendererpENtNtCs3XRySYX51hI_4core7default7Default7defaultB9_
FNDA:0,_RNvXININvXs0_NtNtCs1I4G5KWFz5n_15embedded_charts6legend6traitsINtBb_21DefaultLegendRendererpEINtBb_14LegendRendererpE16calculate_layouts0_0pEINtB5_22StandardLegendRendererpEIB1u_pE16calculate_layoutBf_
FNDA:0,_RNvXININvXs0_NtNtCs1I4G5KWFz5n_15embedded_charts6legend6traitsINtBb_21DefaultLegendRendererpEINtBb_14LegendRendererpE16calculate_layouts_0pEINtB5_22StandardLegendRendererpENtNtCs3XRySYX51hI_4core7default7Default7defaultBf_
FNDA:0,_RNvYpINtNtNtCs1I4G5KWFz5n_15embedded_charts6legend6traits6LegendpE19visible_entry_countBa_
FNDA:0,_RNvYpINtNtNtCs1I4G5KWFz5n_15embedded_charts6legend6traits6LegendpE8is_emptyBa_
FNF:29
FNH:0
DA:51,0
DA:52,0
DA:53,0
DA:56,0
DA:57,0
DA:58,0
DA:204,0
DA:205,0
DA:206,0
DA:207,0
DA:208,0
DA:212,0
DA:213,0
DA:214,0
DA:222,0
DA:223,0
DA:224,0
DA:225,0
DA:226,0
DA:227,0
DA:228,0
DA:229,0
DA:230,0
DA:231,0
DA:232,0
DA:233,0
DA:235,0
DA:238,0
DA:242,0
DA:243,0
DA:244,0
DA:245,0
DA:246,0
DA:249,0
DA:250,0
DA:251,0
DA:252,0
DA:253,0
DA:255,0
DA:258,0
DA:259,0
DA:261,0
DA:262,0
DA:263,0
DA:264,0
DA:265,0
DA:266,0
DA:267,0
DA:268,0
DA:269,0
DA:270,0
DA:271,0
DA:272,0
DA:273,0
DA:275,0
DA:276,0
DA:278,0
DA:279,0
DA:280,0
DA:281,0
DA:282,0
DA:283,0
DA:284,0
DA:285,0
DA:286,0
DA:290,0
DA:291,0
DA:293,0
DA:294,0
DA:295,0
DA:296,0
DA:297,0
DA:298,0
DA:299,0
DA:300,0
DA:301,0
DA:302,0
DA:303,0
DA:304,0
DA:305,0
DA:306,0
DA:319,0
DA:320,0
DA:321,0
DA:322,0
DA:323,0
DA:327,0
DA:328,0
DA:329,0
DA:337,0
DA:338,0
DA:339,0
DA:340,0
DA:341,0
DA:342,0
DA:343,0
DA:344,0
DA:345,0
DA:346,0
DA:347,0
DA:348,0
DA:350,0
DA:353,0
DA:357,0
DA:358,0
DA:359,0
DA:360,0
DA:361,0
DA:364,0
DA:365,0
DA:366,0
DA:367,0
DA:368,0
DA:370,0
DA:373,0
DA:374,0
DA:376,0
DA:377,0
DA:378,0
DA:379,0
DA:380,0
DA:381,0
DA:382,0
DA:383,0
DA:384,0
DA:385,0
DA:386,0
DA:387,0
DA:388,0
DA:389,0
DA:391,0
DA:392,0
DA:394,0
DA:395,0
DA:396,0
DA:397,0
DA:398,0
DA:399,0
DA:400,0
DA:401,0
DA:402,0
DA:403,0
DA:404,0
DA:405,0
DA:409,0
DA:410,0
DA:412,0
DA:413,0
DA:414,0
DA:415,0
DA:416,0
DA:417,0
DA:418,0
DA:419,0
DA:420,0
DA:421,0
DA:422,0
DA:423,0
DA:424,0
DA:425,0
DA:426,0
DA:427,0
DA:428,0
DA:433,0
DA:434,0
DA:436,0
DA:437,0
DA:438,0
DA:439,0
DA:440,0
DA:441,0
DA:442,0
DA:443,0
DA:444,0
DA:445,0
DA:446,0
DA:447,0
DA:448,0
DA:449,0
DA:450,0
DA:451,0
DA:452,0
DA:453,0
DA:454,0
DA:459,0
DA:460,0
DA:463,0
DA:464,0
DA:466,0
DA:467,0
DA:468,0
DA:469,0
DA:470,0
DA:471,0
DA:472,0
DA:473,0
DA:474,0
DA:475,0
DA:476,0
DA:477,0
DA:478,0
DA:479,0
DA:480,0
DA:481,0
DA:482,0
DA:483,0
DA:484,0
DA:487,0
DA:488,0
DA:496,0
DA:497,0
DA:498,0
DA:499,0
DA:500,0
DA:501,0
DA:502,0
DA:503,0
DA:504,0
DA:505,0
DA:506,0
DA:507,0
DA:508,0
DA:510,0
DA:511,0
DA:522,0
DA:523,0
DA:524,0
DA:525,0
DA:526,0
DA:530,0
DA:531,0
DA:532,0
DA:540,0
DA:541,0
DA:542,0
DA:543,0
DA:544,0
DA:545,0
DA:546,0
DA:547,0
DA:548,0
DA:549,0
DA:550,0
DA:551,0
DA:553,0
DA:556,0
DA:560,0
DA:561,0
DA:562,0
DA:563,0
DA:564,0
DA:567,0
DA:568,0
DA:569,0
DA:570,0
DA:571,0
DA:573,0
DA:576,0
DA:577,0
DA:579,0
DA:580,0
DA:581,0
DA:582,0
DA:583,0
DA:584,0
DA:585,0
DA:586,0
DA:587,0
DA:588,0
DA:589,0
DA:590,0
DA:591,0
DA:593,0
DA:594,0
DA:596,0
DA:597,0
DA:598,0
DA:599,0
DA:600,0
DA:601,0
DA:602,0
DA:603,0
DA:604,0
DA:608,0
DA:609,0
DA:611,0
DA:612,0
DA:613,0
DA:614,0
DA:615,0
DA:616,0
DA:617,0
DA:618,0
DA:619,0
DA:620,0
DA:621,0
DA:622,0
DA:623,0
DA:624,0
DA:629,0
DA:630,0
DA:632,0
DA:633,0
DA:634,0
DA:635,0
DA:636,0
DA:637,0
DA:638,0
DA:639,0
DA:640,0
DA:641,0
DA:642,0
DA:643,0
DA:644,0
DA:645,0
DA:646,0
DA:647,0
DA:648,0
DA:649,0
DA:650,0
DA:653,0
DA:654,0
DA:662,0
DA:663,0
DA:664,0
DA:665,0
DA:666,0
DA:667,0
DA:668,0
DA:669,0
DA:670,0
DA:671,0
DA:672,0
DA:673,0
DA:674,0
DA:676,0
DA:677,0
BRF:0
BRH:0
LF:349
LH:0
end_of_record
SF:/home/tasuku/com/github/signal-slot/embedded-charts/src/legend/types.rs
FN:608,_RINvXININtNtCs1I4G5KWFz5n_15embedded_charts6legend5typess7_0pEINtB6_19StandardLegendEntrypEINtNtB8_6traits11LegendEntrypE13render_symbolpEBa_
FN:718,_RINvXININtNtCs1I4G5KWFz5n_15embedded_charts6legend5typess8_0pEINtB6_18CompactLegendEntrypEINtNtB8_6traits11LegendEntrypE13render_symbolpEBa_
FN:855,_RINvXININtNtCs1I4G5KWFz5n_15embedded_charts6legend5typessb_0pEINtB6_17CustomLegendEntrypEINtNtB8_6traits11LegendEntrypE13render_symbolpEBa_
FN:630,_RNCINvXININtNtCs1I4G5KWFz5n_15embedded_charts6legend5typess7_0pEINtB8_19StandardLegendEntrypEINtNtBa_6traits11LegendEntrypE13render_symbolpE0Bc_
FN:657,_RNCINvXININtNtCs1I4G5KWFz5n_15embedded_charts6legend5typess7_0pEINtB8_19StandardLegendEntrypEINtNtBa_6traits11LegendEntrypE13render_symbolpEs0_0Bc_
FN:668,_RNCINvXININtNtCs1I4G5KWFz5n_15embedded_charts6legend5typess7_0pEINtB8_19StandardLegendEntrypEINtNtBa_6traits11LegendEntrypE13render_symbolpEs1_0Bc_
FN:675,_RNCINvXININtNtCs1I4G5KWFz5n_15embedded_charts6legend5typess7_0pEINtB8_19StandardLegendEntrypEINtNtBa_6traits11LegendEntrypE13render_symbolpEs2_0Bc_
FN:643,_RNCINvXININtNtCs1I4G5KWFz5n_15embedded_charts6legend5typess7_0pEINtB8_19StandardLegendEntrypEINtNtBa_6traits11LegendEntrypE13render_symbolpEs_0Bc_
FN:740,_RNCINvXININtNtCs1I4G5KWFz5n_15embedded_charts6legend5typess8_0pEINtB8_18CompactLegendEntrypEINtNtBa_6traits11LegendEntrypE13render_symbolpE0Bc_
FN:767,_RNCINvXININtNtCs1I4G5KWFz5n_15embedded_charts6legend5typess8_0pEINtB8_18CompactLegendEntrypEINtNtBa_6traits11LegendEntrypE13render_symbolpEs0_0Bc_
FN:778,_RNCINvXININtNtCs1I4G5KWFz5n_15embedded_charts6legend5typess8_0pEINtB8_18CompactLegendEntrypEINtNtBa_6traits11LegendEntrypE13render_symbolpEs1_0Bc_
FN:785,_RNCINvXININtNtCs1I4G5KWFz5n_15embedded_charts6legend5typess8_0pEINtB8_18CompactLegendEntrypEINtNtBa_6traits11LegendEntrypE13render_symbolpEs2_0Bc_
FN:753,_RNCINvXININtNtCs1I4G5KWFz5n_15embedded_charts6legend5typess8_0pEINtB8_18CompactLegendEntrypEINtNtBa_6traits11LegendEntrypE13render_symbolpEs_0Bc_
FN:877,_RNCINvXININtNtCs1I4G5KWFz5n_15embedded_charts6legend5typessb_0pEINtB8_17CustomLegendEntrypEINtNtBa_6traits11LegendEntrypE13render_symbolpE0Bc_
FN:903,_RNCINvXININtNtCs1I4G5KWFz5n_15embedded_charts6legend5typessb_0pEINtB8_17CustomLegendEntrypEINtNtBa_6traits11LegendEntrypE13render_symbolpEs0_0Bc_
FN:912,_RNCINvXININtNtCs1I4G5KWFz5n_15embedded_charts6legend5typessb_0pEINtB8_17CustomLegendEntrypEINtNtBa_6traits11LegendEntrypE13render_symbolpEs1_0Bc_
FN:919,_RNCINvXININtNtCs1I4G5KWFz5n_15embedded_charts6legend5typessb_0pEINtB8_17CustomLegendEntrypEINtNtBa_6traits11LegendEntrypE13render_symbolpEs2_0Bc_
FN:889,_RNCINvXININtNtCs1I4G5KWFz5n_15embedded_charts6legend5typessb_0pEINtB8_17CustomLegendEntrypEINtNtBa_6traits11LegendEntrypE13render_symbolpEs_0Bc_
FN:182,_RNCNvMNtNtCs1I4G5KWFz5n_15embedded_charts6legend5typesINtB4_13CompactLegendpE9add_entry0B8_
FN:268,_RNCNvMs0_NtNtCs1I4G5KWFz5n_15embedded_charts6legend5typesINtB7_18CompactLegendEntrypE3new0Bb_
FN:326,_RNCNvMs1_NtNtCs1I4G5KWFz5n_15embedded_charts6legend5typesINtB7_12CustomLegendpE9add_entry0Bb_
FN:424,_RNCNvMs3_NtNtCs1I4G5KWFz5n_15embedded_charts6legend5typesINtB7_17CustomLegendEntrypE3new0Bb_
FN:356,_RNCNvXININtNtCs1I4G5KWFz5n_15embedded_charts6legend5typess2_0pEINtB7_12CustomLegendpEINtNtB9_6traits6LegendpE9add_entry0Bb_
FN:522,_RNCNvXININtNtCs1I4G5KWFz5n_15embedded_charts6legend5typess5_0pEINtB7_14StandardLegendpEINtNtB9_6traits6LegendpE14calculate_size0Bb_
FN:536,_RNCNvXININtNtCs1I4G5KWFz5n_15embedded_charts6legend5typess5_0pEINtB7_14StandardLegendpEINtNtB9_6traits6LegendpE14calculate_sizes0_0Bb_
FN:545,_RNCNvXININtNtCs1I4G5KWFz5n_15embedded_charts6legend5typess5_0pEINtB7_14StandardLegendpEINtNtB9_6traits6LegendpE14calculate_sizes1_0Bb_
FN:551,_RNCNvXININtNtCs1I4G5KWFz5n_15embedded_charts6legend5typess5_0pEINtB7_14StandardLegendpEINtNtB9_6traits6LegendpE14calculate_sizes2_0Bb_
FN:531,_RNCNvXININtNtCs1I4G5KWFz5n_15embedded_charts6legend5typess5_0pEINtB7_14StandardLegendpEINtNtB9_6traits6LegendpE14calculate_sizes_0Bb_
FN:582,_RNCNvXININtNtCs1I4G5KWFz5n_15embedded_charts6legend5typess7_0pEINtB7_19StandardLegendEntrypEINtNtB9_6traits11LegendEntrypE9set_label0Bb_
FN:692,_RNCNvXININtNtCs1I4G5KWFz5n_15embedded_charts6legend5typess8_0pEINtB7_18CompactLegendEntrypEINtNtB9_6traits11LegendEntrypE9set_label0Bb_
FN:212,_RNCNvXININtNtCs1I4G5KWFz5n_15embedded_charts6legend5typess_0pEINtB7_13CompactLegendpEINtNtB9_6traits6LegendpE9add_entry0Bb_
FN:823,_RNCNvXININtNtCs1I4G5KWFz5n_15embedded_charts6legend5typessb_0pEINtB7_17CustomLegendEntrypEINtNtB9_6traits11LegendEntrypE9set_label0Bb_
FN:169,_RNvMNtNtCs1I4G5KWFz5n_15embedded_charts6legend5typesINtB2_13CompactLegendpE15set_orientationB6_
FN:159,_RNvMNtNtCs1I4G5KWFz5n_15embedded_charts6legend5typesINtB2_13CompactLegendpE3newB6_
FN:179,_RNvMNtNtCs1I4G5KWFz5n_15embedded_charts6legend5typesINtB2_13CompactLegendpE9add_entryB6_
FN:174,_RNvMNtNtCs1I4G5KWFz5n_15embedded_charts6legend5typesINtB2_13CompactLegendpE9set_styleB6_
FN:264,_RNvMs0_NtNtCs1I4G5KWFz5n_15embedded_charts6legend5typesINtB5_18CompactLegendEntrypE3newB9_
FN:308,_RNvMs1_NtNtCs1I4G5KWFz5n_15embedded_charts6legend5typesINtB5_12CustomLegendpE15set_orientationB9_
FN:318,_RNvMs1_NtNtCs1I4G5KWFz5n_15embedded_charts6legend5typesINtB5_12CustomLegendpE17set_layout_paramsB9_
FN:297,_RNvMs1_NtNtCs1I4G5KWFz5n_15embedded_charts6legend5typesINtB5_12CustomLegendpE3newB9_
FN:323,_RNvMs1_NtNtCs1I4G5KWFz5n_15embedded_charts6legend5typesINtB5_12CustomLegendpE9add_entryB9_
FN:313,_RNvMs1_NtNtCs1I4G5KWFz5n_15embedded_charts6legend5typesINtB5_12CustomLegendpE9set_styleB9_
FN:420,_RNvMs3_NtNtCs1I4G5KWFz5n_15embedded_charts6legend5typesINtB5_17CustomLegendEntrypE3newB9_
FN:466,_RNvMs4_NtNtCs1I4G5KWFz5n_15embedded_charts6legend5typesINtB5_14StandardLegendpE5styleB9_
FN:349,_RNvXININtNtCs1I4G5KWFz5n_15embedded_charts6legend5typess2_0pEINtB5_12CustomLegendpEINtNtB7_6traits6LegendpE11entries_mutB9_
FN:341,_RNvXININtNtCs1I4G5KWFz5n_15embedded_charts6legend5typess2_0pEINtB5_12CustomLegendpEINtNtB7_6traits6LegendpE11orientationB9_
FN:360,_RNvXININtNtCs1I4G5KWFz5n_15embedded_charts6legend5typess2_0pEINtB5_12CustomLegendpEINtNtB7_6traits6LegendpE12remove_entryB9_
FN:373,_RNvXININtNtCs1I4G5KWFz5n_15embedded_charts6legend5typess2_0pEINtB5_12CustomLegendpEINtNtB7_6traits6LegendpE12set_positionB9_
FN:369,_RNvXININtNtCs1I4G5KWFz5n_15embedded_charts6legend5typess2_0pEINtB5_12CustomLegendpEINtNtB7_6traits6LegendpE13clear_entriesB9_
FN:381,_RNvXININtNtCs1I4G5KWFz5n_15embedded_charts6legend5typess2_0pEINtB5_12CustomLegendpEINtNtB7_6traits6LegendpE14calculate_sizeB9_
FN:377,_RNvXININtNtCs1I4G5KWFz5n_15embedded_charts6legend5typess2_0pEINtB5_12CustomLegendpEINtNtB7_6traits6LegendpE15set_orientationB9_
FN:345,_RNvXININtNtCs1I4G5KWFz5n_15embedded_charts6legend5typess2_0pEINtB5_12CustomLegendpEINtNtB7_6traits6LegendpE7entriesB9_
FN:337,_RNvXININtNtCs1I4G5KWFz5n_15embedded_charts6legend5typess2_0pEINtB5_12CustomLegendpEINtNtB7_6traits6LegendpE8positionB9_
FN:353,_RNvXININtNtCs1I4G5KWFz5n_15embedded_charts6legend5typess2_0pEINtB5_12CustomLegendpEINtNtB7_6traits6LegendpE9add_entryB9_
FN:478,_RNvXININtNtCs1I4G5KWFz5n_15embedded_charts6legend5typess5_0pEINtB5_14StandardLegendpEINtNtB7_6traits6LegendpE11entries_mutB9_
FN:488,_RNvXININtNtCs1I4G5KWFz5n_15embedded_charts6legend5typess5_0pEINtB5_14StandardLegendpEINtNtB7_6traits6LegendpE12remove_entryB9_
FN:505,_RNvXININtNtCs1I4G5KWFz5n_15embedded_charts6legend5typess5_0pEINtB5_14StandardLegendpEINtNtB7_6traits6LegendpE12set_positionB9_
FN:497,_RNvXININtNtCs1I4G5KWFz5n_15embedded_charts6legend5typess5_0pEINtB5_14StandardLegendpEINtNtB7_6traits6LegendpE13clear_entriesB9_
FN:517,_RNvXININtNtCs1I4G5KWFz5n_15embedded_charts6legend5typess5_0pEINtB5_14StandardLegendpEINtNtB7_6traits6LegendpE14calculate_sizeB9_
FN:586,_RNvXININtNtCs1I4G5KWFz5n_15embedded_charts6legend5typess7_0pEINtB5_19StandardLegendEntrypEINtNtB7_6traits11LegendEntrypE10entry_typeB9_
FN:594,_RNvXININtNtCs1I4G5KWFz5n_15embedded_charts6legend5typess7_0pEINtB5_19StandardLegendEntrypEINtNtB7_6traits11LegendEntrypE10is_visibleB9_
FN:598,_RNvXININtNtCs1I4G5KWFz5n_15embedded_charts6legend5typess7_0pEINtB5_19StandardLegendEntrypEINtNtB7_6traits11LegendEntrypE11set_visibleB9_
FN:602,_RNvXININtNtCs1I4G5KWFz5n_15embedded_charts6legend5typess7_0pEINtB5_19StandardLegendEntrypEINtNtB7_6traits11LegendEntrypE14calculate_sizeB9_
FN:590,_RNvXININtNtCs1I4G5KWFz5n_15embedded_charts6legend5typess7_0pEINtB5_19StandardLegendEntrypEINtNtB7_6traits11LegendEntrypE14set_entry_typeB9_
FN:576,_RNvXININtNtCs1I4G5KWFz5n_15embedded_charts6legend5typess7_0pEINtB5_19StandardLegendEntrypEINtNtB7_6traits11LegendEntrypE5labelB9_
FN:580,_RNvXININtNtCs1I4G5KWFz5n_15embedded_charts6legend5typess7_0pEINtB5_19StandardLegendEntrypEINtNtB7_6traits11LegendEntrypE9set_labelB9_
FN:696,_RNvXININtNtCs1I4G5KWFz5n_15embedded_charts6legend5typess8_0pEINtB5_18CompactLegendEntrypEINtNtB7_6traits11LegendEntrypE10entry_typeB9_
FN:704,_RNvXININtNtCs1I4G5KWFz5n_15embedded_charts6legend5typess8_0pEINtB5_18CompactLegendEntrypEINtNtB7_6traits11LegendEntrypE10is_visibleB9_
FN:708,_RNvXININtNtCs1I4G5KWFz5n_15embedded_charts6legend5typess8_0pEINtB5_18CompactLegendEntrypEINtNtB7_6traits11LegendEntrypE11set_visibleB9_
FN:712,_RNvXININtNtCs1I4G5KWFz5n_15embedded_charts6legend5typess8_0pEINtB5_18CompactLegendEntrypEINtNtB7_6traits11LegendEntrypE14calculate_sizeB9_
FN:700,_RNvXININtNtCs1I4G5KWFz5n_15embedded_charts6legend5typess8_0pEINtB5_18CompactLegendEntrypEINtNtB7_6traits11LegendEntrypE14set_entry_typeB9_
FN:686,_RNvXININtNtCs1I4G5KWFz5n_15embedded_charts6legend5typess8_0pEINtB5_18CompactLegendEntrypEINtNtB7_6traits11LegendEntrypE5labelB9_
FN:690,_RNvXININtNtCs1I4G5KWFz5n_15embedded_charts6legend5typess8_0pEINtB5_18CompactLegendEntrypEINtNtB7_6traits11LegendEntrypE9set_labelB9_
FN:205,_RNvXININtNtCs1I4G5KWFz5n_15embedded_charts6legend5typess_0pEINtB5_13CompactLegendpEINtNtB7_6traits6LegendpE11entries_mutB9_
FN:197,_RNvXININtNtCs1I4G5KWFz5n_15embedded_charts6legend5typess_0pEINtB5_13CompactLegendpEINtNtB7_6traits6LegendpE11orientationB9_
FN:216,_RNvXININtNtCs1I4G5KWFz5n_15embedded_charts6legend5typess_0pEINtB5_13CompactLegendpEINtNtB7_6traits6LegendpE12remove_entryB9_
FN:229,_RNvXININtNtCs1I4G5KWFz5n_15embedded_charts6legend5typess_0pEINtB5_13CompactLegendpEINtNtB7_6traits6LegendpE12set_positionB9_
FN:225,_RNvXININtNtCs1I4G5KWFz5n_15embedded_charts6legend5typess_0pEINtB5_13CompactLegendpEINtNtB7_6traits6LegendpE13clear_entriesB9_
FN:237,_RNvXININtNtCs1I4G5KWFz5n_15embedded_charts6legend5typess_0pEINtB5_13CompactLegendpEINtNtB7_6traits6LegendpE14calculate_sizeB9_
FN:233,_RNvXININtNtCs1I4G5KWFz5n_15embedded_charts6legend5typess_0pEINtB5_13CompactLegendpEINtNtB7_6traits6LegendpE15set_orientationB9_
FN:201,_RNvXININtNtCs1I4G5KWFz5n_15embedded_charts6legend5typess_0pEINtB5_13CompactLegendpEINtNtB7_6traits6LegendpE7entriesB9_
FN:193,_RNvXININtNtCs1I4G5KWFz5n_15embedded_charts6legend5typess_0pEINtB5_13CompactLegendpEINtNtB7_6traits6LegendpE8positionB9_
FN:209,_RNvXININtNtCs1I4G5KWFz5n_15embedded_charts6legend5typess_0pEINtB5_13CompactLegendpEINtNtB7_6traits6LegendpE9add_entryB9_
FN:827,_RNvXININtNtCs1I4G5KWFz5n_15embedded_charts6legend5typessb_0pEINtB5_17CustomLegendEntrypEINtNtB7_6traits11LegendEntrypE10entry_typeB9_
FN:835,_RNvXININtNtCs1I4G5KWFz5n_15embedded_charts6legend5typessb_0pEINtB5_17CustomLegendEntrypEINtNtB7_6traits11LegendEntrypE10is_visibleB9_
FN:839,_RNvXININtNtCs1I4G5KWFz5n_15embedded_charts6legend5typessb_0pEINtB5_17CustomLegendEntrypEINtNtB7_6traits11LegendEntrypE11set_visibleB9_
FN:843,_RNvXININtNtCs1I4G5KWFz5n_15embedded_charts6legend5typessb_0pEINtB5_17CustomLegendEntrypEINtNtB7_6traits11LegendEntrypE14calculate_sizeB9_
FN:831,_RNvXININtNtCs1I4G5KWFz5n_15embedded_charts6legend5typessb_0pEINtB5_17CustomLegendEntrypEINtNtB7_6traits11LegendEntrypE14set_entry_typeB9_
FN:817,_RNvXININtNtCs1I4G5KWFz5n_15embedded_charts6legend5typessb_0pEINtB5_17CustomLegendEntrypEINtNtB7_6traits11LegendEntrypE5labelB9_
FN:821,_RNvXININtNtCs1I4G5KWFz5n_15embedded_charts6legend5typessb_0pEINtB5_17CustomLegendEntrypEINtNtB7_6traits11LegendEntrypE9set_labelB9_
FN:799,_RNvXs9_NtNtCs1I4G5KWFz5n_15embedded_charts6legend5typesNtB5_17LegendOrientationNtNtCs3XRySYX51hI_4core7default7Default7default
FN:805,_RNvXsa_NtNtCs1I4G5KWFz5n_15embedded_charts6legend5typesNtB5_18CustomLayoutParamsNtNtCs3XRySYX51hI_4core7default7Default7default
FN:565,_RNCNvMs6_NtNtCs1I4G5KWFz5n_15embedded_charts6legend5typesINtB7_19StandardLegendEntryNtNtNtCshH4H1wHMe2V_22embedded_graphics_core10pixelcolor9rgb_color6Rgb565E3new0Bb_
FN:485,_RNCNvXs5_NtNtCs1I4G5KWFz5n_15embedded_charts6legend5typesINtB7_14StandardLegendNtNtNtCshH4H1wHMe2V_22embedded_graphics_core10pixelcolor9rgb_color6Rgb565EINtNtB9_6traits6LegendB1f_E9add_entry0Bb_
FN:451,_RNvMs4_NtNtCs1I4G5KWFz5n_15embedded_charts6legend5typesINtB5_14StandardLegendNtNtNtCshH4H1wHMe2V_22embedded_graphics_core10pixelcolor9rgb_color6Rgb565E3newB9_
FN:461,_RNvMs4_NtNtCs1I4G5KWFz5n_15embedded_charts6legend5typesINtB5_14StandardLegendNtNtNtCshH4H1wHMe2V_22embedded_graphics_core10pixelcolor9rgb_color6Rgb565E9set_styleB9_
FN:563,_RNvMs6_NtNtCs1I4G5KWFz5n_15embedded_charts6legend5typesINtB5_19StandardLegendEntryNtNtNtCshH4H1wHMe2V_22embedded_graphics_core10pixelcolor9rgb_color6Rgb565E3newB9_
FN:509,_RNvXs5_NtNtCs1I4G5KWFz5n_15embedded_charts6legend5typesINtB5_14StandardLegendNtNtNtCshH4H1wHMe2V_22embedded_graphics_core10pixelcolor9rgb_color6Rgb565EINtNtB7_6traits6LegendB1d_E11orientationB9_
FN:513,_RNvXs5_NtNtCs1I4G5KWFz5n_15embedded_charts6legend5typesINtB5_14StandardLegendNtNtNtCshH4H1wHMe2V_22embedded_graphics_core10pixelcolor9rgb_color6Rgb565EINtNtB7_6traits6LegendB1d_E15set_orientationB9_
FN:474,_RNvXs5_NtNtCs1I4G5KWFz5n_15embedded_charts6legend5typesINtB5_14StandardLegendNtNtNtCshH4H1wHMe2V_22embedded_graphics_core10pixelcolor9rgb_color6Rgb565EINtNtB7_6traits6LegendB1d_E7entriesB9_
FN:501,_RNvXs5_NtNtCs1I4G5KWFz5n_15embedded_charts6legend5typesINtB5_14StandardLegendNtNtNtCshH4H1wHMe2V_22embedded_graphics_core10pixelcolor9rgb_color6Rgb565EINtNtB7_6traits6LegendB1d_E8positionB9_
FN:482,_RNvXs5_NtNtCs1I4G5KWFz5n_15embedded_charts6legend5typesINtB5_14StandardLegendNtNtNtCshH4H1wHMe2V_22embedded_graphics_core10pixelcolor9rgb_color6Rgb565EINtNtB7_6traits6LegendB1d_E9add_entryB9_
FNDA:0,_RINvXININtNtCs1I4G5KWFz5n_15embedded_charts6legend5typess7_0pEINtB6_19StandardLegendEntrypEINtNtB8_6traits11LegendEntrypE13render_symbolpEBa_
FNDA:0,_RINvXININtNtCs1I4G5KWFz5n_15embedded_charts6legend5typess8_0pEINtB6_18CompactLegendEntrypEINtNtB8_6traits11LegendEntrypE13render_symbolpEBa_
FNDA:0,_RINvXININtNtCs1I4G5KWFz5n_15embedded_charts6legend5typessb_0pEINtB6_17CustomLegendEntrypEINtNtB8_6traits11LegendEntrypE13render_symbolpEBa_
FNDA:0,_RNCINvXININtNtCs1I4G5KWFz5n_15embedded_charts6legend5typess7_0pEINtB8_19StandardLegendEntrypEINtNtBa_6traits11LegendEntrypE13render_symbolpE0Bc_
FNDA:0,_RNCINvXININtNtCs1I4G5KWFz5n_15embedded_charts6legend5typess7_0pEINtB8_19StandardLegendEntrypEINtNtBa_6traits11LegendEntrypE13render_symbolpEs0_0Bc_
FNDA:0,_RNCINvXININtNtCs1I4G5KWFz5n_15embedded_charts6legend5typess7_0pEINtB8_19StandardLegendEntrypEINtNtBa_6traits11LegendEntrypE13render_symbolpEs1_0Bc_
FNDA:0,_RNCINvXININtNtCs1I4G5KWFz5n_15embedded_charts6legend5typess7_0pEINtB8_19StandardLegendEntrypEINtNtBa_6traits11LegendEntrypE13render_symbolpEs2_0Bc_
FNDA:0,_RNCINvXININtNtCs1I4G5KWFz5n_15embedded_charts6legend5typess7_0pEINtB8_19StandardLegendEntrypEINtNtBa_6traits11LegendEntrypE13render_symbolpEs_0Bc_
FNDA:0,_RNCINvXININtNtCs1I4G5KWFz5n_15embedded_charts6legend5typess8_0pEINtB8_18CompactLegendEntrypEINtNtBa_6traits11LegendEntrypE13render_symbolpE0Bc_
FNDA:0,_RNCINvXININtNtCs1I4G5KWFz5n_15embedded_charts6legend5typess8_0pEINtB8_18CompactLegendEntrypEINtNtBa_6traits11LegendEntrypE13render_symbolpEs0_0Bc_
FNDA:0,_RNCINvXININtNtCs1I4G5KWFz5n_15embedded_charts6legend5typess8_0pEINtB8_18CompactLegendEntrypEINtNtBa_6traits11LegendEntrypE13render_symbolpEs1_0Bc_
FNDA:0,_RNCINvXININtNtCs1I4G5KWFz5n_15embedded_charts6legend5typess8_0pEINtB8_18CompactLegendEntrypEINtNtBa_6traits11LegendEntrypE13render_symbolpEs2_0Bc_
FNDA:0,_RNCINvXININtNtCs1I4G5KWFz5n_15embedded_charts6legend5typess8_0pEINtB8_18CompactLegendEntrypEINtNtBa_6traits11LegendEntrypE13render_symbolpEs_0Bc_
FNDA:0,_RNCINvXININtNtCs1I4G5KWFz5n_15embedded_charts6legend5typessb_0pEINtB8_17CustomLegendEntrypEINtNtBa_6traits11LegendEntrypE13render_symbolpE0Bc_
FNDA:0,_RNCINvXININtNtCs1I4G5KWFz5n_15embedded_charts6legend5typessb_0pEINtB8_17CustomLegendEntrypEINtNtBa_6traits11LegendEntrypE13render_symbolpEs0_0Bc_
FNDA:0,_RNCINvXININtNtCs1I4G5KWFz5n_15embedded_charts6legend5typessb_0pEINtB8_17CustomLegendEntrypEINtNtBa_6traits11LegendEntrypE13render_symbolpEs1_0Bc_
FNDA:0,_RNCINvXININtNtCs1I4G5KWFz5n_15embedded_charts6legend5typessb_0pEINtB8_17CustomLegendEntrypEINtNtBa_6traits11LegendEntrypE13render_symbolpEs2_0Bc_
FNDA:0,_RNCINvXININtNtCs1I4G5KWFz5n_15embedded_charts6legend5typessb_0pEINtB8_17CustomLegendEntrypEINtNtBa_6traits11LegendEntrypE13render_symbolpEs_0Bc_
FNDA:0,_RNCNvMNtNtCs1I4G5KWFz5n_15embedded_charts6legend5typesINtB4_13CompactLegendpE9add_entry0B8_
FNDA:0,_RNCNvMs0_NtNtCs1I4G5KWFz5n_15embedded_charts6legend5typesINtB7_18CompactLegendEntrypE3new0Bb_
FNDA:0,_RNCNvMs1_NtNtCs1I4G5KWFz5n_15embedded_charts6legend5typesINtB7_12CustomLegendpE9add_entry0Bb_
FNDA:0,_RNCNvMs3_NtNtCs1I4G5KWFz5n_15embedded_charts6legend5typesINtB7_17CustomLegendEntrypE3new0Bb_
FNDA:0,_RNCNvXININtNtCs1I4G5KWFz5n_15embedded_charts6legend5typess2_0pEINtB7_12CustomLegendpEINtNtB9_6traits6LegendpE9add_entry0Bb_
FNDA:0,_RNCNvXININtNtCs1I4G5KWFz5n_15embedded_charts6legend5typess5_0pEINtB7_14StandardLegendpEINtNtB9_6traits6LegendpE14calculate_size0Bb_
FNDA:0,_RNCNvXININtNtCs1I4G5KWFz5n_15embedded_charts6legend5typess5_0pEINtB7_14StandardLegendpEINtNtB9_6traits6LegendpE14calculate_sizes0_0Bb_
FNDA:0,_RNCNvXININtNtCs1I4G5KWFz5n_15embedded_charts6legend5typess5_0pEINtB7_14StandardLegendpEINtNtB9_6traits6LegendpE14calculate_sizes1_0Bb_
FNDA:0,_RNCNvXININtNtCs1I4G5KWFz5n_15embedded_charts6legend5typess5_0pEINtB7_14StandardLegendpEINtNtB9_6traits6LegendpE14calculate_sizes2_0Bb_
FNDA:0,_RNCNvXININtNtCs1I4G5KWFz5n_15embedded_charts6legend5typess5_0pEINtB7_14StandardLegendpEINtNtB9_6traits6LegendpE14calculate_sizes_0Bb_
FNDA:0,_RNCNvXININtNtCs1I4G5KWFz5n_15embedded_charts6legend5typess7_0pEINtB7_19StandardLegendEntrypEINtNtB9_6traits11LegendEntrypE9set_label0Bb_
FNDA:0,_RNCNvXININtNtCs1I4G5KWFz5n_15embedded_charts6legend5typess8_0pEINtB7_18CompactLegendEntrypEINtNtB9_6traits11LegendEntrypE9set_label0Bb_
FNDA:0,_RNCNvXININtNtCs1I4G5KWFz5n_15embedded_charts6legend5typess_0pEINtB7_13CompactLegendpEINtNtB9_6traits6LegendpE9add_entry0Bb_
FNDA:0,_RNCNvXININtNtCs1I4G5KWFz5n_15embedded_charts6legend5typessb_0pEINtB7_17CustomLegendEntrypEINtNtB9_6traits11LegendEntrypE9set_label0Bb_
FNDA:0,_RNvMNtNtCs1I4G5KWFz5n_15embedded_charts6legend5typesINtB2_13CompactLegendpE15set_orientationB6_
FNDA:0,_RNvMNtNtCs1I4G5KWFz5n_15embedded_charts6legend5typesINtB2_13CompactLegendpE3newB6_
FNDA:0,_RNvMNtNtCs1I4G5KWFz5n_15embedded_charts6legend5typesINtB2_13CompactLegendpE9add_entryB6_
FNDA:0,_RNvMNtNtCs1I4G5KWFz5n_15embedded_charts6legend5typesINtB2_13CompactLegendpE9set_styleB6_
FNDA:0,_RNvMs0_NtNtCs1I4G5KWFz5n_15embedded_charts6legend5typesINtB5_18CompactLegendEntrypE3newB9_
FNDA:0,_RNvMs1_NtNtCs1I4G5KWFz5n_15embedded_charts6legend5typesINtB5_12CustomLegendpE15set_orientationB9_
FNDA:0,_RNvMs1_NtNtCs1I4G5KWFz5n_15embedded_charts6legend5typesINtB5_12CustomLegendpE17set_layout_paramsB9_
FNDA:0,_RNvMs1_NtNtCs1I4G5KWFz5n_15embedded_charts6legend5typesINtB5_12CustomLegendpE3newB9_
FNDA:0,_RNvMs1_NtNtCs1I4G5KWFz5n_15embedded_charts6legend5typesINtB5_12CustomLegendpE9add_entryB9_
FNDA:0,_RNvMs1_NtNtCs1I4G5KWFz5n_15embedded_charts6legend5typesINtB5_12CustomLegendpE9set_styleB9_
FNDA:0,_RNvMs3_NtNtCs1I4G5KWFz5n_15embedded_charts6legend5typesINtB5_17CustomLegendEntrypE3newB9_
FNDA:0,_RNvMs4_NtNtCs1I4G5KWFz5n_15embedded_charts6legend5typesINtB5_14StandardLegendpE5styleB9_
FNDA:0,_RNvXININtNtCs1I4G5KWFz5n_15embedded_charts6legend5typess2_0pEINtB5_12CustomLegendpEINtNtB7_6traits6LegendpE11entries_mutB9_
FNDA:0,_RNvXININtNtCs1I4G5KWFz5n_15embedded_charts6legend5typess2_0pEINtB5_12CustomLegendpEINtNtB7_6traits6LegendpE11orientationB9_
FNDA:0,_RNvXININtNtCs1I4G5KWFz5n_15embedded_charts6legend5typess2_0pEINtB5_12CustomLegendpEINtNtB7_6traits6LegendpE12remove_entryB9_
FNDA:0,_RNvXININtNtCs1I4G5KWFz5n_15embedded_charts6legend5typess2_0pEINtB5_12CustomLegendpEINtNtB7_6traits6LegendpE12set_positionB9_
FNDA:0,_RNvXININtNtCs1I4G5KWFz5n_15embedded_charts6legend5typess2_0pEINtB5_12CustomLegendpEINtNtB7_6traits6LegendpE13clear_entriesB9_
FNDA:0,_RNvXININtNtCs1I4G5KWFz5n_15embedded_charts6legend5typess2_0pEINtB5_12CustomLegendpEINtNtB7_6traits6LegendpE14calculate_sizeB9_
FNDA:0,_RNvXININtNtCs1I4G5KWFz5n_15embedded_charts6legend5typess2_0pEINtB5_12CustomLegendpEINtNtB7_6traits6LegendpE15set_orientationB9_
FNDA:0,_RNvXININtNtCs1I4G5KWFz5n_15embedded_charts6legend5typess2_0pEINtB5_12CustomLegendpEINtNtB7_6traits6LegendpE7entriesB9_
FNDA:0,_RNvXININtNtCs1I4G5KWFz5n_15embedded_charts6legend5typess2_0pEINtB5_12CustomLegendpEINtNtB7_6traits6LegendpE8positionB9_
FNDA:0,_RNvXININtNtCs1I4G5KWFz5n_15embedded_charts6legend5typess2_0pEINtB5_12CustomLegendpEINtNtB7_6traits6LegendpE9add_entryB9_
FNDA:0,_RNvXININtNtCs1I4G5KWFz5n_15embedded_charts6legend5typess5_0pEINtB5_14StandardLegendpEINtNtB7_6traits6LegendpE11entries_mutB9_
FNDA:0,_RNvXININtNtCs1I4G5KWFz5n_15embedded_charts6legend5typess5_0pEINtB5_14StandardLegendpEINtNtB7_6traits6LegendpE12remove_entryB9_
FNDA:0,_RNvXININtNtCs1I4G5KWFz5n_15embedded_charts6legend5typess5_0pEINtB5_14StandardLegendpEINtNtB7_6traits6LegendpE12set_positionB9_
FNDA:0,_RNvXININtNtCs1I4G5KWFz5n_15embedded_charts6legend5typess5_0pEINtB5_14StandardLegendpEINtNtB7_6traits6LegendpE13clear_entriesB9_
FNDA:0,_RNvXININtNtCs1I4G5KWFz5n_15embedded_charts6legend5typess5_0pEINtB5_14StandardLegendpEINtNtB7_6traits6LegendpE14calculate_sizeB9_
FNDA:0,_RNvXININtNtCs1I4G5KWFz5n_15embedded_charts6legend5typess7_0pEINtB5_19StandardLegendEntrypEINtNtB7_6traits11LegendEntrypE10entry_typeB9_
FNDA:0,_RNvXININtNtCs1I4G5KWFz5n_15embedded_charts6legend5typess7_0pEINtB5_19StandardLegendEntrypEINtNtB7_6traits11LegendEntrypE10is_visibleB9_
FNDA:0,_RNvXININtNtCs1I4G5KWFz5n_15embedded_charts6legend5typess7_0pEINtB5_19StandardLegendEntrypEINtNtB7_6traits11LegendEntrypE11set_visibleB9_
FNDA:0,_RNvXININtNtCs1I4G5KWFz5n_15embedded_charts6legend5typess7_0pEINtB5_19StandardLegendEntrypEINtNtB7_6traits11LegendEntrypE14calculate_sizeB9_
FNDA:0,_RNvXININtNtCs1I4G5KWFz5n_15embedded_charts6legend5typess7_0pEINtB5_19StandardLegendEntrypEINtNtB7_6traits11LegendEntrypE14set_entry_typeB9_
FNDA:0,_RNvXININtNtCs1I4G5KWFz5n_15embedded_charts6legend5typess7_0pEINtB5_19StandardLegendEntrypEINtNtB7_6traits11LegendEntrypE5labelB9_
FNDA:0,_RNvXININtNtCs1I4G5KWFz5n_15embedded_charts6legend5typess7_0pEINtB5_19StandardLegendEntrypEINtNtB7_6traits11LegendEntrypE9set_labelB9_
FNDA:0,_RNvXININtNtCs1I4G5KWFz5n_15embedded_charts6legend5typess8_0pEINtB5_18CompactLegendEntrypEINtNtB7_6traits11LegendEntrypE10entry_typeB9_
FNDA:0,_RNvXININtNtCs1I4G5KWFz5n_15embedded_charts6legend5typess8_0pEINtB5_18CompactLegendEntrypEINtNtB7_6traits11LegendEntrypE10is_visibleB9_
FNDA:0,_RNvXININtNtCs1I4G5KWFz5n_15embedded_charts6legend5typess8_0pEINtB5_18CompactLegendEntrypEINtNtB7_6traits11LegendEntrypE11set_visibleB9_
FNDA:0,_RNvXININtNtCs1I4G5KWFz5n_15embedded_charts6legend5typess8_0pEINtB5_18CompactLegendEntrypEINtNtB7_6traits11LegendEntrypE14calculate_sizeB9_
FNDA:0,_RNvXININtNtCs1I4G5KWFz5n_15embedded_charts6legend5typess8_0pEINtB5_18CompactLegendEntrypEINtNtB7_6traits11LegendEntrypE14set_entry_typeB9_
FNDA:0,_RNvXININtNtCs1I4G5KWFz5n_15embedded_charts6legend5typess8_0pEINtB5_18CompactLegendEntrypEINtNtB7_6traits11LegendEntrypE5labelB9_
FNDA:0,_RNvXININtNtCs1I4G5KWFz5n_15embedded_charts6legend5typess8_0pEINtB5_18CompactLegendEntrypEINtNtB7_6traits11LegendEntrypE9set_labelB9_
FNDA:0,_RNvXININtNtCs1I4G5KWFz5n_15embedded_charts6legend5typess_0pEINtB5_13CompactLegendpEINtNtB7_6traits6LegendpE11entries_mutB9_
FNDA:0,_RNvXININtNtCs1I4G5KWFz5n_15embedded_charts6legend5typess_0pEINtB5_13CompactLegendpEINtNtB7_6traits6LegendpE11orientationB9_
FNDA:0,_RNvXININtNtCs1I4G5KWFz5n_15embedded_charts6legend5typess_0pEINtB5_13CompactLegendpEINtNtB7_6traits6LegendpE12remove_entryB9_
FNDA:0,_RNvXININtNtCs1I4G5KWFz5n_15embedded_charts6legend5typess_0pEINtB5_13CompactLegendpEINtNtB7_6traits6LegendpE12set_positionB9_
FNDA:0,_RNvXININtNtCs1I4G5KWFz5n_15embedded_charts6legend5typess_0pEINtB5_13CompactLegendpEINtNtB7_6traits6LegendpE13clear_entriesB9_
FNDA:0,_RNvXININtNtCs1I4G5KWFz5n_15embedded_charts6legend5typess_0pEINtB5_13CompactLegendpEINtNtB7_6traits6LegendpE14calculate_sizeB9_
FNDA:0,_RNvXININtNtCs1I4G5KWFz5n_15embedded_charts6legend5typess_0pEINtB5_13CompactLegendpEINtNtB7_6traits6LegendpE15set_orientationB9_
FNDA:0,_RNvXININtNtCs1I4G5KWFz5n_15embedded_charts6legend5typess_0pEINtB5_13CompactLegendpEINtNtB7_6traits6LegendpE7entriesB9_
FNDA:0,_RNvXININtNtCs1I4G5KWFz5n_15embedded_charts6legend5typess_0pEINtB5_13CompactLegendpEINtNtB7_6traits6LegendpE8positionB9_
FNDA:0,_RNvXININtNtCs1I4G5KWFz5n_15embedded_charts6legend5typess_0pEINtB5_13CompactLegendpEINtNtB7_6traits6LegendpE9add_entryB9_
FNDA:0,_RNvXININtNtCs1I4G5KWFz5n_15embedded_charts6legend5typessb_0pEINtB5_17CustomLegendEntrypEINtNtB7_6traits11LegendEntrypE10entry_typeB9_
FNDA:0,_RNvXININtNtCs1I4G5KWFz5n_15embedded_charts6legend5typessb_0pEINtB5_17CustomLegendEntrypEINtNtB7_6traits11LegendEntrypE10is_visibleB9_
FNDA:0,_RNvXININtNtCs1I4G5KWFz5n_15embedded_charts6legend5typessb_0pEINtB5_17CustomLegendEntrypEINtNtB7_6traits11LegendEntrypE11set_visibleB9_
FNDA:0,_RNvXININtNtCs1I4G5KWFz5n_15embedded_charts6legend5typessb_0pEINtB5_17CustomLegendEntrypEINtNtB7_6traits11LegendEntrypE14calculate_sizeB9_
FNDA:0,_RNvXININtNtCs1I4G5KWFz5n_15embedded_charts6legend5typessb_0pEINtB5_17CustomLegendEntrypEINtNtB7_6traits11LegendEntrypE14set_entry_typeB9_
FNDA:0,_RNvXININtNtCs1I4G5KWFz5n_15embedded_charts6legend5typessb_0pEINtB5_17CustomLegendEntrypEINtNtB7_6traits11LegendEntrypE5labelB9_
FNDA:0,_RNvXININtNtCs1I4G5KWFz5n_15embedded_charts6legend5typessb_0pEINtB5_17CustomLegendEntrypEINtNtB7_6traits11LegendEntrypE9set_labelB9_
FNDA:0,_RNvXs9_NtNtCs1I4G5KWFz5n_15embedded_charts6legend5typesNtB5_17LegendOrientationNtNtCs3XRySYX51hI_4core7default7Default7default
FNDA:0,_RNvXsa_NtNtCs1I4G5KWFz5n_15embedded_charts6legend5typesNtB5_18CustomLayoutParamsNtNtCs3XRySYX51hI_4core7default7Default7default
FNDA:0,_RNCNvMs6_NtNtCs1I4G5KWFz5n_15embedded_charts6legend5typesINtB7_19StandardLegendEntryNtNtNtCshH4H1wHMe2V_22embedded_graphics_core10pixelcolor9rgb_color6Rgb565E3new0Bb_
FNDA:0,_RNCNvXs5_NtNtCs1I4G5KWFz5n_15embedded_charts6legend5typesINtB7_14StandardLegendNtNtNtCshH4H1wHMe2V_22embedded_graphics_core10pixelcolor9rgb_color6Rgb565EINtNtB9_6traits6LegendB1f_E9add_entry0Bb_
FNDA:2,_RNvMs4_NtNtCs1I4G5KWFz5n_15embedded_charts6legend5typesINtB5_14StandardLegendNtNtNtCshH4H1wHMe2V_22embedded_graphics_core10pixelcolor9rgb_color6Rgb565E3newB9_
FNDA:2,_RNvMs4_NtNtCs1I4G5KWFz5n_15embedded_charts6legend5typesINtB5_14StandardLegendNtNtNtCshH4H1wHMe2V_22embedded_graphics_core10pixelcolor9rgb_color6Rgb565E9set_styleB9_
FNDA:3,_RNvMs6_NtNtCs1I4G5KWFz5n_15embedded_charts6legend5typesINtB5_19StandardLegendEntryNtNtNtCshH4H1wHMe2V_22embedded_graphics_core10pixelcolor9rgb_color6Rgb565E3newB9_
FNDA:2,_RNvXs5_NtNtCs1I4G5KWFz5n_15embedded_charts6legend5typesINtB5_14StandardLegendNtNtNtCshH4H1wHMe2V_22embedded_graphics_core10pixelcolor9rgb_color6Rgb565EINtNtB7_6traits6LegendB1d_E11orientationB9_
FNDA:2,_RNvXs5_NtNtCs1I4G5KWFz5n_15embedded_charts6legend5typesINtB5_14StandardLegendNtNtNtCshH4H1wHMe2V_22embedded_graphics_core10pixelcolor9rgb_color6Rgb565EINtNtB7_6traits6LegendB1d_E15set_orientationB9_
FNDA:1,_RNvXs5_NtNtCs1I4G5KWFz5n_15embedded_charts6legend5typesINtB5_14StandardLegendNtNtNtCshH4H1wHMe2V_22embedded_graphics_core10pixelcolor9rgb_color6Rgb565EINtNtB7_6traits6LegendB1d_E7entriesB9_
FNDA:2,_RNvXs5_NtNtCs1I4G5KWFz5n_15embedded_charts6legend5typesINtB5_14StandardLegendNtNtNtCshH4H1wHMe2V_22embedded_graphics_core10pixelcolor9rgb_color6Rgb565EINtNtB7_6traits6LegendB1d_E8positionB9_
FNDA:3,_RNvXs5_NtNtCs1I4G5KWFz5n_15embedded_charts6legend5typesINtB5_14StandardLegendNtNtNtCshH4H1wHMe2V_22embedded_graphics_core10pixelcolor9rgb_color6Rgb565EINtNtB7_6traits6LegendB1d_E9add_entryB9_
FNF:102
FNH:8
DA:159,0
DA:160,0
DA:161,0
DA:162,0
DA:163,0
DA:164,0
DA:165,0
DA:166,0
DA:169,0
DA:170,0
DA:171,0
DA:174,0
DA:175,0
DA:176,0
DA:179,0
DA:180,0
DA:181,0
DA:182,0
DA:183,0
DA:184,0
DA:193,0
DA:194,0
DA:195,0
DA:197,0
DA:198,0
DA:199,0
DA:201,0
DA:202,0
DA:203,0
DA:205,0
DA:206,0
DA:207,0
DA:209,0
DA:210,0
DA:211,0
DA:212,0
DA:213,0
DA:214,0
DA:216,0
DA:217,0
DA:218,0
DA:219,0
DA:221,0
DA:223,0
DA:225,0
DA:226,0
DA:227,0
DA:229,0
DA:230,0
DA:231,0
DA:233,0
DA:234,0
DA:235,0
DA:237,0
DA:238,0
DA:239,0
DA:240,0
DA:242,0
DA:245,0
DA:248,0
DA:264,0
DA:265,0
DA:266,0
DA:267,0
DA:268,0
DA:269,0
DA:270,0
DA:271,0
DA:272,0
DA:273,0
DA:274,0
DA:297,0
DA:298,0
DA:299,0
DA:300,0
DA:301,0
DA:302,0
DA:303,0
DA:304,0
DA:305,0
DA:308,0
DA:309,0
DA:310,0
DA:313,0
DA:314,0
DA:315,0
DA:318,0
DA:319,0
DA:320,0
DA:323,0
DA:324,0
DA:325,0
DA:326,0
DA:327,0
DA:328,0
DA:337,0
DA:338,0
DA:339,0
DA:341,0
DA:342,0
DA:343,0
DA:345,0
DA:346,0
DA:347,0
DA:349,0
DA:350,0
DA:351,0
DA:353,0
DA:354,0
DA:355,0
DA:356,0
DA:357,0
DA:358,0
DA:360,0
DA:361,0
DA:362,0
DA:363,0
DA:365,0
DA:367,0
DA:369,0
DA:370,0
DA:371,0
DA:373,0
DA:374,0
DA:375,0
DA:377,0
DA:378,0
DA:379,0
DA:381,0
DA:382,0
DA:383,0
DA:384,0
DA:385,0
DA:386,0
DA:387,0
DA:389,0
DA:390,0
DA:391,0
DA:394,0
DA:395,0
DA:396,0
DA:399,0
DA:420,0
DA:421,0
DA:422,0
DA:423,0
DA:424,0
DA:425,0
DA:426,0
DA:427,0
DA:428,0
DA:429,0
DA:430,0
DA:431,0
DA:432,0
DA:451,2
DA:452,2
DA:453,2
DA:454,2
DA:455,2
DA:456,2
DA:457,2
DA:458,2
DA:461,2
DA:462,2
DA:463,2
DA:466,0
DA:467,0
DA:468,0
DA:474,1
DA:475,1
DA:476,1
DA:478,0
DA:479,0
DA:480,0
DA:482,3
DA:483,3
DA:484,3
DA:485,3
DA:486,3
DA:488,0
DA:489,0
DA:490,0
DA:491,0
DA:493,0
DA:495,0
DA:497,0
DA:498,0
DA:499,0
DA:501,2
DA:502,2
DA:503,2
DA:505,0
DA:506,0
DA:507,0
DA:509,2
DA:510,2
DA:511,2
DA:513,2
DA:514,2
DA:515,2
DA:517,0
DA:518,0
DA:519,0
DA:520,0
DA:521,0
DA:522,0
DA:523,0
DA:524,0
DA:525,0
DA:526,0
DA:527,0
DA:529,0
DA:530,0
DA:531,0
DA:532,0
DA:533,0
DA:534,0
DA:535,0
DA:536,0
DA:537,0
DA:538,0
DA:539,0
DA:540,0
DA:543,0
DA:544,0
DA:545,0
DA:546,0
DA:547,0
DA:548,0
DA:549,0
DA:550,0
DA:551,0
DA:552,0
DA:553,0
DA:554,0
DA:557,0
DA:563,3
DA:564,3
DA:565,3
DA:567,3
DA:568,3
DA:569,3
DA:570,3
DA:571,3
DA:572,3
DA:576,0
DA:577,0
DA:578,0
DA:580,0
DA:581,0
DA:582,0
DA:583,0
DA:584,0
DA:586,0
DA:587,0
DA:588,0
DA:590,0
DA:591,0
DA:592,0
DA:594,0
DA:595,0
DA:596,0
DA:598,0
DA:599,0
DA:600,0
DA:602,0
DA:603,0
DA:604,0
DA:605,0
DA:606,0
DA:608,0
DA:609,0
DA:610,0
DA:611,0
DA:612,0
DA:613,0
DA:614,0
DA:615,0
DA:616,0
DA:619,0
DA:620,0
DA:621,0
DA:622,0
DA:623,0
DA:624,0
DA:627,0
DA:628,0
DA:629,0
DA:630,0
DA:632,0
DA:634,0
DA:635,0
DA:636,0
DA:637,0
DA:638,0
DA:639,0
DA:640,0
DA:641,0
DA:642,0
DA:643,0
DA:645,0
DA:646,0
DA:647,0
DA:648,0
DA:649,0
DA:650,0
DA:651,0
DA:652,0
DA:654,0
DA:655,0
DA:656,0
DA:657,0
DA:660,0
DA:661,0
DA:662,0
DA:663,0
DA:664,0
DA:665,0
DA:666,0
DA:667,0
DA:668,0
DA:672,0
DA:673,0
DA:674,0
DA:675,0
DA:681,0
DA:682,0
DA:686,0
DA:687,0
DA:688,0
DA:690,0
DA:691,0
DA:692,0
DA:693,0
DA:694,0
DA:696,0
DA:697,0
DA:698,0
DA:700,0
DA:701,0
DA:702,0
DA:704,0
DA:705,0
DA:706,0
DA:708,0
DA:709,0
DA:710,0
DA:712,0
DA:713,0
DA:714,0
DA:715,0
DA:716,0
DA:718,0
DA:719,0
DA:720,0
DA:721,0
DA:722,0
DA:723,0
DA:724,0
DA:725,0
DA:726,0
DA:729,0
DA:730,0
DA:731,0
DA:732,0
DA:733,0
DA:734,0
DA:737,0
DA:738,0
DA:739,0
DA:740,0
DA:742,0
DA:744,0
DA:745,0
DA:746,0
DA:747,0
DA:748,0
DA:749,0
DA:750,0
DA:751,0
DA:752,0
DA:753,0
DA:755,0
DA:756,0
DA:757,0
DA:758,0
DA:759,0
DA:760,0
DA:761,0
DA:762,0
DA:764,0
DA:765,0
DA:766,0
DA:767,0
DA:770,0
DA:771,0
DA:772,0
DA:773,0
DA:774,0
DA:775,0
DA:776,0
DA:777,0
DA:778,0
DA:782,0
DA:783,0
DA:784,0
DA:785,0
DA:791,0
DA:792,0
DA:799,0
DA:800,0
DA:801,0
DA:805,0
DA:806,0
DA:807,0
DA:808,0
DA:809,0
DA:810,0
DA:811,0
DA:812,0
DA:817,0
DA:818,0
DA:819,0
DA:821,0
DA:822,0
DA:823,0
DA:824,0
DA:825,0
DA:827,0
DA:828,0
DA:829,0
DA:831,0
DA:832,0
DA:833,0
DA:835,0
DA:836,0
DA:837,0
DA:839,0
DA:840,0
DA:841,0
DA:843,0
DA:844,0
DA:845,0
DA:848,0
DA:849,0
DA:851,0
DA:853,0
DA:855,0
DA:856,0
DA:857,0
DA:858,0
DA:859,0
DA:860,0
DA:861,0
DA:862,0
DA:863,0
DA:868,0
DA:869,0
DA:870,0
DA:871,0
DA:872,0
DA:873,0
DA:874,0
DA:875,0
DA:876,0
DA:877,0
DA:879,0
DA:880,0
DA:881,0
DA:882,0
DA:883,0
DA:884,0
DA:885,0
DA:886,0
DA:887,0
DA:888,0
DA:889,0
DA:891,0
DA:892,0
DA:893,0
DA:894,0
DA:895,0
DA:896,0
DA:897,0
DA:898,0
DA:900,0
DA:901,0
DA:902,0
DA:903,0
DA:906,0
DA:907,0
DA:908,0
DA:909,0
DA:910,0
DA:911,0
DA:912,0
DA:916,0
DA:917,0
DA:918,0
DA:919,0
DA:925,0
DA:926,0
BRF:0
BRH:0
LF:534
LH:37
end_of_record
SF:/home/tasuku/com/github/signal-slot/embedded-charts/src/lib.rs
FN:431,_RNvNtCs1I4G5KWFz5n_15embedded_charts6config12math_backend
FN:426,_RNvNtCs1I4G5KWFz5n_15embedded_charts6config14has_animations
FN:416,_RNvNtCs1I4G5KWFz5n_15embedded_charts6config15has_fixed_point
FN:476,_RNvNtCs1I4G5KWFz5n_15embedded_charts6config15system_category
FN:421,_RNvNtCs1I4G5KWFz5n_15embedded_charts6config16has_integer_math
FN:411,_RNvNtCs1I4G5KWFz5n_15embedded_charts6config18has_floating_point
FN:406,_RNvNtCs1I4G5KWFz5n_15embedded_charts6config7has_std
FNDA:0,_RNvNtCs1I4G5KWFz5n_15embedded_charts6config12math_backend
FNDA:0,_RNvNtCs1I4G5KWFz5n_15embedded_charts6config14has_animations
FNDA:0,_RNvNtCs1I4G5KWFz5n_15embedded_charts6config15has_fixed_point
FNDA:0,_RNvNtCs1I4G5KWFz5n_15embedded_charts6config15system_category
FNDA:0,_RNvNtCs1I4G5KWFz5n_15embedded_charts6config16has_integer_math
FNDA:0,_RNvNtCs1I4G5KWFz5n_15embedded_charts6config18has_floating_point
FNDA:0,_RNvNtCs1I4G5KWFz5n_15embedded_charts6config7has_std
FNF:7
FNH:0
DA:406,0
DA:407,0
DA:408,0
DA:411,0
DA:412,0
DA:413,0
DA:416,0
DA:417,0
DA:418,0
DA:421,0
DA:422,0
DA:423,0
DA:426,0
DA:427,0
DA:428,0
DA:431,0
DA:432,0
DA:433,0
DA:434,0
DA:435,0
DA:436,0
DA:437,0
DA:438,0
DA:439,0
DA:440,0
DA:441,0
DA:442,0
DA:443,0
DA:444,0
DA:445,0
DA:446,0
DA:447,0
DA:448,0
DA:449,0
DA:450,0
DA:451,0
DA:452,0
DA:453,0
DA:454,0
DA:455,0
DA:456,0
DA:457,0
DA:458,0
DA:459,0
DA:460,0
DA:461,0
DA:462,0
DA:463,0
DA:464,0
DA:465,0
DA:466,0
DA:467,0
DA:468,0
DA:469,0
DA:470,0
DA:471,0
DA:472,0
DA:473,0
DA:476,0
DA:477,0
DA:478,0
DA:479,0
DA:480,0
DA:481,0
DA:482,0
DA:483,0
DA:484,0
DA:485,0
DA:486,0
DA:487,0
DA:488,0
DA:489,0
DA:490,0
DA:491,0
DA:492,0
DA:493,0
DA:494,0
DA:495,0
DA:496,0
DA:497,0
DA:498,0
DA:499,0
DA:500,0
BRF:0
BRH:0
LF:83
LH:0
end_of_record
SF:/home/tasuku/com/github/signal-slot/embedded-charts/src/math/backends.rs
FN:89,_RNvXNtNtCs1I4G5KWFz5n_15embedded_charts4math8backendsNtB2_20FloatingPointBackendINtNtB4_6traits11MathBackendfE10to_degreesB6_
FN:84,_RNvXNtNtCs1I4G5KWFz5n_15embedded_charts4math8backendsNtB2_20FloatingPointBackendINtNtB4_6traits11MathBackendfE10to_radiansB6_
FN:59,_RNvXNtNtCs1I4G5KWFz5n_15embedded_charts4math8backendsNtB2_20FloatingPointBackendINtNtB4_6traits11MathBackendfE2lnB6_
FN:17,_RNvXNtNtCs1I4G5KWFz5n_15embedded_charts4math8backendsNtB2_20FloatingPointBackendINtNtB4_6traits11MathBackendfE3absB6_
FN:35,_RNvXNtNtCs1I4G5KWFz5n_15embedded_charts4math8backendsNtB2_20FloatingPointBackendINtNtB4_6traits11MathBackendfE3maxB6_
FN:26,_RNvXNtNtCs1I4G5KWFz5n_15embedded_charts4math8backendsNtB2_20FloatingPointBackendINtNtB4_6traits11MathBackendfE3minB6_
FN:79,_RNvXNtNtCs1I4G5KWFz5n_15embedded_charts4math8backendsNtB2_20FloatingPointBackendINtNtB4_6traits11MathBackendfE3tanB6_
FN:49,_RNvXNtNtCs1I4G5KWFz5n_15embedded_charts4math8backendsNtB2_20FloatingPointBackendINtNtB4_6traits11MathBackendfE4ceilB6_
FN:94,_RNvXNtNtCs1I4G5KWFz5n_15embedded_charts4math8backendsNtB2_20FloatingPointBackendINtNtB4_6traits11MathBackendfE5atan2B6_
FN:593,_RNvXs_NtNtCs1I4G5KWFz5n_15embedded_charts4math8backendsNtB4_14IntegerBackendINtNtB6_6traits11MathBackendlE10to_degreesB8_
FN:587,_RNvXs_NtNtCs1I4G5KWFz5n_15embedded_charts4math8backendsNtB4_14IntegerBackendINtNtB6_6traits11MathBackendlE10to_radiansB8_
FN:505,_RNvXs_NtNtCs1I4G5KWFz5n_15embedded_charts4math8backendsNtB4_14IntegerBackendINtNtB6_6traits11MathBackendlE2lnB8_
FN:449,_RNvXs_NtNtCs1I4G5KWFz5n_15embedded_charts4math8backendsNtB4_14IntegerBackendINtNtB6_6traits11MathBackendlE3absB8_
FN:563,_RNvXs_NtNtCs1I4G5KWFz5n_15embedded_charts4math8backendsNtB4_14IntegerBackendINtNtB6_6traits11MathBackendlE3cosB8_
FN:463,_RNvXs_NtNtCs1I4G5KWFz5n_15embedded_charts4math8backendsNtB4_14IntegerBackendINtNtB6_6traits11MathBackendlE3maxB8_
FN:454,_RNvXs_NtNtCs1I4G5KWFz5n_15embedded_charts4math8backendsNtB4_14IntegerBackendINtNtB6_6traits11MathBackendlE3minB8_
FN:482,_RNvXs_NtNtCs1I4G5KWFz5n_15embedded_charts4math8backendsNtB4_14IntegerBackendINtNtB6_6traits11MathBackendlE3powB8_
FN:534,_RNvXs_NtNtCs1I4G5KWFz5n_15embedded_charts4math8backendsNtB4_14IntegerBackendINtNtB6_6traits11MathBackendlE3sinB8_
FN:570,_RNvXs_NtNtCs1I4G5KWFz5n_15embedded_charts4math8backendsNtB4_14IntegerBackendINtNtB6_6traits11MathBackendlE3tanB8_
FN:477,_RNvXs_NtNtCs1I4G5KWFz5n_15embedded_charts4math8backendsNtB4_14IntegerBackendINtNtB6_6traits11MathBackendlE4ceilB8_
FN:421,_RNvXs_NtNtCs1I4G5KWFz5n_15embedded_charts4math8backendsNtB4_14IntegerBackendINtNtB6_6traits11MathBackendlE4sqrtB8_
FN:599,_RNvXs_NtNtCs1I4G5KWFz5n_15embedded_charts4math8backendsNtB4_14IntegerBackendINtNtB6_6traits11MathBackendlE5atan2B8_
FN:472,_RNvXs_NtNtCs1I4G5KWFz5n_15embedded_charts4math8backendsNtB4_14IntegerBackendINtNtB6_6traits11MathBackendlE5floorB8_
FN:527,_RNvXs_NtNtCs1I4G5KWFz5n_15embedded_charts4math8backendsNtB4_14IntegerBackendINtNtB6_6traits11MathBackendlE5log10B8_
FN:74,_RNvXNtNtCs1I4G5KWFz5n_15embedded_charts4math8backendsNtB2_20FloatingPointBackendINtNtB4_6traits11MathBackendfE3cosB6_
FN:54,_RNvXNtNtCs1I4G5KWFz5n_15embedded_charts4math8backendsNtB2_20FloatingPointBackendINtNtB4_6traits11MathBackendfE3powB6_
FN:69,_RNvXNtNtCs1I4G5KWFz5n_15embedded_charts4math8backendsNtB2_20FloatingPointBackendINtNtB4_6traits11MathBackendfE3sinB6_
FN:12,_RNvXNtNtCs1I4G5KWFz5n_15embedded_charts4math8backendsNtB2_20FloatingPointBackendINtNtB4_6traits11MathBackendfE4sqrtB6_
FN:44,_RNvXNtNtCs1I4G5KWFz5n_15embedded_charts4math8backendsNtB2_20FloatingPointBackendINtNtB4_6traits11MathBackendfE5floorB6_
FN:64,_RNvXNtNtCs1I4G5KWFz5n_15embedded_charts4math8backendsNtB2_20FloatingPointBackendINtNtB4_6traits11MathBackendfE5log10B6_
FNDA:0,_RNvXNtNtCs1I4G5KWFz5n_15embedded_charts4math8backendsNtB2_20FloatingPointBackendINtNtB4_6traits11MathBackendfE10to_degreesB6_
FNDA:0,_RNvXNtNtCs1I4G5KWFz5n_15embedded_charts4math8backendsNtB2_20FloatingPointBackendINtNtB4_6traits11MathBackendfE10to_radiansB6_
FNDA:0,_RNvXNtNtCs1I4G5KWFz5n_15embedded_charts4math8backendsNtB2_20FloatingPointBackendINtNtB4_6traits11MathBackendfE2lnB6_
FNDA:0,_RNvXNtNtCs1I4G5KWFz5n_15embedded_charts4math8backendsNtB2_20FloatingPointBackendINtNtB4_6traits11MathBackendfE3absB6_
FNDA:0,_RNvXNtNtCs1I4G5KWFz5n_15embedded_charts4math8backendsNtB2_20FloatingPointBackendINtNtB4_6traits11MathBackendfE3maxB6_
FNDA:0,_RNvXNtNtCs1I4G5KWFz5n_15embedded_charts4math8backendsNtB2_20FloatingPointBackendINtNtB4_6traits11MathBackendfE3minB6_
FNDA:0,_RNvXNtNtCs1I4G5KWFz5n_15embedded_charts4math8backendsNtB2_20FloatingPointBackendINtNtB4_6traits11MathBackendfE3tanB6_
FNDA:0,_RNvXNtNtCs1I4G5KWFz5n_15embedded_charts4math8backendsNtB2_20FloatingPointBackendINtNtB4_6traits11MathBackendfE4ceilB6_
FNDA:0,_RNvXNtNtCs1I4G5KWFz5n_15embedded_charts4math8backendsNtB2_20FloatingPointBackendINtNtB4_6traits11MathBackendfE5atan2B6_
FNDA:0,_RNvXs_NtNtCs1I4G5KWFz5n_15embedded_charts4math8backendsNtB4_14IntegerBackendINtNtB6_6traits11MathBackendlE10to_degreesB8_
FNDA:0,_RNvXs_NtNtCs1I4G5KWFz5n_15embedded_charts4math8backendsNtB4_14IntegerBackendINtNtB6_6traits11MathBackendlE10to_radiansB8_
FNDA:0,_RNvXs_NtNtCs1I4G5KWFz5n_15embedded_charts4math8backendsNtB4_14IntegerBackendINtNtB6_6traits11MathBackendlE2lnB8_
FNDA:0,_RNvXs_NtNtCs1I4G5KWFz5n_15embedded_charts4math8backendsNtB4_14IntegerBackendINtNtB6_6traits11MathBackendlE3absB8_
FNDA:0,_RNvXs_NtNtCs1I4G5KWFz5n_15embedded_charts4math8backendsNtB4_14IntegerBackendINtNtB6_6traits11MathBackendlE3cosB8_
FNDA:0,_RNvXs_NtNtCs1I4G5KWFz5n_15embedded_charts4math8backendsNtB4_14IntegerBackendINtNtB6_6traits11MathBackendlE3maxB8_
FNDA:0,_RNvXs_NtNtCs1I4G5KWFz5n_15embedded_charts4math8backendsNtB4_14IntegerBackendINtNtB6_6traits11MathBackendlE3minB8_
FNDA:0,_RNvXs_NtNtCs1I4G5KWFz5n_15embedded_charts4math8backendsNtB4_14IntegerBackendINtNtB6_6traits11MathBackendlE3powB8_
FNDA:0,_RNvXs_NtNtCs1I4G5KWFz5n_15embedded_charts4math8backendsNtB4_14IntegerBackendINtNtB6_6traits11MathBackendlE3sinB8_
FNDA:0,_RNvXs_NtNtCs1I4G5KWFz5n_15embedded_charts4math8backendsNtB4_14IntegerBackendINtNtB6_6traits11MathBackendlE3tanB8_
FNDA:0,_RNvXs_NtNtCs1I4G5KWFz5n_15embedded_charts4math8backendsNtB4_14IntegerBackendINtNtB6_6traits11MathBackendlE4ceilB8_
FNDA:0,_RNvXs_NtNtCs1I4G5KWFz5n_15embedded_charts4math8backendsNtB4_14IntegerBackendINtNtB6_6traits11MathBackendlE4sqrtB8_
FNDA:0,_RNvXs_NtNtCs1I4G5KWFz5n_15embedded_charts4math8backendsNtB4_14IntegerBackendINtNtB6_6traits11MathBackendlE5atan2B8_
FNDA:0,_RNvXs_NtNtCs1I4G5KWFz5n_15embedded_charts4math8backendsNtB4_14IntegerBackendINtNtB6_6traits11MathBackendlE5floorB8_
FNDA:0,_RNvXs_NtNtCs1I4G5KWFz5n_15embedded_charts4math8backendsNtB4_14IntegerBackendINtNtB6_6traits11MathBackendlE5log10B8_
FNDA:1,_RNvXNtNtCs1I4G5KWFz5n_15embedded_charts4math8backendsNtB2_20FloatingPointBackendINtNtB4_6traits11MathBackendfE3cosB6_
FNDA:4,_RNvXNtNtCs1I4G5KWFz5n_15embedded_charts4math8backendsNtB2_20FloatingPointBackendINtNtB4_6traits11MathBackendfE3powB6_
FNDA:1,_RNvXNtNtCs1I4G5KWFz5n_15embedded_charts4math8backendsNtB2_20FloatingPointBackendINtNtB4_6traits11MathBackendfE3sinB6_
FNDA:0,_RNvXNtNtCs1I4G5KWFz5n_15embedded_charts4math8backendsNtB2_20FloatingPointBackendINtNtB4_6traits11MathBackendfE4sqrtB6_
FNDA:9,_RNvXNtNtCs1I4G5KWFz5n_15embedded_charts4math8backendsNtB2_20FloatingPointBackendINtNtB4_6traits11MathBackendfE5floorB6_
FNDA:2,_RNvXNtNtCs1I4G5KWFz5n_15embedded_charts4math8backendsNtB2_20FloatingPointBackendINtNtB4_6traits11MathBackendfE5log10B6_
FNF:30
FNH:5
DA:12,0
DA:13,0
DA:14,0
DA:17,0
DA:18,0
DA:19,0
DA:21,0
DA:23,0
DA:26,0
DA:27,0
DA:28,0
DA:30,0
DA:32,0
DA:35,0
DA:36,0
DA:37,0
DA:39,0
DA:41,0
DA:44,9
DA:45,9
DA:46,9
DA:49,0
DA:50,0
DA:51,0
DA:54,4
DA:55,4
DA:56,4
DA:59,0
DA:60,0
DA:61,0
DA:64,2
DA:65,2
DA:66,2
DA:69,1
DA:70,1
DA:71,1
DA:74,1
DA:75,1
DA:76,1
DA:79,0
DA:80,0
DA:81,0
DA:84,0
DA:85,0
DA:86,0
DA:89,0
DA:90,0
DA:91,0
DA:94,0
DA:95,0
DA:96,0
DA:421,0
DA:422,0
DA:423,0
DA:424,0
DA:425,0
DA:426,0
DA:427,0
DA:428,0
DA:429,0
DA:431,0
DA:432,0
DA:433,0
DA:434,0
DA:435,0
DA:436,0
DA:437,0
DA:438,0
DA:439,0
DA:440,0
DA:441,0
DA:442,0
DA:445,0
DA:446,0
DA:449,0
DA:450,0
DA:451,0
DA:454,0
DA:455,0
DA:456,0
DA:458,0
DA:460,0
DA:463,0
DA:464,0
DA:465,0
DA:467,0
DA:469,0
DA:472,0
DA:473,0
DA:474,0
DA:477,0
DA:478,0
DA:479,0
DA:482,0
DA:483,0
DA:484,0
DA:485,0
DA:486,0
DA:487,0
DA:488,0
DA:489,0
DA:490,0
DA:491,0
DA:492,0
DA:494,0
DA:495,0
DA:496,0
DA:497,0
DA:498,0
DA:499,0
DA:501,0
DA:502,0
DA:505,0
DA:506,0
DA:507,0
DA:508,0
DA:509,0
DA:510,0
DA:511,0
DA:512,0
DA:513,0
DA:514,0
DA:515,0
DA:516,0
DA:517,0
DA:520,0
DA:521,0
DA:524,0
DA:527,0
DA:528,0
DA:529,0
DA:530,0
DA:531,0
DA:534,0
DA:535,0
DA:536,0
DA:537,0
DA:538,0
DA:539,0
DA:540,0
DA:541,0
DA:542,0
DA:543,0
DA:544,0
DA:547,0
DA:549,0
DA:550,0
DA:552,0
DA:553,0
DA:555,0
DA:558,0
DA:560,0
DA:563,0
DA:564,0
DA:565,0
DA:566,0
DA:567,0
DA:570,0
DA:571,0
DA:572,0
DA:573,0
DA:574,0
DA:576,0
DA:577,0
DA:579,0
DA:582,0
DA:584,0
DA:587,0
DA:588,0
DA:589,0
DA:590,0
DA:593,0
DA:594,0
DA:595,0
DA:596,0
DA:599,0
DA:600,0
DA:601,0
DA:602,0
DA:603,0
DA:604,0
DA:605,0
DA:606,0
DA:607,0
DA:608,0
DA:609,0
DA:611,0
DA:613,0
DA:614,0
DA:615,0
DA:616,0
DA:617,0
DA:620,0
DA:622,0
DA:625,0
DA:629,0
DA:630,0
DA:631,0
DA:632,0
DA:633,0
DA:634,0
DA:636,0
DA:638,0
BRF:0
BRH:0
LF:203
LH:15
end_of_record
SF:/home/tasuku/com/github/signal-slot/embedded-charts/src/math/interpolation.rs
FN:384,_RNvNtNtNtCs1I4G5KWFz5n_15embedded_charts4math13interpolation5testss_20test_point_smoothing
FN:396,_RNvNtNtNtCs1I4G5KWFz5n_15embedded_charts4math13interpolation5testss_21test_series_smoothing
FN:351,_RNvNtNtNtCs1I4G5KWFz5n_15embedded_charts4math13interpolation5testss_25test_linear_interpolation
FN:368,_RNvNtNtNtCs1I4G5KWFz5n_15embedded_charts4math13interpolation5testss_30test_catmull_rom_interpolation
FN:68,_RNvMs_NtNtCs1I4G5KWFz5n_15embedded_charts4math13interpolationNtB4_17CurveInterpolator11interpolate
FN:292,_RNvMs_NtNtCs1I4G5KWFz5n_15embedded_charts4math13interpolationNtB4_17CurveInterpolator12smooth_point
FN:319,_RNvMs_NtNtCs1I4G5KWFz5n_15embedded_charts4math13interpolationNtB4_17CurveInterpolator13smooth_series
FN:240,_RNvMs_NtNtCs1I4G5KWFz5n_15embedded_charts4math13interpolationNtB4_17CurveInterpolator20bezier_interpolation
FN:85,_RNvMs_NtNtCs1I4G5KWFz5n_15embedded_charts4math13interpolationNtB4_17CurveInterpolator20linear_interpolation
FN:182,_RNvMs_NtNtCs1I4G5KWFz5n_15embedded_charts4math13interpolationNtB4_17CurveInterpolator25catmull_rom_interpolation
FN:118,_RNvMs_NtNtCs1I4G5KWFz5n_15embedded_charts4math13interpolationNtB4_17CurveInterpolator26cubic_spline_interpolation
FN:46,_RNvXNtNtCs1I4G5KWFz5n_15embedded_charts4math13interpolationNtB2_19InterpolationConfigNtNtCs3XRySYX51hI_4core7default7Default7default
FN:328,_RNCNvMs_NtNtCs1I4G5KWFz5n_15embedded_charts4math13interpolationNtB6_17CurveInterpolator13smooth_series0Ba_
FN:337,_RNCNvMs_NtNtCs1I4G5KWFz5n_15embedded_charts4math13interpolationNtB6_17CurveInterpolator13smooth_seriess_0Ba_
FN:266,_RNCNvMs_NtNtCs1I4G5KWFz5n_15embedded_charts4math13interpolationNtB6_17CurveInterpolator20bezier_interpolation0Ba_
FN:285,_RNCNvMs_NtNtCs1I4G5KWFz5n_15embedded_charts4math13interpolationNtB6_17CurveInterpolator20bezier_interpolations0_0Ba_
FN:280,_RNCNvMs_NtNtCs1I4G5KWFz5n_15embedded_charts4math13interpolationNtB6_17CurveInterpolator20bezier_interpolations_0Ba_
FN:96,_RNCNvMs_NtNtCs1I4G5KWFz5n_15embedded_charts4math13interpolationNtB6_17CurveInterpolator20linear_interpolation0Ba_
FN:111,_RNCNvMs_NtNtCs1I4G5KWFz5n_15embedded_charts4math13interpolationNtB6_17CurveInterpolator20linear_interpolations0_0Ba_
FN:105,_RNCNvMs_NtNtCs1I4G5KWFz5n_15embedded_charts4math13interpolationNtB6_17CurveInterpolator20linear_interpolations_0Ba_
FN:205,_RNCNvMs_NtNtCs1I4G5KWFz5n_15embedded_charts4math13interpolationNtB6_17CurveInterpolator25catmull_rom_interpolation0Ba_
FN:233,_RNCNvMs_NtNtCs1I4G5KWFz5n_15embedded_charts4math13interpolationNtB6_17CurveInterpolator25catmull_rom_interpolations0_0Ba_
FN:228,_RNCNvMs_NtNtCs1I4G5KWFz5n_15embedded_charts4math13interpolationNtB6_17CurveInterpolator25catmull_rom_interpolations_0Ba_
FN:132,_RNCNvMs_NtNtCs1I4G5KWFz5n_15embedded_charts4math13interpolationNtB6_17CurveInterpolator26cubic_spline_interpolation0Ba_
FN:170,_RNCNvMs_NtNtCs1I4G5KWFz5n_15embedded_charts4math13interpolationNtB6_17CurveInterpolator26cubic_spline_interpolations0_0Ba_
FN:175,_RNCNvMs_NtNtCs1I4G5KWFz5n_15embedded_charts4math13interpolationNtB6_17CurveInterpolator26cubic_spline_interpolations1_0Ba_
FN:151,_RNCNvMs_NtNtCs1I4G5KWFz5n_15embedded_charts4math13interpolationNtB6_17CurveInterpolator26cubic_spline_interpolations_0Ba_
FNDA:1,_RNvNtNtNtCs1I4G5KWFz5n_15embedded_charts4math13interpolation5testss_20test_point_smoothing
FNDA:1,_RNvNtNtNtCs1I4G5KWFz5n_15embedded_charts4math13interpolation5testss_21test_series_smoothing
FNDA:1,_RNvNtNtNtCs1I4G5KWFz5n_15embedded_charts4math13interpolation5testss_25test_linear_interpolation
FNDA:1,_RNvNtNtNtCs1I4G5KWFz5n_15embedded_charts4math13interpolation5testss_30test_catmull_rom_interpolation
FNDA:8,_RNvMs_NtNtCs1I4G5KWFz5n_15embedded_charts4math13interpolationNtB4_17CurveInterpolator11interpolate
FNDA:11,_RNvMs_NtNtCs1I4G5KWFz5n_15embedded_charts4math13interpolationNtB4_17CurveInterpolator12smooth_point
FNDA:1,_RNvMs_NtNtCs1I4G5KWFz5n_15embedded_charts4math13interpolationNtB4_17CurveInterpolator13smooth_series
FNDA:0,_RNvMs_NtNtCs1I4G5KWFz5n_15embedded_charts4math13interpolationNtB4_17CurveInterpolator20bezier_interpolation
FNDA:3,_RNvMs_NtNtCs1I4G5KWFz5n_15embedded_charts4math13interpolationNtB4_17CurveInterpolator20linear_interpolation
FNDA:2,_RNvMs_NtNtCs1I4G5KWFz5n_15embedded_charts4math13interpolationNtB4_17CurveInterpolator25catmull_rom_interpolation
FNDA:5,_RNvMs_NtNtCs1I4G5KWFz5n_15embedded_charts4math13interpolationNtB4_17CurveInterpolator26cubic_spline_interpolation
FNDA:21,_RNvXNtNtCs1I4G5KWFz5n_15embedded_charts4math13interpolationNtB2_19InterpolationConfigNtNtCs3XRySYX51hI_4core7default7Default7default
FNDA:0,_RNCNvMs_NtNtCs1I4G5KWFz5n_15embedded_charts4math13interpolationNtB6_17CurveInterpolator13smooth_series0Ba_
FNDA:0,_RNCNvMs_NtNtCs1I4G5KWFz5n_15embedded_charts4math13interpolationNtB6_17CurveInterpolator13smooth_seriess_0Ba_
FNDA:0,_RNCNvMs_NtNtCs1I4G5KWFz5n_15embedded_charts4math13interpolationNtB6_17CurveInterpolator20bezier_interpolation0Ba_
FNDA:0,_RNCNvMs_NtNtCs1I4G5KWFz5n_15embedded_charts4math13interpolationNtB6_17CurveInterpolator20bezier_interpolations0_0Ba_
FNDA:0,_RNCNvMs_NtNtCs1I4G5KWFz5n_15embedded_charts4math13interpolationNtB6_17CurveInterpolator20bezier_interpolations_0Ba_
FNDA:0,_RNCNvMs_NtNtCs1I4G5KWFz5n_15embedded_charts4math13interpolationNtB6_17CurveInterpolator20linear_interpolation0Ba_
FNDA:0,_RNCNvMs_NtNtCs1I4G5KWFz5n_15embedded_charts4math13interpolationNtB6_17CurveInterpolator20linear_interpolations0_0Ba_
FNDA:0,_RNCNvMs_NtNtCs1I4G5KWFz5n_15embedded_charts4math13interpolationNtB6_17CurveInterpolator20linear_interpolations_0Ba_
FNDA:0,_RNCNvMs_NtNtCs1I4G5KWFz5n_15embedded_charts4math13interpolationNtB6_17CurveInterpolator25catmull_rom_interpolation0Ba_
FNDA:0,_RNCNvMs_NtNtCs1I4G5KWFz5n_15embedded_charts4math13interpolationNtB6_17CurveInterpolator25catmull_rom_interpolations0_0Ba_
FNDA:0,_RNCNvMs_NtNtCs1I4G5KWFz5n_15embedded_charts4math13interpolationNtB6_17CurveInterpolator25catmull_rom_interpolations_0Ba_
FNDA:0,_RNCNvMs_NtNtCs1I4G5KWFz5n_15embedded_charts4math13interpolationNtB6_17CurveInterpolator26cubic_spline_interpolation0Ba_
FNDA:0,_RNCNvMs_NtNtCs1I4G5KWFz5n_15embedded_charts4math13interpolationNtB6_17CurveInterpolator26cubic_spline_interpolations0_0Ba_
FNDA:0,_RNCNvMs_NtNtCs1I4G5KWFz5n_15embedded_charts4math13interpolationNtB6_17CurveInterpolator26cubic_spline_interpolations1_0Ba_
FNDA:0,_RNCNvMs_NtNtCs1I4G5KWFz5n_15embedded_charts4math13interpolationNtB6_17CurveInterpolator26cubic_spline_interpolations_0Ba_
FNF:27
FNH:11
DA:46,21
DA:47,21
DA:48,21
DA:49,21
DA:50,21
DA:51,21
DA:52,21
DA:53,21
DA:68,8
DA:69,8
DA:70,8
DA:71,8
DA:72,8
DA:73,0
DA:74,8
DA:75,8
DA:76,8
DA:77,1
DA:78,5
DA:79,2
DA:80,0
DA:82,8
DA:85,3
DA:86,3
DA:87,3
DA:88,3
DA:89,3
DA:91,3
DA:92,3
DA:93,3
DA:94,3
DA:95,3
DA:96,3
DA:99,17
DA:100,17
DA:101,17
DA:102,17
DA:103,17
DA:104,17
DA:105,17
DA:110,3
DA:111,3
DA:112,0
DA:114,3
DA:115,3
DA:118,5
DA:119,5
DA:120,5
DA:121,5
DA:122,5
DA:123,5
DA:124,5
DA:125,5
DA:126,2
DA:127,3
DA:128,3
DA:129,3
DA:130,3
DA:131,21
DA:132,21
DA:136,15
DA:137,15
DA:138,15
DA:139,15
DA:140,15
DA:141,15
DA:142,15
DA:145,18
DA:146,18
DA:147,18
DA:148,18
DA:149,18
DA:150,18
DA:151,18
DA:153,18
DA:154,462
DA:155,462
DA:156,462
DA:157,462
DA:158,462
DA:159,462
DA:160,462
DA:161,462
DA:162,462
DA:163,462
DA:164,462
DA:165,462
DA:166,462
DA:167,462
DA:168,462
DA:169,462
DA:170,462
DA:174,3
DA:175,3
DA:176,0
DA:178,3
DA:179,5
DA:182,2
DA:183,2
DA:184,2
DA:185,2
DA:186,2
DA:187,2
DA:188,2
DA:189,2
DA:190,0
DA:191,2
DA:194,4
DA:196,4
DA:197,4
DA:198,4
DA:199,4
DA:200,2
DA:202,2
DA:205,4
DA:208,28
DA:209,28
DA:210,28
DA:211,28
DA:212,28
DA:213,28
DA:214,28
DA:215,28
DA:216,28
DA:217,28
DA:218,28
DA:219,28
DA:220,28
DA:221,28
DA:222,28
DA:223,28
DA:224,28
DA:225,28
DA:226,28
DA:227,28
DA:228,28
DA:232,2
DA:233,2
DA:234,0
DA:236,2
DA:237,2
DA:240,0
DA:241,0
DA:242,0
DA:243,0
DA:244,0
DA:245,0
DA:246,0
DA:247,0
DA:248,0
DA:249,0
DA:252,0
DA:253,0
DA:254,0
DA:255,0
DA:256,0
DA:257,0
DA:258,0
DA:259,0
DA:260,0
DA:261,0
DA:262,0
DA:263,0
DA:264,0
DA:265,0
DA:266,0
DA:269,0
DA:270,0
DA:271,0
DA:272,0
DA:273,0
DA:274,0
DA:275,0
DA:276,0
DA:277,0
DA:278,0
DA:279,0
DA:280,0
DA:284,0
DA:285,0
DA:286,0
DA:288,0
DA:289,0
DA:292,11
DA:293,11
DA:294,11
DA:295,11
DA:296,11
DA:297,11
DA:298,0
DA:299,11
DA:300,11
DA:301,11
DA:302,11
DA:303,4
DA:304,7
DA:305,7
DA:306,7
DA:307,7
DA:308,7
DA:309,7
DA:310,7
DA:311,7
DA:312,7
DA:313,7
DA:314,7
DA:315,7
DA:316,11
DA:319,1
DA:320,1
DA:321,1
DA:322,1
DA:323,1
DA:324,1
DA:325,6
DA:326,5
DA:327,5
DA:328,5
DA:331,1
DA:332,2
DA:333,10
DA:334,10
DA:335,10
DA:336,10
DA:337,10
DA:339,2
DA:342,1
DA:343,1
DA:351,1
DA:352,1
DA:353,1
DA:354,1
DA:355,1
DA:356,1
DA:357,1
DA:358,1
DA:359,1
DA:360,1
DA:361,1
DA:362,1
DA:363,1
DA:364,1
DA:365,1
DA:368,1
DA:369,1
DA:370,1
DA:371,1
DA:372,1
DA:373,1
DA:374,1
DA:375,1
DA:376,1
DA:377,1
DA:378,1
DA:379,1
DA:380,1
DA:381,1
DA:384,1
DA:385,1
DA:386,1
DA:387,1
DA:388,1
DA:389,1
DA:390,1
DA:391,1
DA:392,1
DA:393,1
DA:396,1
DA:397,1
DA:398,1
DA:399,1
DA:400,1
DA:401,1
DA:402,1
DA:403,1
DA:404,1
DA:405,1
DA:408,1
DA:409,1
DA:410,1
BRF:0
BRH:0
LF:295
LH:231
end_of_record
SF:/home/tasuku/com/github/signal-slot/embedded-charts/src/math/mod.rs
FN:203,_RNvMs_NtCs1I4G5KWFz5n_15embedded_charts4mathNtB4_4Math10to_degreesB6_
FN:196,_RNvMs_NtCs1I4G5KWFz5n_15embedded_charts4mathNtB4_4Math10to_radiansB6_
FN:161,_RNvMs_NtCs1I4G5KWFz5n_15embedded_charts4mathNtB4_4Math2lnB6_
FN:119,_RNvMs_NtCs1I4G5KWFz5n_15embedded_charts4mathNtB4_4Math3absB6_
FN:133,_RNvMs_NtCs1I4G5KWFz5n_15embedded_charts4mathNtB4_4Math3maxB6_
FN:126,_RNvMs_NtCs1I4G5KWFz5n_15embedded_charts4mathNtB4_4Math3minB6_
FN:189,_RNvMs_NtCs1I4G5KWFz5n_15embedded_charts4mathNtB4_4Math3tanB6_
FN:147,_RNvMs_NtCs1I4G5KWFz5n_15embedded_charts4mathNtB4_4Math4ceilB6_
FN:210,_RNvMs_NtCs1I4G5KWFz5n_15embedded_charts4mathNtB4_4Math5atan2B6_
FN:295,_RNvXs1_NtCs1I4G5KWFz5n_15embedded_charts4mathlINtB5_17NumericConversionlE11from_numberB7_
FN:273,_RNvXs1_NtCs1I4G5KWFz5n_15embedded_charts4mathlINtB5_17NumericConversionlE9to_numberB7_
FN:51,_RNvMNtCs1I4G5KWFz5n_15embedded_charts4mathNtB2_4Math7backend
FN:182,_RNvMs_NtCs1I4G5KWFz5n_15embedded_charts4mathNtB4_4Math3cosB6_
FN:154,_RNvMs_NtCs1I4G5KWFz5n_15embedded_charts4mathNtB4_4Math3powB6_
FN:175,_RNvMs_NtCs1I4G5KWFz5n_15embedded_charts4mathNtB4_4Math3sinB6_
